Archive member included to satisfy reference by file (symbol)

./SysLib/MercuryPlat/release/libsystem.a(main_entry.o)
                              (APP_Entry)
./SysLib/MercuryPlat/release/libsystem.a(MercuryCSTD.o)
                              ./SysLib/MercuryPlat/release/libsystem.a(main_entry.o) (MC_SSCANF)
.//build/MainApp/release/lib\libMainApp.a(test_main.o)
                              ./SysLib/MercuryPlat/release/libsystem.a(main_entry.o) (Mercury_Main)
.//build/MainApp/release/lib\libMainApp.a(keypad.o)
                              .//build/MainApp/release/lib\libMainApp.a(test_main.o) (app_get_battery_percent)
.//build/MainApp/release/lib\libMainApp.a(transactions.o)
                              .//build/MainApp/release/lib\libMainApp.a(test_main.o) (Trans_RegisterDevice_Process)
.//build/MainApp/release/lib\libMainApp.a(wifi.o)
                              .//build/MainApp/release/lib\libMainApp.a(test_main.o) (start_connect_network)
.//build/MainApp/release/lib\libMainApp.a(app_system.o)
                              .//build/MainApp/release/lib\libMainApp.a(keypad.o) (CharString2UnicodeString)
.//build/MainApp/release/lib\libMainApp.a(push_msg_parse.o)
                              .//build/MainApp/release/lib\libMainApp.a(keypad.o) (trans_record_play)
.//build/MainApp/release/lib\libMainApp.a(app_config.o)
                              .//build/MainApp/release/lib\libMainApp.a(keypad.o) (appInfoSave)
.//build/MainApp/release/lib\libMainApp.a(connect_mqtt_soundbox_server.o)
                              .//build/MainApp/release/lib\libMainApp.a(keypad.o) (start_bcs_clear_timer)
.//build/MainApp/release/lib\libMainApp.a(24_24_lcd.o)
                              .//build/MainApp/release/lib\libMainApp.a(push_msg_parse.o) (_16_24_zero)
.//build/MainApp/release/lib\libMainApp.a(led.o)
                              .//build/MainApp/release/lib\libMainApp.a(test_main.o) (led_close)
.//build/MainApp/release/lib\libMainApp.a(app_qrcode.o)
                              .//build/MainApp/release/lib\libMainApp.a(push_msg_parse.o) (app_qrcode_cfg_init)
.//build/MainApp/release/lib\libMainApp.a(device.o)
                              .//build/MainApp/release/lib\libMainApp.a(test_main.o) (set_restart_reason)
.//build/MainApp/release/lib\libMainApp.a(app_fota.o)
                              .//build/MainApp/release/lib\libMainApp.a(push_msg_parse.o) (_app_http_reqest2)
.//build/MainApp/release/lib\libMainApp.a(temp.o)
                              .//build/MainApp/release/lib\libMainApp.a(test_main.o) (play_audio_by_name)
.//build/MainApp/release/lib\libMainApp.a(app_audio.o)
                              .//build/MainApp/release/lib\libMainApp.a(keypad.o) (app_get_audio_type)
.//build/MainApp/release/lib\libMainApp.a(global.o)
                              .//build/MainApp/release/lib\libMainApp.a(test_main.o) (apn_list)
.//build/MainApp/release/lib\libMainApp.a(data_parser.o)
                              .//build/MainApp/release/lib\libMainApp.a(push_msg_parse.o) (parseTxnDetails_new)
.//build/MainApp/release/lib\libMainApp.a(app_power.o)
                              .//build/MainApp/release/lib\libMainApp.a(test_main.o) (batlow_poweroff)
.//prebuilts/win32/gcc-arm-none-eabi/lib/gcc/arm-none-eabi/7.2.1\libgcc.a(_divsi3.o)
                              .//build/MainApp/release/lib\libMainApp.a(push_msg_parse.o) (__aeabi_idiv)
.//prebuilts/win32/gcc-arm-none-eabi/lib/gcc/arm-none-eabi/7.2.1\libgcc.a(_dvmd_tls.o)
                              .//prebuilts/win32/gcc-arm-none-eabi/lib/gcc/arm-none-eabi/7.2.1\libgcc.a(_divsi3.o) (__aeabi_idiv0)
./SysLib/MercuryPlat/release/libsystem.a(MercuryAudio.o)
                              .//build/MainApp/release/lib\libMainApp.a(test_main.o) (AudioSetVolume)
./SysLib/MercuryPlat/release/libsystem.a(MercuryBattery.o)
                              .//build/MainApp/release/lib\libMainApp.a(test_main.o) (BatteryGetStatus)
./SysLib/MercuryPlat/release/libsystem.a(MercuryFile.o)
                              .//build/MainApp/release/lib\libMainApp.a(test_main.o) (InitFileSystemPlus)
./SysLib/MercuryPlat/release/libsystem.a(MercuryFota.o)
                              .//build/MainApp/release/lib\libMainApp.a(test_main.o) (QspiFlashInit)
./SysLib/MercuryPlat/release/libsystem.a(MercuryGpio.o)
                              .//build/MainApp/release/lib\libMainApp.a(keypad.o) (GIO_SetMode)
./SysLib/MercuryPlat/release/libsystem.a(MercuryGraphics.o)
                              .//build/MainApp/release/lib\libMainApp.a(app_qrcode.o) (DisplayInit)
./SysLib/MercuryPlat/release/libsystem.a(MercuryKeypad.o)
                              .//build/MainApp/release/lib\libMainApp.a(keypad.o) (KP_Init)
./SysLib/MercuryPlat/release/libsystem.a(MercuryMem.o)
                              .//build/MainApp/release/lib\libMainApp.a(test_main.o) (LocalAlloc)
./SysLib/MercuryPlat/release/libsystem.a(MercuryNLed.o)
                              .//build/MainApp/release/lib\libMainApp.a(led.o) (NLedSetCurrentLedlevel)
./SysLib/MercuryPlat/release/libsystem.a(MercuryNet.o)
                              .//build/MainApp/release/lib\libMainApp.a(keypad.o) (NetworkGetSignalQuality)
./SysLib/MercuryPlat/release/libsystem.a(MercuryNv.o)
                              .//build/MainApp/release/lib\libMainApp.a(test_main.o) (NV_Read)
./SysLib/MercuryPlat/release/libsystem.a(MercuryPlat.o)
                              .//build/MainApp/release/lib\libMainApp.a(push_msg_parse.o) (GetImei)
./SysLib/MercuryPlat/release/libsystem.a(MercuryPowerManager.o)
                              .//build/MainApp/release/lib\libMainApp.a(keypad.o) (PowerOff)
./SysLib/MercuryPlat/release/libsystem.a(MercurySyn.o)
                              .//build/MainApp/release/lib\libMainApp.a(test_main.o) (CreateEvent)
./SysLib/MercuryPlat/release/libsystem.a(MercuryThread.o)
                              .//build/MainApp/release/lib\libMainApp.a(test_main.o) (CreateThread)
./SysLib/MercuryPlat/release/libsystem.a(MercuryTimer.o)
                              .//build/MainApp/release/lib\libMainApp.a(keypad.o) (CreateTimer)
./SysLib/MercuryPlat/release/libsystem.a(MercuryTts.o)
                              .//build/MainApp/release/lib\libMainApp.a(test_main.o) (TTS_SetParams)
./SysLib/MercuryPlat/release/AL36V200_SDK.a(QYY_API_FOTA.o)
                              .//build/MainApp/release/lib\libMainApp.a(app_fota.o) (qyy_fota_update)
./SysLib/MercuryPlat/release/AL36V200_SDK.a(QYY_API_POWER.o)
                              .//build/MainApp/release/lib\libMainApp.a(keypad.o) (get_battery_percent)
./SysLib/MercuryPlat/release/AL36V200_SDK.a(QYY_API_BCS_DISPLAY.o)
                              .//build/MainApp/release/lib\libMainApp.a(push_msg_parse.o) (qyy_bcs_number)
./SysLib/MercuryPlat/release/AL36V200_SDK.a(qyy_to_sdk.o)
                              .//build/MainApp/release/lib\libMainApp.a(test_main.o) (sdk_PA_ENABLE)
./SysLib/MercuryPlat/release/AL36V200_SDK.a(gpio.o)
                              ./SysLib/MercuryPlat/release/AL36V200_SDK.a(qyy_to_sdk.o) (qyy_gpio_key_reg_cb)
./SysLib/MercuryPlat/release/AL36V200_SDK.a(keypad.o)
                              ./SysLib/MercuryPlat/release/AL36V200_SDK.a(qyy_to_sdk.o) (qyy_Get_key_up_state)
./SysLib/MercuryPlat/release/AL36V200_SDK.a(lcddrv.o)
                              .//build/MainApp/release/lib\libMainApp.a(push_msg_parse.o) (lcddrv_end_paint)
./SysLib/MercuryPlat/release/AL36V200_SDK.a(bcs_lcddrv.o)
                              ./SysLib/MercuryPlat/release/AL36V200_SDK.a(QYY_API_BCS_DISPLAY.o) (LCD_Init)
./SysLib/MercuryPlat/release/AL36V200_SDK.a(http.o)
                              ./SysLib/MercuryPlat/release/AL36V200_SDK.a(QYY_API_FOTA.o) (Mercury_strncasecmp)
./SysLib/MercuryPlat/release/AL36V200_SDK.a(http_parser.o)
                              ./SysLib/MercuryPlat/release/AL36V200_SDK.a(http.o) (http_parser_execute)
./SysLib/MercuryPlat/release/AL36V200_SDK.a(http_post.o)
                              ./SysLib/MercuryPlat/release/AL36V200_SDK.a(QYY_API_FOTA.o) (qyy_http_reqest_range)
./SysLib/MercuryPlat/release/AL36V200_SDK.a(cjson.o)
                              .//build/MainApp/release/lib\libMainApp.a(push_msg_parse.o) (cJSON_Delete)
./SysLib/MercuryPlat/release/AL36V200_SDK.a(utf2gb.o)
                              ./SysLib/MercuryPlat/release/AL36V200_SDK.a(qyy_to_sdk.o) (qyy_Utf8ToGb2312)
./SysLib/MercuryPlat/release/AL36V200_SDK.a(gprs_tcp.o)
                              ./SysLib/MercuryPlat/release/AL36V200_SDK.a(qyy_to_sdk.o) (qyy_get_gprs_network_status)
./SysLib/MercuryPlat/release/AL36V200_SDK.a(tcp.o)
                              ./SysLib/MercuryPlat/release/AL36V200_SDK.a(qyy_to_sdk.o) (qyy_WIFI_ENABLE)
./SysLib/MercuryPlat/release/AL36V200_SDK.a(wifi_tcp.o)
                              ./SysLib/MercuryPlat/release/AL36V200_SDK.a(tcp.o) (clear_wifi_socket_status)
./SysLib/MercuryPlat/release/AL36V200_SDK.a(amoi_memory.o)
                              ./SysLib/MercuryPlat/release/AL36V200_SDK.a(wifi_tcp.o) (calloc)
./SysLib/MercuryPlat/release/AL36V200_SDK.a(base64.o)
                              .//build/MainApp/release/lib\libMainApp.a(push_msg_parse.o) (mbedtls_base64_decode)
./SysLib/MercuryPlat/release/AL36V200_SDK.a(md5.o)
                              ./SysLib/MercuryPlat/release/AL36V200_SDK.a(QYY_API_FOTA.o) (mbedtls_md5_init)
./SysLib/MercuryPlat/release/AL36V200_SDK.a(sha256.o)
                              ./SysLib/MercuryPlat/release/AL36V200_SDK.a(QYY_API_FOTA.o) (mbedtls_sha256_init)
./SysLib/MercuryPlat/release/AL36V200_SDK.a(tls.o)
                              ./SysLib/MercuryPlat/release/AL36V200_SDK.a(qyy_to_sdk.o) (qyy_setx509cer)
./SysLib/MercuryPlat/release/AL36V200_SDK.a(x509_crt.o)
                              ./SysLib/MercuryPlat/release/AL36V200_SDK.a(tls.o) (mbedtls_x509_crt_verify_info)
./SysLib/MercuryPlat/release/AL36V200_SDK.a(QYY_API_AUDIO.o)
                              ./SysLib/MercuryPlat/release/AL36V200_SDK.a(qyy_to_sdk.o) (qyy_PA_ENABLE2)
./SysLib/MercuryPlat/release/AL36V200_SDK.a(QYY_API_LED.o)
                              ./SysLib/MercuryPlat/release/AL36V200_SDK.a(qyy_to_sdk.o) (qyy_light_control)
./SysLib/MercuryPlat/release/AL36V200_SDK.a(QYY_API_MQTT.o)
                              ./SysLib/MercuryPlat/release/AL36V200_SDK.a(qyy_to_sdk.o) (qyy_MQTT_connect)
./SysLib/MercuryPlat/release/AL36V200_SDK.a(QYY_API_SYS.o)
                              ./SysLib/MercuryPlat/release/AL36V200_SDK.a(keypad.o) (kbd_set_power_short_press)
./SysLib/MercuryPlat/release/AL36V200_SDK.a(QYY_API_TCP.o)
                              ./SysLib/MercuryPlat/release/AL36V200_SDK.a(qyy_to_sdk.o) (qyy_tcp_connect)
./SysLib/MercuryPlat/release/AL36V200_SDK.a(QYY_API_URLEN.o)
                              ./SysLib/MercuryPlat/release/AL36V200_SDK.a(qyy_to_sdk.o) (qyy_uri_encode)
./SysLib/MercuryPlat/release/AL36V200_SDK.a(QYY_API_HMAC.o)
                              ./SysLib/MercuryPlat/release/AL36V200_SDK.a(qyy_to_sdk.o) (qyy_hmac_sha1)
./SysLib/MercuryPlat/release/AL36V200_SDK.a(QYY_API_NTP.o)
                              ./SysLib/MercuryPlat/release/AL36V200_SDK.a(qyy_to_sdk.o) (qyy_get_ntptime)
./SysLib/MercuryPlat/release/AL36V200_SDK.a(QYY_API_DISPLAY.o)
                              ./SysLib/MercuryPlat/release/AL36V200_SDK.a(qyy_to_sdk.o) (qyy_set_status_bar)
./SysLib/MercuryPlat/release/AL36V200_SDK.a(QYY_API_FS.o)
                              ./SysLib/MercuryPlat/release/AL36V200_SDK.a(qyy_to_sdk.o) (qyy_get_flash_usage)
./SysLib/MercuryPlat/release/AL36V200_SDK.a(atthread.o)
                              ./SysLib/MercuryPlat/release/AL36V200_SDK.a(QYY_API_SYS.o) (_sdk_at_thread)
./SysLib/MercuryPlat/release/AL36V200_SDK.a(amp_ctl.o)
                              ./SysLib/MercuryPlat/release/AL36V200_SDK.a(QYY_API_AUDIO.o) (amp_enable)
./SysLib/MercuryPlat/release/AL36V200_SDK.a(device.o)
                              ./SysLib/MercuryPlat/release/AL36V200_SDK.a(gprs_tcp.o) (wifi_power_off)
./SysLib/MercuryPlat/release/AL36V200_SDK.a(se_wifi_reset.o)
                              ./SysLib/MercuryPlat/release/AL36V200_SDK.a(wifi_tcp.o) (wifi_reset)
./SysLib/MercuryPlat/release/AL36V200_SDK.a(MQTTFormat.o)
                              ./SysLib/MercuryPlat/release/AL36V200_SDK.a(wifi_tcp.o) (snprintf)
./SysLib/MercuryPlat/release/AL36V200_SDK.a(MQTTClient.o)
                              ./SysLib/MercuryPlat/release/AL36V200_SDK.a(QYY_API_MQTT.o) (MQTTClientInit)
./SysLib/MercuryPlat/release/AL36V200_SDK.a(MQTTFreeRTOS.o)
                              ./SysLib/MercuryPlat/release/AL36V200_SDK.a(QYY_API_SYS.o) (amoi_MutexInit)
./SysLib/MercuryPlat/release/AL36V200_SDK.a(cp936.o)
                              ./SysLib/MercuryPlat/release/AL36V200_SDK.a(utf2gb.o) (CODE_TABLE_SIZE)
./SysLib/MercuryPlat/release/AL36V200_SDK.a(asn1parse.o)
                              ./SysLib/MercuryPlat/release/AL36V200_SDK.a(x509_crt.o) (mbedtls_asn1_get_len)
./SysLib/MercuryPlat/release/AL36V200_SDK.a(bignum.o)
                              ./SysLib/MercuryPlat/release/AL36V200_SDK.a(asn1parse.o) (mbedtls_mpi_read_binary)
./SysLib/MercuryPlat/release/AL36V200_SDK.a(ctr_drbg.o)
                              ./SysLib/MercuryPlat/release/AL36V200_SDK.a(tls.o) (mbedtls_ctr_drbg_init)
./SysLib/MercuryPlat/release/AL36V200_SDK.a(entropy.o)
                              ./SysLib/MercuryPlat/release/AL36V200_SDK.a(tls.o) (mbedtls_entropy_init)
./SysLib/MercuryPlat/release/AL36V200_SDK.a(error.o)
                              ./SysLib/MercuryPlat/release/AL36V200_SDK.a(tls.o) (mbedtls_strerror)
./SysLib/MercuryPlat/release/AL36V200_SDK.a(md.o)
                              ./SysLib/MercuryPlat/release/AL36V200_SDK.a(x509_crt.o) (mbedtls_md_info_from_type)
./SysLib/MercuryPlat/release/AL36V200_SDK.a(md_wrap.o)
                              ./SysLib/MercuryPlat/release/AL36V200_SDK.a(md.o) (mbedtls_sha512_info)
./SysLib/MercuryPlat/release/AL36V200_SDK.a(net.o)
                              ./SysLib/MercuryPlat/release/AL36V200_SDK.a(tls.o) (mbedtls_net_init)
./SysLib/MercuryPlat/release/AL36V200_SDK.a(oid.o)
                              ./SysLib/MercuryPlat/release/AL36V200_SDK.a(x509_crt.o) (mbedtls_oid_get_x509_ext_type)
./SysLib/MercuryPlat/release/AL36V200_SDK.a(pem.o)
                              ./SysLib/MercuryPlat/release/AL36V200_SDK.a(x509_crt.o) (mbedtls_pem_init)
./SysLib/MercuryPlat/release/AL36V200_SDK.a(pk.o)
                              ./SysLib/MercuryPlat/release/AL36V200_SDK.a(tls.o) (mbedtls_pk_init)
./SysLib/MercuryPlat/release/AL36V200_SDK.a(pk_wrap.o)
                              ./SysLib/MercuryPlat/release/AL36V200_SDK.a(pk.o) (mbedtls_rsa_alt_info)
./SysLib/MercuryPlat/release/AL36V200_SDK.a(pkparse.o)
                              ./SysLib/MercuryPlat/release/AL36V200_SDK.a(x509_crt.o) (mbedtls_pk_parse_subpubkey)
./SysLib/MercuryPlat/release/AL36V200_SDK.a(ripemd160.o)
                              ./SysLib/MercuryPlat/release/AL36V200_SDK.a(md_wrap.o) (mbedtls_ripemd160_init)
./SysLib/MercuryPlat/release/AL36V200_SDK.a(rsa.o)
                              ./SysLib/MercuryPlat/release/AL36V200_SDK.a(pk_wrap.o) (mbedtls_rsa_init)
./SysLib/MercuryPlat/release/AL36V200_SDK.a(sha1.o)
                              ./SysLib/MercuryPlat/release/AL36V200_SDK.a(QYY_API_HMAC.o) (mbedtls_sha1_init)
./SysLib/MercuryPlat/release/AL36V200_SDK.a(sha512.o)
                              ./SysLib/MercuryPlat/release/AL36V200_SDK.a(md_wrap.o) (mbedtls_sha512_init)
./SysLib/MercuryPlat/release/AL36V200_SDK.a(ssl_tls.o)
                              ./SysLib/MercuryPlat/release/AL36V200_SDK.a(tls.o) (mbedtls_ssl_init)
./SysLib/MercuryPlat/release/AL36V200_SDK.a(x509.o)
                              ./SysLib/MercuryPlat/release/AL36V200_SDK.a(x509_crt.o) (mbedtls_x509_get_serial)
./SysLib/MercuryPlat/release/AL36V200_SDK.a(MQTTConnectClient.o)
                              ./SysLib/MercuryPlat/release/AL36V200_SDK.a(MQTTClient.o) (MQTTSerialize_connect)
./SysLib/MercuryPlat/release/AL36V200_SDK.a(MQTTDeserializePublish.o)
                              ./SysLib/MercuryPlat/release/AL36V200_SDK.a(MQTTClient.o) (MQTTDeserialize_publish)
./SysLib/MercuryPlat/release/AL36V200_SDK.a(MQTTPacket.o)
                              ./SysLib/MercuryPlat/release/AL36V200_SDK.a(MQTTClient.o) (MQTTPacket_encode)
./SysLib/MercuryPlat/release/AL36V200_SDK.a(MQTTSerializePublish.o)
                              ./SysLib/MercuryPlat/release/AL36V200_SDK.a(MQTTClient.o) (MQTTSerialize_publish)
./SysLib/MercuryPlat/release/AL36V200_SDK.a(MQTTSubscribeClient.o)
                              ./SysLib/MercuryPlat/release/AL36V200_SDK.a(MQTTClient.o) (MQTTSerialize_subscribe)
./SysLib/MercuryPlat/release/AL36V200_SDK.a(MQTTUnsubscribeClient.o)
                              ./SysLib/MercuryPlat/release/AL36V200_SDK.a(MQTTClient.o) (MQTTSerialize_unsubscribe)
./SysLib/MercuryPlat/release/AL36V200_SDK.a(ac35_hardware.o)
                              ./SysLib/MercuryPlat/release/AL36V200_SDK.a(entropy.o) (mbedtls_hardware_poll)
./SysLib/MercuryPlat/release/AL36V200_SDK.a(aes.o)
                              ./SysLib/MercuryPlat/release/AL36V200_SDK.a(ctr_drbg.o) (mbedtls_aes_init)
./SysLib/MercuryPlat/release/AL36V200_SDK.a(cipher.o)
                              ./SysLib/MercuryPlat/release/AL36V200_SDK.a(ssl_tls.o) (mbedtls_cipher_info_from_type)
./SysLib/MercuryPlat/release/AL36V200_SDK.a(cipher_wrap.o)
                              ./SysLib/MercuryPlat/release/AL36V200_SDK.a(cipher.o) (mbedtls_cipher_supported)
./SysLib/MercuryPlat/release/AL36V200_SDK.a(debug.o)
                              ./SysLib/MercuryPlat/release/AL36V200_SDK.a(ssl_tls.o) (mbedtls_debug_print_msg)
./SysLib/MercuryPlat/release/AL36V200_SDK.a(des.o)
                              ./SysLib/MercuryPlat/release/AL36V200_SDK.a(pem.o) (mbedtls_des_init)
./SysLib/MercuryPlat/release/AL36V200_SDK.a(dhm.o)
                              ./SysLib/MercuryPlat/release/AL36V200_SDK.a(ssl_tls.o) (mbedtls_dhm_init)
./SysLib/MercuryPlat/release/AL36V200_SDK.a(ecdh.o)
                              ./SysLib/MercuryPlat/release/AL36V200_SDK.a(ssl_tls.o) (mbedtls_ecdh_init)
./SysLib/MercuryPlat/release/AL36V200_SDK.a(ecdsa.o)
                              ./SysLib/MercuryPlat/release/AL36V200_SDK.a(pk_wrap.o) (mbedtls_ecdsa_write_signature)
./SysLib/MercuryPlat/release/AL36V200_SDK.a(ecp.o)
                              ./SysLib/MercuryPlat/release/AL36V200_SDK.a(pkparse.o) (mbedtls_ecp_grp_id_list)
./SysLib/MercuryPlat/release/AL36V200_SDK.a(ecp_curves.o)
                              ./SysLib/MercuryPlat/release/AL36V200_SDK.a(pkparse.o) (mbedtls_ecp_group_load)
./SysLib/MercuryPlat/release/AL36V200_SDK.a(gcm.o)
                              ./SysLib/MercuryPlat/release/AL36V200_SDK.a(cipher_wrap.o) (mbedtls_gcm_init)
./SysLib/MercuryPlat/release/AL36V200_SDK.a(hmac_drbg.o)
                              ./SysLib/MercuryPlat/release/AL36V200_SDK.a(ecdsa.o) (mbedtls_hmac_drbg_init)
./SysLib/MercuryPlat/release/AL36V200_SDK.a(pkcs5.o)
                              ./SysLib/MercuryPlat/release/AL36V200_SDK.a(pkparse.o) (mbedtls_pkcs5_pbes2)
./SysLib/MercuryPlat/release/AL36V200_SDK.a(pkcs12.o)
                              ./SysLib/MercuryPlat/release/AL36V200_SDK.a(pkparse.o) (mbedtls_pkcs12_pbe_sha1_rc4_128)
./SysLib/MercuryPlat/release/AL36V200_SDK.a(ssl_ciphersuites.o)
                              ./SysLib/MercuryPlat/release/AL36V200_SDK.a(ssl_tls.o) (mbedtls_ssl_list_ciphersuites)
./SysLib/MercuryPlat/release/AL36V200_SDK.a(ssl_cli.o)
                              ./SysLib/MercuryPlat/release/AL36V200_SDK.a(ssl_tls.o) (mbedtls_ssl_handshake_client_step)
./SysLib/MercuryPlat/release/AL36V200_SDK.a(arc4.o)
                              ./SysLib/MercuryPlat/release/AL36V200_SDK.a(cipher_wrap.o) (mbedtls_arc4_init)
./SysLib/MercuryPlat/release/AL36V200_SDK.a(asn1write.o)
                              ./SysLib/MercuryPlat/release/AL36V200_SDK.a(ecdsa.o) (mbedtls_asn1_write_len)
./SysLib/MercuryPlat/release/AL36V200_SDK.a(camellia.o)
                              ./SysLib/MercuryPlat/release/AL36V200_SDK.a(cipher_wrap.o) (mbedtls_camellia_init)
./SysLib/MercuryPlat/release/AL36V200_SDK.a(ccm.o)
                              ./SysLib/MercuryPlat/release/AL36V200_SDK.a(cipher_wrap.o) (mbedtls_ccm_init)
.//prebuilts/win32/gcc-arm-none-eabi/lib/gcc/arm-none-eabi/7.2.1\libgcc.a(_udivsi3.o)
                              ./SysLib/MercuryPlat/release/AL36V200_SDK.a(ecp.o) (__aeabi_uidiv)
.//prebuilts/win32/gcc-arm-none-eabi/lib/gcc/arm-none-eabi/7.2.1\libgcc.a(_aeabi_ldivmod.o)
                              ./SysLib/MercuryPlat/release/AL36V200_SDK.a(QYY_API_NTP.o) (__aeabi_ldivmod)
.//prebuilts/win32/gcc-arm-none-eabi/lib/gcc/arm-none-eabi/7.2.1\libgcc.a(_aeabi_uldivmod.o)
                              ./SysLib/MercuryPlat/release/AL36V200_SDK.a(QYY_API_NTP.o) (__aeabi_uldivmod)
.//prebuilts/win32/gcc-arm-none-eabi/lib/gcc/arm-none-eabi/7.2.1\libgcc.a(_udivmoddi4.o)
                              .//prebuilts/win32/gcc-arm-none-eabi/lib/gcc/arm-none-eabi/7.2.1\libgcc.a(_aeabi_ldivmod.o) (__udivmoddi4)
./SysLib/MercuryPlat/release/libsystem.a(MercuryBarScan.o)
                              ./SysLib/MercuryPlat/release/AL36V200_SDK.a(QYY_API_DISPLAY.o) (Cam_QR_Enc)
./SysLib/MercuryPlat/release/libsystem.a(MercuryCom.o)
                              ./SysLib/MercuryPlat/release/AL36V200_SDK.a(QYY_API_BCS_DISPLAY.o) (COM_Deinit)
./SysLib/MercuryPlat/release/libsystem.a(MercurySec.o)
                              ./SysLib/MercuryPlat/release/AL36V200_SDK.a(atthread.o) (MercuryReadSecureFlag)
./SysLib/MercuryPlat/release/libsystem.a(MercurySpi.o)
                              ./SysLib/MercuryPlat/release/AL36V200_SDK.a(device.o) (SPI_PinSpi1CsFuncSelect)

Allocating common symbols
Common symbol       size              file

g_event_batlow_warning
                    0x4               .//build/MainApp/release/lib\libMainApp.a(app_power.o)
g_serv_port         0x4               .//build/MainApp/release/lib\libMainApp.a(push_msg_parse.o)
g_event_tts_complete
                    0x4               ./SysLib/MercuryPlat/release/AL36V200_SDK.a(QYY_API_AUDIO.o)
g_event_ota_update  0x4               .//build/MainApp/release/lib\libMainApp.a(test_main.o)
g_event_audio_complete
                    0x4               ./SysLib/MercuryPlat/release/AL36V200_SDK.a(QYY_API_AUDIO.o)
select_wait_time    0x4               ./SysLib/MercuryPlat/release/AL36V200_SDK.a(net.o)
mqtt_txn_details    0x20              .//build/MainApp/release/lib\libMainApp.a(data_parser.o)
mbedtls_cipher_supported
                    0xb0              ./SysLib/MercuryPlat/release/AL36V200_SDK.a(cipher_wrap.o)
g_status_bar        0xc               ./SysLib/MercuryPlat/release/AL36V200_SDK.a(QYY_API_DISPLAY.o)
g_event_check_audio_queue
                    0x4               ./SysLib/MercuryPlat/release/AL36V200_SDK.a(QYY_API_AUDIO.o)
g_event_check_audiofile_queue
                    0x4               ./SysLib/MercuryPlat/release/AL36V200_SDK.a(QYY_API_AUDIO.o)
g_keycb             0x34              ./SysLib/MercuryPlat/release/AL36V200_SDK.a(keypad.o)
g_pay_amount        0x4               .//build/MainApp/release/lib\libMainApp.a(push_msg_parse.o)
g_disp_params       0x1c              ./SysLib/MercuryPlat/release/AL36V200_SDK.a(QYY_API_DISPLAY.o)
volume              0x4               .//build/MainApp/release/lib\libMainApp.a(push_msg_parse.o)
release_tick        0x4               ./SysLib/MercuryPlat/release/AL36V200_SDK.a(keypad.o)
g_serv_ip           0x40              .//build/MainApp/release/lib\libMainApp.a(push_msg_parse.o)
l_soundbox_mqtt_cfg
                    0x30c             .//build/MainApp/release/lib\libMainApp.a(connect_mqtt_soundbox_server.o)
msg_id              0x4               .//build/MainApp/release/lib\libMainApp.a(app_fota.o)
g_wifi_close        0x1c              ./SysLib/MercuryPlat/release/AL36V200_SDK.a(wifi_tcp.o)
g_powerkey_event_handle
                    0x4               ./SysLib/MercuryPlat/release/AL36V200_SDK.a(QYY_API_POWER.o)
g_msgid             0x4               .//build/MainApp/release/lib\libMainApp.a(push_msg_parse.o)
keypad_thread_handle
                    0x4               .//build/MainApp/release/lib\libMainApp.a(keypad.o)
ResponseDetails     0xb               .//build/MainApp/release/lib\libMainApp.a(data_parser.o)
g_event_batlow_poweroff
                    0x4               .//build/MainApp/release/lib\libMainApp.a(app_power.o)
ota_info            0x164             .//build/MainApp/release/lib\libMainApp.a(app_fota.o)
g_pStatus           0x1c              .//build/MainApp/release/lib\libMainApp.a(test_main.o)
pDataProcessAPI     0x4               ./SysLib/MercuryPlat/release/libsystem.a(main_entry.o)
g_event_key_interrupt
                    0x4               ./SysLib/MercuryPlat/release/AL36V200_SDK.a(gpio.o)
g_wifi_connect      0x1c              ./SysLib/MercuryPlat/release/AL36V200_SDK.a(wifi_tcp.o)
RegisterDevice      0x110             .//build/MainApp/release/lib\libMainApp.a(data_parser.o)
g_dev_params        0x8               ./SysLib/MercuryPlat/release/AL36V200_SDK.a(QYY_API_DISPLAY.o)
q_TLS               0x2080            ./SysLib/MercuryPlat/release/AL36V200_SDK.a(tls.o)
l_soundbox_event_network_success
                    0x4               .//build/MainApp/release/lib\libMainApp.a(connect_mqtt_soundbox_server.o)
gkcb                0x34              ./SysLib/MercuryPlat/release/AL36V200_SDK.a(gpio.o)

Memory Configuration

Name             Origin             Length             Attributes
flash            0x60330000         0x00100000         xr
ram              0x80f00000         0x00100000         xrw
*default*        0x00000000         0xffffffff

Linker script and memory map

                0x60330180                . = (ORIGIN (flash) + 0x180)
                0x60330180                __boot_start = .

.boot_app_entry
                0x60330180       0x8c
 *(.APP_Entry)
 .APP_Entry     0x60330180       0x8c ./SysLib/MercuryPlat/release/libsystem.a(main_entry.o)
                0x60330180                APP_Entry

.ARM.extab      0x6033020c        0x0
 .ARM.extab     0x6033020c        0x0 .//prebuilts/win32/gcc-arm-none-eabi/lib/gcc/arm-none-eabi/7.2.1\libgcc.a(_udivmoddi4.o)

.ARM.exidx      0x6033020c        0x8
 .ARM.exidx     0x6033020c        0x8 .//prebuilts/win32/gcc-arm-none-eabi/lib/gcc/arm-none-eabi/7.2.1\libgcc.a(_udivmoddi4.o)

.app_text       0x60330220    0x546a0
 *(.text .text .text.* .gnu.linkonce.t.* .rdata .rodata .rodata.* .gnu.linkonce.r.* .glue_7 .glue_7t .vfp11_veneer .v4_bx)
 .glue_7        0x60330220        0x0 linker stubs
 .glue_7t       0x60330220        0x0 linker stubs
 .vfp11_veneer  0x60330220        0x0 linker stubs
 .v4_bx         0x60330220        0x0 linker stubs
 .text          0x60330220        0x0 ./SysLib/MercuryPlat/release/libsystem.a(main_entry.o)
 .text.InitMercuryApiPtr
                0x60330220      0x168 ./SysLib/MercuryPlat/release/libsystem.a(main_entry.o)
 .text.InitFuncPtrFor3rdCrossBuild
                0x60330388       0x3c ./SysLib/MercuryPlat/release/libsystem.a(main_entry.o)
                0x60330388                InitFuncPtrFor3rdCrossBuild
 .text          0x603303c4        0x0 ./SysLib/MercuryPlat/release/libsystem.a(MercuryCSTD.o)
 .text.memcpy   0x603303c4        0xc ./SysLib/MercuryPlat/release/libsystem.a(MercuryCSTD.o)
                0x603303c4                memcpy
 .text.memmove  0x603303d0        0xc ./SysLib/MercuryPlat/release/libsystem.a(MercuryCSTD.o)
                0x603303d0                memmove
 .text.strcpy   0x603303dc        0xc ./SysLib/MercuryPlat/release/libsystem.a(MercuryCSTD.o)
                0x603303dc                strcpy
 .text.strncpy  0x603303e8        0xc ./SysLib/MercuryPlat/release/libsystem.a(MercuryCSTD.o)
                0x603303e8                strncpy
 .text.strcat   0x603303f4        0xc ./SysLib/MercuryPlat/release/libsystem.a(MercuryCSTD.o)
                0x603303f4                strcat
 .text.strncat  0x60330400        0xc ./SysLib/MercuryPlat/release/libsystem.a(MercuryCSTD.o)
                0x60330400                strncat
 .text.memcmp   0x6033040c        0xc ./SysLib/MercuryPlat/release/libsystem.a(MercuryCSTD.o)
                0x6033040c                memcmp
 .text.strcmp   0x60330418        0xc ./SysLib/MercuryPlat/release/libsystem.a(MercuryCSTD.o)
                0x60330418                strcmp
 .text.strncmp  0x60330424        0xc ./SysLib/MercuryPlat/release/libsystem.a(MercuryCSTD.o)
                0x60330424                strncmp
 .text.strcoll  0x60330430        0x4 ./SysLib/MercuryPlat/release/libsystem.a(MercuryCSTD.o)
                0x60330430                strcoll
 .text.strxfrm  0x60330434        0x4 ./SysLib/MercuryPlat/release/libsystem.a(MercuryCSTD.o)
                0x60330434                strxfrm
 .text.memchr   0x60330438        0xc ./SysLib/MercuryPlat/release/libsystem.a(MercuryCSTD.o)
                0x60330438                memchr
 .text.strchr   0x60330444        0xc ./SysLib/MercuryPlat/release/libsystem.a(MercuryCSTD.o)
                0x60330444                strchr
 .text.strcspn  0x60330450        0xc ./SysLib/MercuryPlat/release/libsystem.a(MercuryCSTD.o)
                0x60330450                strcspn
 .text.strpbrk  0x6033045c        0x4 ./SysLib/MercuryPlat/release/libsystem.a(MercuryCSTD.o)
                0x6033045c                strpbrk
 .text.strrchr  0x60330460        0xc ./SysLib/MercuryPlat/release/libsystem.a(MercuryCSTD.o)
                0x60330460                strrchr
 .text.strspn   0x6033046c        0xc ./SysLib/MercuryPlat/release/libsystem.a(MercuryCSTD.o)
                0x6033046c                strspn
 .text.strstr   0x60330478        0xc ./SysLib/MercuryPlat/release/libsystem.a(MercuryCSTD.o)
                0x60330478                strstr
 .text.strtok   0x60330484        0xc ./SysLib/MercuryPlat/release/libsystem.a(MercuryCSTD.o)
                0x60330484                strtok
 .text.memset   0x60330490        0xc ./SysLib/MercuryPlat/release/libsystem.a(MercuryCSTD.o)
                0x60330490                memset
 .text.strerror
                0x6033049c        0xc ./SysLib/MercuryPlat/release/libsystem.a(MercuryCSTD.o)
                0x6033049c                strerror
 .text.strlen   0x603304a8        0xc ./SysLib/MercuryPlat/release/libsystem.a(MercuryCSTD.o)
                0x603304a8                strlen
 .text.isalpha  0x603304b4        0xc ./SysLib/MercuryPlat/release/libsystem.a(MercuryCSTD.o)
                0x603304b4                isalpha
 .text.iscntrl  0x603304c0        0xc ./SysLib/MercuryPlat/release/libsystem.a(MercuryCSTD.o)
                0x603304c0                iscntrl
 .text.isgraph  0x603304cc        0xc ./SysLib/MercuryPlat/release/libsystem.a(MercuryCSTD.o)
                0x603304cc                isgraph
 .text.islower  0x603304d8        0xc ./SysLib/MercuryPlat/release/libsystem.a(MercuryCSTD.o)
                0x603304d8                islower
 .text.isprint  0x603304e4        0xc ./SysLib/MercuryPlat/release/libsystem.a(MercuryCSTD.o)
                0x603304e4                isprint
 .text.ispunct  0x603304f0        0xc ./SysLib/MercuryPlat/release/libsystem.a(MercuryCSTD.o)
                0x603304f0                ispunct
 .text.isspace  0x603304fc        0xc ./SysLib/MercuryPlat/release/libsystem.a(MercuryCSTD.o)
                0x603304fc                isspace
 .text.isupper  0x60330508        0xc ./SysLib/MercuryPlat/release/libsystem.a(MercuryCSTD.o)
                0x60330508                isupper
 .text.isxdigit
                0x60330514        0xc ./SysLib/MercuryPlat/release/libsystem.a(MercuryCSTD.o)
                0x60330514                isxdigit
 .text.tolower  0x60330520        0xc ./SysLib/MercuryPlat/release/libsystem.a(MercuryCSTD.o)
                0x60330520                tolower
 .text.toupper  0x6033052c        0xc ./SysLib/MercuryPlat/release/libsystem.a(MercuryCSTD.o)
                0x6033052c                toupper
 .text.atoi     0x60330538        0xc ./SysLib/MercuryPlat/release/libsystem.a(MercuryCSTD.o)
                0x60330538                atoi
 .text.atol     0x60330544        0xc ./SysLib/MercuryPlat/release/libsystem.a(MercuryCSTD.o)
                0x60330544                atol
 .text.strtol   0x60330550       0x10 ./SysLib/MercuryPlat/release/libsystem.a(MercuryCSTD.o)
                0x60330550                strtol
 .text.strtoul  0x60330560       0x10 ./SysLib/MercuryPlat/release/libsystem.a(MercuryCSTD.o)
                0x60330560                strtoul
 .text.rand     0x60330570       0x10 ./SysLib/MercuryPlat/release/libsystem.a(MercuryCSTD.o)
                0x60330570                rand
 .text.srand    0x60330580       0x10 ./SysLib/MercuryPlat/release/libsystem.a(MercuryCSTD.o)
                0x60330580                srand
 .text.qsort    0x60330590       0x18 ./SysLib/MercuryPlat/release/libsystem.a(MercuryCSTD.o)
                0x60330590                qsort
 .text.abs      0x603305a8       0x10 ./SysLib/MercuryPlat/release/libsystem.a(MercuryCSTD.o)
                0x603305a8                abs
 .text.vsprintf
                0x603305b8       0x10 ./SysLib/MercuryPlat/release/libsystem.a(MercuryCSTD.o)
                0x603305b8                vsprintf
 .text.vsnprintf
                0x603305c8       0x18 ./SysLib/MercuryPlat/release/libsystem.a(MercuryCSTD.o)
                0x603305c8                vsnprintf
 .text.mktime   0x603305e0       0x10 ./SysLib/MercuryPlat/release/libsystem.a(MercuryCSTD.o)
                0x603305e0                mktime
 .text.vsscanf  0x603305f0        0xc ./SysLib/MercuryPlat/release/libsystem.a(MercuryCSTD.o)
                0x603305f0                vsscanf
 .text.floor    0x603305fc       0x10 ./SysLib/MercuryPlat/release/libsystem.a(MercuryCSTD.o)
                0x603305fc                floor
 .text.pow      0x6033060c       0x10 ./SysLib/MercuryPlat/release/libsystem.a(MercuryCSTD.o)
                0x6033060c                pow
 .text.fabs     0x6033061c       0x10 ./SysLib/MercuryPlat/release/libsystem.a(MercuryCSTD.o)
                0x6033061c                fabs
 .text.strtod   0x6033062c        0xc ./SysLib/MercuryPlat/release/libsystem.a(MercuryCSTD.o)
                0x6033062c                strtod
 .text.strtof   0x60330638        0xc ./SysLib/MercuryPlat/release/libsystem.a(MercuryCSTD.o)
                0x60330638                strtof
 .text.atof     0x60330644       0x10 ./SysLib/MercuryPlat/release/libsystem.a(MercuryCSTD.o)
                0x60330644                atof
 .text.sin      0x60330654       0x10 ./SysLib/MercuryPlat/release/libsystem.a(MercuryCSTD.o)
                0x60330654                sin
 .text.cos      0x60330664       0x10 ./SysLib/MercuryPlat/release/libsystem.a(MercuryCSTD.o)
                0x60330664                cos
 .text.asin     0x60330674       0x10 ./SysLib/MercuryPlat/release/libsystem.a(MercuryCSTD.o)
                0x60330674                asin
 .text.acos     0x60330684       0x10 ./SysLib/MercuryPlat/release/libsystem.a(MercuryCSTD.o)
                0x60330684                acos
 .text.sqrt     0x60330694       0x10 ./SysLib/MercuryPlat/release/libsystem.a(MercuryCSTD.o)
                0x60330694                sqrt
 .text          0x603306a4        0x0 .//build/MainApp/release/lib\libMainApp.a(test_main.o)
 .text.connect_gprs_network
                0x603306a4       0xe0 .//build/MainApp/release/lib\libMainApp.a(test_main.o)
                0x603306a4                connect_gprs_network
 .text.noework_icon_maintenance_thread
                0x60330784       0x94 .//build/MainApp/release/lib\libMainApp.a(test_main.o)
                0x60330784                noework_icon_maintenance_thread
 .text.battery_icon_thread
                0x60330818       0x4e .//build/MainApp/release/lib\libMainApp.a(test_main.o)
                0x60330818                battery_icon_thread
 *fill*         0x60330866        0x2 
 .text.set_network
                0x60330868       0x5c .//build/MainApp/release/lib\libMainApp.a(test_main.o)
                0x60330868                set_network
 .text.connect_wifi_network
                0x603308c4       0x44 .//build/MainApp/release/lib\libMainApp.a(test_main.o)
                0x603308c4                connect_wifi_network
 .text.app_play_power_audio
                0x60330908       0x72 .//build/MainApp/release/lib\libMainApp.a(test_main.o)
                0x60330908                app_play_power_audio
 *fill*         0x6033097a        0x2 
 .text.boot_mode_init
                0x6033097c      0x164 .//build/MainApp/release/lib\libMainApp.a(test_main.o)
                0x6033097c                boot_mode_init
 .text.app_set_tts_param
                0x60330ae0       0x14 .//build/MainApp/release/lib\libMainApp.a(test_main.o)
                0x60330ae0                app_set_tts_param
 .text.appInfoInit
                0x60330af4       0x30 .//build/MainApp/release/lib\libMainApp.a(test_main.o)
                0x60330af4                appInfoInit
 .text.Mercury_Main
                0x60330b24      0x22c .//build/MainApp/release/lib\libMainApp.a(test_main.o)
                0x60330b24                Mercury_Main
 .rodata.Mercury_Main.str1.1
                0x60330d50       0x4c .//build/MainApp/release/lib\libMainApp.a(test_main.o)
                                 0x50 (size before relaxing)
 .rodata.boot_mode_init.str1.1
                0x60330d9c       0xcc .//build/MainApp/release/lib\libMainApp.a(test_main.o)
 .rodata.connect_gprs_network.str1.1
                0x60330e68       0x1f .//build/MainApp/release/lib\libMainApp.a(test_main.o)
 .rodata.connect_wifi_network.str1.1
                0x60330e87        0x9 .//build/MainApp/release/lib\libMainApp.a(test_main.o)
 .rodata.noework_icon_maintenance_thread.str1.1
                0x60330e90        0x8 .//build/MainApp/release/lib\libMainApp.a(test_main.o)
 .text          0x60330e98        0x0 .//build/MainApp/release/lib\libMainApp.a(keypad.o)
 .text.volume_down_double_press
                0x60330e98        0x2 .//build/MainApp/release/lib\libMainApp.a(keypad.o)
 *fill*         0x60330e9a        0x2 
 .text.app_replay_mode_cb
                0x60330e9c       0x18 .//build/MainApp/release/lib\libMainApp.a(keypad.o)
 .text.volume_up_long_press
                0x60330eb4       0x48 .//build/MainApp/release/lib\libMainApp.a(keypad.o)
 .text.replay_long_press
                0x60330efc       0x40 .//build/MainApp/release/lib\libMainApp.a(keypad.o)
 .text.replay_short_press
                0x60330f3c       0x38 .//build/MainApp/release/lib\libMainApp.a(keypad.o)
 .text.keypad_scan_thread
                0x60330f74        0x8 .//build/MainApp/release/lib\libMainApp.a(keypad.o)
                0x60330f74                keypad_scan_thread
 .text.volume_up_double_press
                0x60330f7c       0x88 .//build/MainApp/release/lib\libMainApp.a(keypad.o)
 .text.replay_double_press
                0x60331004       0x6c .//build/MainApp/release/lib\libMainApp.a(keypad.o)
 .text.get_audio_file_data
                0x60331070       0x7c .//build/MainApp/release/lib\libMainApp.a(keypad.o)
                0x60331070                get_audio_file_data
 .text.get_amr_data_from_list
                0x603310ec       0x4e .//build/MainApp/release/lib\libMainApp.a(keypad.o)
                0x603310ec                get_amr_data_from_list
 .text.get_str_from_list_also_broadcast
                0x6033113a       0x1a .//build/MainApp/release/lib\libMainApp.a(keypad.o)
                0x6033113a                get_str_from_list_also_broadcast
 .text.play_network_mode
                0x60331154       0x28 .//build/MainApp/release/lib\libMainApp.a(keypad.o)
                0x60331154                play_network_mode
 .text.play_notification_sound
                0x6033117c       0x20 .//build/MainApp/release/lib\libMainApp.a(keypad.o)
                0x6033117c                play_notification_sound
 .text._is_USB_online
                0x6033119c       0x2c .//build/MainApp/release/lib\libMainApp.a(keypad.o)
                0x6033119c                _is_USB_online
 .text.app_get_battery_percent
                0x603311c8       0x58 .//build/MainApp/release/lib\libMainApp.a(keypad.o)
                0x603311c8                app_get_battery_percent
 .text.play_battery_percent
                0x60331220       0x5c .//build/MainApp/release/lib\libMainApp.a(keypad.o)
                0x60331220                play_battery_percent
 .text.play_network_riss
                0x6033127c       0x44 .//build/MainApp/release/lib\libMainApp.a(keypad.o)
                0x6033127c                play_network_riss
 .text.audio_file_open
                0x603312c0       0x7a .//build/MainApp/release/lib\libMainApp.a(keypad.o)
                0x603312c0                audio_file_open
 *fill*         0x6033133a        0x2 
 .text.powerkey_shortpress_callback
                0x6033133c       0x34 .//build/MainApp/release/lib\libMainApp.a(keypad.o)
                0x6033133c                powerkey_shortpress_callback
 .text.powerkey_longpress_callback
                0x60331370       0xb0 .//build/MainApp/release/lib\libMainApp.a(keypad.o)
                0x60331370                powerkey_longpress_callback
 .text.replay_timer_reset
                0x60331420       0x30 .//build/MainApp/release/lib\libMainApp.a(keypad.o)
                0x60331420                replay_timer_reset
 .text.appSetGpioOutput
                0x60331450       0x28 .//build/MainApp/release/lib\libMainApp.a(keypad.o)
                0x60331450                appSetGpioOutput
 .text.wifi_power_off_af
                0x60331478       0x2a .//build/MainApp/release/lib\libMainApp.a(keypad.o)
                0x60331478                wifi_power_off_af
 *fill*         0x603314a2        0x2 
 .text.volume_down_short_press
                0x603314a4       0xd4 .//build/MainApp/release/lib\libMainApp.a(keypad.o)
 .text.wifi_power_on_af
                0x60331578       0x16 .//build/MainApp/release/lib\libMainApp.a(keypad.o)
                0x60331578                wifi_power_on_af
 *fill*         0x6033158e        0x2 
 .text.volume_down_long_press
                0x60331590       0xd0 .//build/MainApp/release/lib\libMainApp.a(keypad.o)
 .text.volume_up_short_press
                0x60331660       0xac .//build/MainApp/release/lib\libMainApp.a(keypad.o)
 .text._KeyPadProc
                0x6033170c       0x84 .//build/MainApp/release/lib\libMainApp.a(keypad.o)
 .text.save_device_debug_info_to_nv
                0x60331790       0x4a .//build/MainApp/release/lib\libMainApp.a(keypad.o)
                0x60331790                save_device_debug_info_to_nv
 *fill*         0x603317da        0x2 
 .text.keypad_init_matrix
                0x603317dc       0x1c .//build/MainApp/release/lib\libMainApp.a(keypad.o)
                0x603317dc                keypad_init_matrix
 .text.keypad_init_io
                0x603317f8       0xa0 .//build/MainApp/release/lib\libMainApp.a(keypad.o)
                0x603317f8                keypad_init_io
 .rodata.amr_didi
                0x60331898      0x126 .//build/MainApp/release/lib\libMainApp.a(keypad.o)
                0x60331898                amr_didi
 .rodata.keypad_init_io.str1.1
                0x603319be       0x2c .//build/MainApp/release/lib\libMainApp.a(keypad.o)
 .rodata.play_battery_percent.str1.1
                0x603319ea       0x1e .//build/MainApp/release/lib\libMainApp.a(keypad.o)
 .rodata.play_network_mode.str1.1
                0x60331a08       0x11 .//build/MainApp/release/lib\libMainApp.a(keypad.o)
 .rodata.play_network_riss.str1.1
                0x60331a19        0xa .//build/MainApp/release/lib\libMainApp.a(keypad.o)
 .rodata.powerkey_longpress_callback.str1.1
                0x60331a23        0x8 .//build/MainApp/release/lib\libMainApp.a(keypad.o)
 .rodata.replay_double_press.str1.1
                0x60331a2b       0x12 .//build/MainApp/release/lib\libMainApp.a(keypad.o)
 .rodata.replay_long_press.str1.1
                0x60331a3d        0xa .//build/MainApp/release/lib\libMainApp.a(keypad.o)
 .rodata.volume_down_long_press.str1.1
                0x60331a47       0x14 .//build/MainApp/release/lib\libMainApp.a(keypad.o)
 .rodata.volume_down_short_press.str1.1
                0x60331a5b        0x5 .//build/MainApp/release/lib\libMainApp.a(keypad.o)
 .rodata.volume_up_double_press.str1.1
                0x60331a60        0xf .//build/MainApp/release/lib\libMainApp.a(keypad.o)
 .rodata.volume_up_short_press.str1.1
                0x60331a6f        0x5 .//build/MainApp/release/lib\libMainApp.a(keypad.o)
 .text          0x60331a74        0x0 .//build/MainApp/release/lib\libMainApp.a(transactions.o)
 .text.Trans_RegisterDevice_Process
                0x60331a74       0x90 .//build/MainApp/release/lib\libMainApp.a(transactions.o)
                0x60331a74                Trans_RegisterDevice_Process
 .rodata.Trans_RegisterDevice_Process.str1.1
                0x60331b04       0x57 .//build/MainApp/release/lib\libMainApp.a(transactions.o)
 .text          0x60331b5b        0x0 .//build/MainApp/release/lib\libMainApp.a(wifi.o)
 *fill*         0x60331b5b        0x1 
 .text.connectCallback
                0x60331b5c       0x52 .//build/MainApp/release/lib\libMainApp.a(wifi.o)
                0x60331b5c                connectCallback
 *fill*         0x60331bae        0x2 
 .text.start_connect_network
                0x60331bb0       0x74 .//build/MainApp/release/lib\libMainApp.a(wifi.o)
                0x60331bb0                start_connect_network
 .text.ap_connect_network
                0x60331c24       0xc0 .//build/MainApp/release/lib\libMainApp.a(wifi.o)
                0x60331c24                ap_connect_network
 .text.ap_network_thread
                0x60331ce4       0x10 .//build/MainApp/release/lib\libMainApp.a(wifi.o)
                0x60331ce4                ap_network_thread
 .text.airkiss_connect_network
                0x60331cf4       0x70 .//build/MainApp/release/lib\libMainApp.a(wifi.o)
                0x60331cf4                airkiss_connect_network
 .text.airkiss_network_thread
                0x60331d64       0x10 .//build/MainApp/release/lib\libMainApp.a(wifi.o)
                0x60331d64                airkiss_network_thread
 .text.ap_and_airkiss_wifi_connect
                0x60331d74       0xbc .//build/MainApp/release/lib\libMainApp.a(wifi.o)
                0x60331d74                ap_and_airkiss_wifi_connect
 .rodata.airkiss_connect_network.str1.1
                0x60331e30        0xb .//build/MainApp/release/lib\libMainApp.a(wifi.o)
 .rodata.ap_and_airkiss_wifi_connect.str1.1
                0x60331e3b        0xa .//build/MainApp/release/lib\libMainApp.a(wifi.o)
                                 0x13 (size before relaxing)
 .rodata.ap_connect_network.str1.1
                0x60331e45       0x12 .//build/MainApp/release/lib\libMainApp.a(wifi.o)
                                 0x15 (size before relaxing)
 .rodata.start_connect_network.str1.1
                0x60331e57       0x16 .//build/MainApp/release/lib\libMainApp.a(wifi.o)
 .text          0x60331e6d        0x0 .//build/MainApp/release/lib\libMainApp.a(app_system.o)
 *fill*         0x60331e6d        0x1 
 .text.Dbg_dump
                0x60331e6e        0x2 .//build/MainApp/release/lib\libMainApp.a(app_system.o)
                0x60331e6e                Dbg_dump
 .text.CharString2UnicodeString
                0x60331e70       0x2c .//build/MainApp/release/lib\libMainApp.a(app_system.o)
                0x60331e70                CharString2UnicodeString
 .text.app_hex2str
                0x60331e9c       0x30 .//build/MainApp/release/lib\libMainApp.a(app_system.o)
                0x60331e9c                app_hex2str
 .rodata.app_hex2str.str1.1
                0x60331ecc       0x11 .//build/MainApp/release/lib\libMainApp.a(app_system.o)
 .text          0x60331edd        0x0 .//build/MainApp/release/lib\libMainApp.a(push_msg_parse.o)
 *fill*         0x60331edd        0x3 
 .text._json_cfg_server
                0x60331ee0       0x68 .//build/MainApp/release/lib\libMainApp.a(push_msg_parse.o)
                0x60331ee0                _json_cfg_server
 .text._json_qr_code
                0x60331f48       0x74 .//build/MainApp/release/lib\libMainApp.a(push_msg_parse.o)
                0x60331f48                _json_qr_code
 .text._app_config_audio_template_parse
                0x60331fbc       0xd8 .//build/MainApp/release/lib\libMainApp.a(push_msg_parse.o)
 .text._app_config_power_parse
                0x60332094       0xe8 .//build/MainApp/release/lib\libMainApp.a(push_msg_parse.o)
 .text._app_add_result_list
                0x6033217c       0x24 .//build/MainApp/release/lib\libMainApp.a(push_msg_parse.o)
 .text._json_ota_proc
                0x603321a0       0x2c .//build/MainApp/release/lib\libMainApp.a(push_msg_parse.o)
                0x603321a0                _json_ota_proc
 .text._json_dev_control
                0x603321cc       0x3c .//build/MainApp/release/lib\libMainApp.a(push_msg_parse.o)
                0x603321cc                _json_dev_control
 .text._sdk_voiceplay
                0x60332208        0x4 .//build/MainApp/release/lib\libMainApp.a(push_msg_parse.o)
                0x60332208                _sdk_voiceplay
 .text.amount_replay
                0x6033220c        0x2 .//build/MainApp/release/lib\libMainApp.a(push_msg_parse.o)
                0x6033220c                amount_replay
 *fill*         0x6033220e        0x2 
 .text._getThreadStatus
                0x60332210       0xe0 .//build/MainApp/release/lib\libMainApp.a(push_msg_parse.o)
                0x60332210                _getThreadStatus
 .text._getHeapStack
                0x603322f0       0x44 .//build/MainApp/release/lib\libMainApp.a(push_msg_parse.o)
                0x603322f0                _getHeapStack
 .text._postDeviceInfo
                0x60332334      0x124 .//build/MainApp/release/lib\libMainApp.a(push_msg_parse.o)
                0x60332334                _postDeviceInfo
 .text._get_number
                0x60332458       0x52 .//build/MainApp/release/lib\libMainApp.a(push_msg_parse.o)
                0x60332458                _get_number
 .text.play_amount_decimals_audio
                0x603324aa        0x2 .//build/MainApp/release/lib\libMainApp.a(push_msg_parse.o)
                0x603324aa                play_amount_decimals_audio
 .text.play_amonut_decimals_audio_index
                0x603324ac        0x2 .//build/MainApp/release/lib\libMainApp.a(push_msg_parse.o)
                0x603324ac                play_amonut_decimals_audio_index
 *fill*         0x603324ae        0x2 
 .text.play_amount_decimals
                0x603324b0       0x5c .//build/MainApp/release/lib\libMainApp.a(push_msg_parse.o)
                0x603324b0                play_amount_decimals
 .text._json_get_template_str
                0x6033250c       0xc8 .//build/MainApp/release/lib\libMainApp.a(push_msg_parse.o)
                0x6033250c                _json_get_template_str
 .text._json_discount
                0x603325d4       0x88 .//build/MainApp/release/lib\libMainApp.a(push_msg_parse.o)
                0x603325d4                _json_discount
 .text._json_auth_code
                0x6033265c       0xc0 .//build/MainApp/release/lib\libMainApp.a(push_msg_parse.o)
                0x6033265c                _json_auth_code
 .text.trans_record_write
                0x6033271c       0x4c .//build/MainApp/release/lib\libMainApp.a(push_msg_parse.o)
                0x6033271c                trans_record_write
 .text._json_voice_trans1
                0x60332768      0x11c .//build/MainApp/release/lib\libMainApp.a(push_msg_parse.o)
                0x60332768                _json_voice_trans1
 .text._json_voice_trans2
                0x60332884       0x98 .//build/MainApp/release/lib\libMainApp.a(push_msg_parse.o)
                0x60332884                _json_voice_trans2
 *fill*         0x6033291c        0x4 
 .text._json_voice_trans3
                0x60332920      0x13c .//build/MainApp/release/lib\libMainApp.a(push_msg_parse.o)
                0x60332920                _json_voice_trans3
 .text.trans_record_play
                0x60332a5c       0xe4 .//build/MainApp/release/lib\libMainApp.a(push_msg_parse.o)
                0x60332a5c                trans_record_play
 .text.app_save_trans_record
                0x60332b40       0x20 .//build/MainApp/release/lib\libMainApp.a(push_msg_parse.o)
                0x60332b40                app_save_trans_record
 .text.app_load_trans_record
                0x60332b60       0x14 .//build/MainApp/release/lib\libMainApp.a(push_msg_parse.o)
                0x60332b60                app_load_trans_record
 .text.char2int
                0x60332b74       0x28 .//build/MainApp/release/lib\libMainApp.a(push_msg_parse.o)
                0x60332b74                char2int
 .text.str2hex  0x60332b9c       0x3a .//build/MainApp/release/lib\libMainApp.a(push_msg_parse.o)
                0x60332b9c                str2hex
 *fill*         0x60332bd6        0x2 
 .text._json_customize_proc
                0x60332bd8       0x78 .//build/MainApp/release/lib\libMainApp.a(push_msg_parse.o)
                0x60332bd8                _json_customize_proc
 .text._config_qr_code_params
                0x60332c50       0x68 .//build/MainApp/release/lib\libMainApp.a(push_msg_parse.o)
                0x60332c50                _config_qr_code_params
 .text._json_cfg_dyn
                0x60332cb8       0x74 .//build/MainApp/release/lib\libMainApp.a(push_msg_parse.o)
                0x60332cb8                _json_cfg_dyn
 .text._lcd_set_matrix
                0x60332d2c       0xf8 .//build/MainApp/release/lib\libMainApp.a(push_msg_parse.o)
                0x60332d2c                _lcd_set_matrix
 .text._get_divisor
                0x60332e24       0x14 .//build/MainApp/release/lib\libMainApp.a(push_msg_parse.o)
                0x60332e24                _get_divisor
 .text._display_bitmap
                0x60332e38       0x76 .//build/MainApp/release/lib\libMainApp.a(push_msg_parse.o)
                0x60332e38                _display_bitmap
 *fill*         0x60332eae        0x2 
 .text.qyy_mqtt_parse_payload
                0x60332eb0       0xbc .//build/MainApp/release/lib\libMainApp.a(push_msg_parse.o)
                0x60332eb0                qyy_mqtt_parse_payload
 .text._app_config_mqtt_parse
                0x60332f6c      0x120 .//build/MainApp/release/lib\libMainApp.a(push_msg_parse.o)
                0x60332f6c                _app_config_mqtt_parse
 .text._app_config_rsp_parse
                0x6033308c      0x494 .//build/MainApp/release/lib\libMainApp.a(push_msg_parse.o)
 .text.get_dev_config_info
                0x60333520      0x170 .//build/MainApp/release/lib\libMainApp.a(push_msg_parse.o)
                0x60333520                get_dev_config_info
 .text.report_update_result
                0x60333690      0x10c .//build/MainApp/release/lib\libMainApp.a(push_msg_parse.o)
                0x60333690                report_update_result
 .text.report_cfg_update_result
                0x6033379c       0xf8 .//build/MainApp/release/lib\libMainApp.a(push_msg_parse.o)
                0x6033379c                report_cfg_update_result
 .rodata._app_config_audio_template_parse.str1.1
                0x60333894       0x19 .//build/MainApp/release/lib\libMainApp.a(push_msg_parse.o)
                                 0x1e (size before relaxing)
 .rodata._app_config_mqtt_parse.str1.1
                0x603338ad       0x5c .//build/MainApp/release/lib\libMainApp.a(push_msg_parse.o)
 .rodata._app_config_power_parse.str1.1
                0x60333909        0xa .//build/MainApp/release/lib\libMainApp.a(push_msg_parse.o)
 .rodata._app_config_rsp_parse.str1.1
                0x60333913      0x113 .//build/MainApp/release/lib\libMainApp.a(push_msg_parse.o)
                                0x12c (size before relaxing)
 .rodata._config_qr_code_params.str1.1
                0x60333a26       0x13 .//build/MainApp/release/lib\libMainApp.a(push_msg_parse.o)
 .rodata._getHeapStack.str1.1
                0x60333a39       0x13 .//build/MainApp/release/lib\libMainApp.a(push_msg_parse.o)
 .rodata._getThreadStatus.str1.1
                0x60333a4c       0x28 .//build/MainApp/release/lib\libMainApp.a(push_msg_parse.o)
                                 0x30 (size before relaxing)
 .rodata._json_auth_code.str1.1
                0x60333a74       0x2e .//build/MainApp/release/lib\libMainApp.a(push_msg_parse.o)
 .rodata._json_cfg_dyn.str1.1
                0x60333aa2       0x22 .//build/MainApp/release/lib\libMainApp.a(push_msg_parse.o)
 .rodata._json_cfg_server.str1.1
                0x60333ac4       0x24 .//build/MainApp/release/lib\libMainApp.a(push_msg_parse.o)
 .rodata._json_customize_proc.str1.1
                0x60333ae8        0xd .//build/MainApp/release/lib\libMainApp.a(push_msg_parse.o)
 .rodata._json_dev_control.str1.1
                0x60333af5        0xc .//build/MainApp/release/lib\libMainApp.a(push_msg_parse.o)
 .rodata._json_discount.str1.1
                0x60333b01       0x32 .//build/MainApp/release/lib\libMainApp.a(push_msg_parse.o)
 .rodata._json_ota_proc.str1.1
                0x60333b33        0x9 .//build/MainApp/release/lib\libMainApp.a(push_msg_parse.o)
 .rodata._json_qr_code.str1.1
                0x60333b3c       0x24 .//build/MainApp/release/lib\libMainApp.a(push_msg_parse.o)
                                 0x2b (size before relaxing)
 .rodata._json_voice_trans1.str1.1
                0x60333b60       0x1e .//build/MainApp/release/lib\libMainApp.a(push_msg_parse.o)
 .rodata._json_voice_trans2.str1.1
                0x60333b7e        0xf .//build/MainApp/release/lib\libMainApp.a(push_msg_parse.o)
                                 0x14 (size before relaxing)
 .rodata._json_voice_trans3.str1.1
                0x60333b8d       0x25 .//build/MainApp/release/lib\libMainApp.a(push_msg_parse.o)
 .rodata._postDeviceInfo.str1.1
                0x60333bb2       0x7e .//build/MainApp/release/lib\libMainApp.a(push_msg_parse.o)
                                 0x8f (size before relaxing)
 .rodata.g_msg_tbl
                0x60333c30       0x68 .//build/MainApp/release/lib\libMainApp.a(push_msg_parse.o)
 .rodata.get_dev_config_info.str1.1
                0x60333c98       0x6b .//build/MainApp/release/lib\libMainApp.a(push_msg_parse.o)
                                 0x72 (size before relaxing)
 .rodata.play_amount_decimals.str1.1
                0x60333d03       0x6b .//build/MainApp/release/lib\libMainApp.a(push_msg_parse.o)
                                  0xa (size before relaxing)
 .rodata.qyy_mqtt_parse_payload.str1.1
                0x60333d03        0x9 .//build/MainApp/release/lib\libMainApp.a(push_msg_parse.o)
                                 0x18 (size before relaxing)
 .rodata.report_cfg_update_result.str1.1
                0x60333d0c       0x54 .//build/MainApp/release/lib\libMainApp.a(push_msg_parse.o)
 .rodata.report_update_result.str1.1
                0x60333d60       0x27 .//build/MainApp/release/lib\libMainApp.a(push_msg_parse.o)
                                 0x35 (size before relaxing)
 .rodata.trans_record_play.str1.1
                0x60333d87       0x27 .//build/MainApp/release/lib\libMainApp.a(push_msg_parse.o)
                                  0x6 (size before relaxing)
 .text          0x60333d87        0x0 .//build/MainApp/release/lib\libMainApp.a(app_config.o)
 *fill*         0x60333d87        0x1 
 .text.getAppInfo
                0x60333d88        0xc .//build/MainApp/release/lib\libMainApp.a(app_config.o)
                0x60333d88                getAppInfo
 .text.appInfoSave
                0x60333d94       0x20 .//build/MainApp/release/lib\libMainApp.a(app_config.o)
                0x60333d94                appInfoSave
 .text.appInfoLoad
                0x60333db4       0x34 .//build/MainApp/release/lib\libMainApp.a(app_config.o)
                0x60333db4                appInfoLoad
 .text.appInfoUpdate
                0x60333de8       0x18 .//build/MainApp/release/lib\libMainApp.a(app_config.o)
                0x60333de8                appInfoUpdate
 .text.app_IsExistExFlash
                0x60333e00        0xc .//build/MainApp/release/lib\libMainApp.a(app_config.o)
                0x60333e00                app_IsExistExFlash
 .text.app_GetExFlashCapacity
                0x60333e0c       0x10 .//build/MainApp/release/lib\libMainApp.a(app_config.o)
                0x60333e0c                app_GetExFlashCapacity
 .text.app_SetExFlash
                0x60333e1c       0x10 .//build/MainApp/release/lib\libMainApp.a(app_config.o)
                0x60333e1c                app_SetExFlash
 .text.app_IsExistWifi
                0x60333e2c        0xc .//build/MainApp/release/lib\libMainApp.a(app_config.o)
                0x60333e2c                app_IsExistWifi
 .text.app_SetExistWifi
                0x60333e38        0xc .//build/MainApp/release/lib\libMainApp.a(app_config.o)
                0x60333e38                app_SetExistWifi
 .text.app_GetVolume
                0x60333e44        0xc .//build/MainApp/release/lib\libMainApp.a(app_config.o)
                0x60333e44                app_GetVolume
 .text.app_SetVolume
                0x60333e50        0xc .//build/MainApp/release/lib\libMainApp.a(app_config.o)
                0x60333e50                app_SetVolume
 .text.app_GetAudioType
                0x60333e5c        0xc .//build/MainApp/release/lib\libMainApp.a(app_config.o)
                0x60333e5c                app_GetAudioType
 .text.app_SetAudioType
                0x60333e68        0xc .//build/MainApp/release/lib\libMainApp.a(app_config.o)
                0x60333e68                app_SetAudioType
 .text.app_GetAppVersion
                0x60333e74        0x8 .//build/MainApp/release/lib\libMainApp.a(app_config.o)
                0x60333e74                app_GetAppVersion
 .text.app_SetAppVersion
                0x60333e7c       0x18 .//build/MainApp/release/lib\libMainApp.a(app_config.o)
                0x60333e7c                app_SetAppVersion
 .text.app_GetBuildVersion
                0x60333e94        0xc .//build/MainApp/release/lib\libMainApp.a(app_config.o)
                0x60333e94                app_GetBuildVersion
 .text.app_SetBuildVersion
                0x60333ea0        0xc .//build/MainApp/release/lib\libMainApp.a(app_config.o)
                0x60333ea0                app_SetBuildVersion
 .text          0x60333eac        0x0 .//build/MainApp/release/lib\libMainApp.a(connect_mqtt_soundbox_server.o)
 .text.bcs_clear_timer_cb
                0x60333eac       0x24 .//build/MainApp/release/lib\libMainApp.a(connect_mqtt_soundbox_server.o)
 .text.app_mqtt_soundbox_get_handle
                0x60333ed0        0xc .//build/MainApp/release/lib\libMainApp.a(connect_mqtt_soundbox_server.o)
                0x60333ed0                app_mqtt_soundbox_get_handle
 .text.reget_mqtt_soundbox_info
                0x60333edc       0x18 .//build/MainApp/release/lib\libMainApp.a(connect_mqtt_soundbox_server.o)
                0x60333edc                reget_mqtt_soundbox_info
 .text.bcs_clear_timer_reset
                0x60333ef4       0x30 .//build/MainApp/release/lib\libMainApp.a(connect_mqtt_soundbox_server.o)
                0x60333ef4                bcs_clear_timer_reset
 .text.start_bcs_clear_timer
                0x60333f24       0x40 .//build/MainApp/release/lib\libMainApp.a(connect_mqtt_soundbox_server.o)
                0x60333f24                start_bcs_clear_timer
 .text.message_callback_soundbox
                0x60333f64       0xc0 .//build/MainApp/release/lib\libMainApp.a(connect_mqtt_soundbox_server.o)
                0x60333f64                message_callback_soundbox
 .text.message_callback_soundbox_p2p
                0x60334024        0x2 .//build/MainApp/release/lib\libMainApp.a(connect_mqtt_soundbox_server.o)
                0x60334024                message_callback_soundbox_p2p
 .text.app_mqtt_soundbox_publish
                0x60334026        0x8 .//build/MainApp/release/lib\libMainApp.a(connect_mqtt_soundbox_server.o)
                0x60334026                app_mqtt_soundbox_publish
 .text.app_mqtt_soundbox_subcribe
                0x6033402e        0x8 .//build/MainApp/release/lib\libMainApp.a(connect_mqtt_soundbox_server.o)
                0x6033402e                app_mqtt_soundbox_subcribe
 *fill*         0x60334036        0x2 
 .text.app_mqtt_soundbox_connect
                0x60334038       0xd8 .//build/MainApp/release/lib\libMainApp.a(connect_mqtt_soundbox_server.o)
                0x60334038                app_mqtt_soundbox_connect
 .text.app_publish_soundbox_message
                0x60334110      0x104 .//build/MainApp/release/lib\libMainApp.a(connect_mqtt_soundbox_server.o)
                0x60334110                app_publish_soundbox_message
 .text.mqtt_soundbox_processing
                0x60334214       0xf4 .//build/MainApp/release/lib\libMainApp.a(connect_mqtt_soundbox_server.o)
                0x60334214                mqtt_soundbox_processing
 .text.set_soundbox_network_success_event
                0x60334308        0xc .//build/MainApp/release/lib\libMainApp.a(connect_mqtt_soundbox_server.o)
                0x60334308                set_soundbox_network_success_event
 .text.mqtt_soundbox_lost_callback
                0x60334314       0x10 .//build/MainApp/release/lib\libMainApp.a(connect_mqtt_soundbox_server.o)
                0x60334314                mqtt_soundbox_lost_callback
 .text.is_soundbox_network_connected
                0x60334324       0x3c .//build/MainApp/release/lib\libMainApp.a(connect_mqtt_soundbox_server.o)
                0x60334324                is_soundbox_network_connected
 .text.mqtt_soundbox_close_thread
                0x60334360        0xc .//build/MainApp/release/lib\libMainApp.a(connect_mqtt_soundbox_server.o)
                0x60334360                mqtt_soundbox_close_thread
 .text.mqtt_soundbox_thread
                0x6033436c       0x5c .//build/MainApp/release/lib\libMainApp.a(connect_mqtt_soundbox_server.o)
                0x6033436c                mqtt_soundbox_thread
 .rodata        0x603343c8        0xc .//build/MainApp/release/lib\libMainApp.a(connect_mqtt_soundbox_server.o)
 .rodata.app_mqtt_soundbox_connect.str1.1
                0x603343d4        0xd .//build/MainApp/release/lib\libMainApp.a(connect_mqtt_soundbox_server.o)
 .rodata.app_publish_soundbox_message.str1.1
                0x603343e1       0x12 .//build/MainApp/release/lib\libMainApp.a(connect_mqtt_soundbox_server.o)
                                 0x32 (size before relaxing)
 .rodata.is_soundbox_network_connected.str1.1
                0x603343f3        0x8 .//build/MainApp/release/lib\libMainApp.a(connect_mqtt_soundbox_server.o)
 .rodata.mqtt_soundbox_processing.str1.1
                0x603343f3       0x21 .//build/MainApp/release/lib\libMainApp.a(connect_mqtt_soundbox_server.o)
                                 0x26 (size before relaxing)
 .rodata.mqtt_soundbox_thread.str1.1
                0x60334414       0x10 .//build/MainApp/release/lib\libMainApp.a(connect_mqtt_soundbox_server.o)
 .rodata.start_bcs_clear_timer.str1.1
                0x60334424       0x10 .//build/MainApp/release/lib\libMainApp.a(connect_mqtt_soundbox_server.o)
 .text          0x60334434        0x0 .//build/MainApp/release/lib\libMainApp.a(24_24_lcd.o)
 .rodata._16_24_eight
                0x60334434       0x30 .//build/MainApp/release/lib\libMainApp.a(24_24_lcd.o)
                0x60334434                _16_24_eight
 .rodata._16_24_five
                0x60334464       0x30 .//build/MainApp/release/lib\libMainApp.a(24_24_lcd.o)
                0x60334464                _16_24_five
 .rodata._16_24_four
                0x60334494       0x30 .//build/MainApp/release/lib\libMainApp.a(24_24_lcd.o)
                0x60334494                _16_24_four
 .rodata._16_24_nine
                0x603344c4       0x30 .//build/MainApp/release/lib\libMainApp.a(24_24_lcd.o)
                0x603344c4                _16_24_nine
 .rodata._16_24_one
                0x603344f4       0x30 .//build/MainApp/release/lib\libMainApp.a(24_24_lcd.o)
                0x603344f4                _16_24_one
 .rodata._16_24_point
                0x60334524       0x30 .//build/MainApp/release/lib\libMainApp.a(24_24_lcd.o)
                0x60334524                _16_24_point
 .rodata._16_24_seven
                0x60334554       0x30 .//build/MainApp/release/lib\libMainApp.a(24_24_lcd.o)
                0x60334554                _16_24_seven
 .rodata._16_24_six
                0x60334584       0x30 .//build/MainApp/release/lib\libMainApp.a(24_24_lcd.o)
                0x60334584                _16_24_six
 .rodata._16_24_three
                0x603345b4       0x30 .//build/MainApp/release/lib\libMainApp.a(24_24_lcd.o)
                0x603345b4                _16_24_three
 .rodata._16_24_two
                0x603345e4       0x30 .//build/MainApp/release/lib\libMainApp.a(24_24_lcd.o)
                0x603345e4                _16_24_two
 .rodata._16_24_zero
                0x60334614       0x30 .//build/MainApp/release/lib\libMainApp.a(24_24_lcd.o)
                0x60334614                _16_24_zero
 .rodata._32_24_bao
                0x60334644       0x60 .//build/MainApp/release/lib\libMainApp.a(24_24_lcd.o)
                0x60334644                _32_24_bao
 .rodata._32_24_fu
                0x603346a4       0x60 .//build/MainApp/release/lib\libMainApp.a(24_24_lcd.o)
                0x603346a4                _32_24_fu
 .rodata._32_24_kuan
                0x60334704       0x60 .//build/MainApp/release/lib\libMainApp.a(24_24_lcd.o)
                0x60334704                _32_24_kuan
 .rodata._32_24_shou
                0x60334764       0x60 .//build/MainApp/release/lib\libMainApp.a(24_24_lcd.o)
                0x60334764                _32_24_shou
 .rodata._32_24_wei
                0x603347c4       0x60 .//build/MainApp/release/lib\libMainApp.a(24_24_lcd.o)
                0x603347c4                _32_24_wei
 .rodata._32_24_xin
                0x60334824       0x60 .//build/MainApp/release/lib\libMainApp.a(24_24_lcd.o)
                0x60334824                _32_24_xin
 .rodata._32_24_yuan
                0x60334884       0x60 .//build/MainApp/release/lib\libMainApp.a(24_24_lcd.o)
                0x60334884                _32_24_yuan
 .rodata._32_24_zhi
                0x603348e4       0x60 .//build/MainApp/release/lib\libMainApp.a(24_24_lcd.o)
                0x603348e4                _32_24_zhi
 .text          0x60334944        0x0 .//build/MainApp/release/lib\libMainApp.a(led.o)
 .text.led_close
                0x60334944       0x12 .//build/MainApp/release/lib\libMainApp.a(led.o)
                0x60334944                led_close
 .text.led_blink_loop
                0x60334956       0x58 .//build/MainApp/release/lib\libMainApp.a(led.o)
                0x60334956                led_blink_loop
 .text.anfu_led1_on
                0x603349ae       0x16 .//build/MainApp/release/lib\libMainApp.a(led.o)
                0x603349ae                anfu_led1_on
 .text.anfu_led1_off
                0x603349c4       0x16 .//build/MainApp/release/lib\libMainApp.a(led.o)
                0x603349c4                anfu_led1_off
 .text.anfu_led2_on
                0x603349da       0x26 .//build/MainApp/release/lib\libMainApp.a(led.o)
                0x603349da                anfu_led2_on
 .text.anfu_led2_off
                0x60334a00       0x1e .//build/MainApp/release/lib\libMainApp.a(led.o)
                0x60334a00                anfu_led2_off
 .text.anfu_led_on
                0x60334a1e       0x36 .//build/MainApp/release/lib\libMainApp.a(led.o)
                0x60334a1e                anfu_led_on
 .text.anfu_led_off
                0x60334a54       0x2e .//build/MainApp/release/lib\libMainApp.a(led.o)
                0x60334a54                anfu_led_off
 .text          0x60334a82        0x0 .//build/MainApp/release/lib\libMainApp.a(app_qrcode.o)
 .text.app_qrcode_update_cb
                0x60334a82        0x2 .//build/MainApp/release/lib\libMainApp.a(app_qrcode.o)
 .text.app_start_statusbar_update
                0x60334a84       0x44 .//build/MainApp/release/lib\libMainApp.a(app_qrcode.o)
                0x60334a84                app_start_statusbar_update
 .text.app_display_time
                0x60334ac8       0x5c .//build/MainApp/release/lib\libMainApp.a(app_qrcode.o)
                0x60334ac8                app_display_time
 .text.app_display_statusbar
                0x60334b24       0xe0 .//build/MainApp/release/lib\libMainApp.a(app_qrcode.o)
                0x60334b24                app_display_statusbar
 .text.app_statusbar_update_cb
                0x60334c04        0x4 .//build/MainApp/release/lib\libMainApp.a(app_qrcode.o)
 .text.app_qrcode_update_handle
                0x60334c08       0xd4 .//build/MainApp/release/lib\libMainApp.a(app_qrcode.o)
                0x60334c08                app_qrcode_update_handle
 .text.app_start_qrcode_update
                0x60334cdc       0x40 .//build/MainApp/release/lib\libMainApp.a(app_qrcode.o)
                0x60334cdc                app_start_qrcode_update
 .text.app_qrcode_cfg_init
                0x60334d1c       0x8c .//build/MainApp/release/lib\libMainApp.a(app_qrcode.o)
                0x60334d1c                app_qrcode_cfg_init
 .rodata        0x60334da8       0x10 .//build/MainApp/release/lib\libMainApp.a(app_qrcode.o)
 .rodata.app_display_statusbar.str1.1
                0x60334db8        0x8 .//build/MainApp/release/lib\libMainApp.a(app_qrcode.o)
 .rodata.app_display_time.str1.1
                0x60334db8        0xa .//build/MainApp/release/lib\libMainApp.a(app_qrcode.o)
 .rodata.app_qrcode_update_handle.str1.1
                0x60334dc2       0x4d .//build/MainApp/release/lib\libMainApp.a(app_qrcode.o)
                                 0x5a (size before relaxing)
 .rodata.app_start_qrcode_update.str1.1
                0x60334e0f        0xe .//build/MainApp/release/lib\libMainApp.a(app_qrcode.o)
 .rodata.app_start_statusbar_update.str1.1
                0x60334e1d        0xf .//build/MainApp/release/lib\libMainApp.a(app_qrcode.o)
 .text          0x60334e2c        0x0 .//build/MainApp/release/lib\libMainApp.a(device.o)
 .text.set_restart_reason
                0x60334e2c       0x28 .//build/MainApp/release/lib\libMainApp.a(device.o)
                0x60334e2c                set_restart_reason
 .text.check_usb
                0x60334e54       0x3c .//build/MainApp/release/lib\libMainApp.a(device.o)
                0x60334e54                check_usb
 .text.get_mercury_version
                0x60334e90       0x60 .//build/MainApp/release/lib\libMainApp.a(device.o)
                0x60334e90                get_mercury_version
 .text.app_keypad_init
                0x60334ef0       0x20 .//build/MainApp/release/lib\libMainApp.a(device.o)
                0x60334ef0                app_keypad_init
 .rodata.get_mercury_version.str1.1
                0x60334f10       0x24 .//build/MainApp/release/lib\libMainApp.a(device.o)
 .text          0x60334f34        0x0 .//build/MainApp/release/lib\libMainApp.a(app_fota.o)
 .text.ota_thread
                0x60334f34      0x104 .//build/MainApp/release/lib\libMainApp.a(app_fota.o)
                0x60334f34                ota_thread
 .text._app_check_update_rsp_parse
                0x60335038      0x148 .//build/MainApp/release/lib\libMainApp.a(app_fota.o)
 .text._app_http_reqest
                0x60335180       0x90 .//build/MainApp/release/lib\libMainApp.a(app_fota.o)
                0x60335180                _app_http_reqest
 .text._app_http_reqest2
                0x60335210       0x90 .//build/MainApp/release/lib\libMainApp.a(app_fota.o)
                0x60335210                _app_http_reqest2
 .text.app_get_update_info
                0x603352a0       0xd8 .//build/MainApp/release/lib\libMainApp.a(app_fota.o)
                0x603352a0                app_get_update_info
 .text.check_upgrade_thread
                0x60335378        0x4 .//build/MainApp/release/lib\libMainApp.a(app_fota.o)
                0x60335378                check_upgrade_thread
 .text.aliyun_ota_cb
                0x6033537c      0x130 .//build/MainApp/release/lib\libMainApp.a(app_fota.o)
                0x6033537c                aliyun_ota_cb
 .text.report_update_result_aliyun
                0x603354ac      0x104 .//build/MainApp/release/lib\libMainApp.a(app_fota.o)
                0x603354ac                report_update_result_aliyun
 .rodata._app_check_update_rsp_parse.str1.1
                0x603355b0       0x23 .//build/MainApp/release/lib\libMainApp.a(app_fota.o)
                                 0x3c (size before relaxing)
 .rodata._app_http_reqest.str1.1
                0x603355d3        0xf .//build/MainApp/release/lib\libMainApp.a(app_fota.o)
 .rodata._app_http_reqest2.str1.1
                0x603355d3        0x8 .//build/MainApp/release/lib\libMainApp.a(app_fota.o)
 .rodata.aliyun_ota_cb.str1.1
                0x603355d3       0x16 .//build/MainApp/release/lib\libMainApp.a(app_fota.o)
                                 0x30 (size before relaxing)
 .rodata.app_get_update_info.str1.1
                0x603355e9       0x23 .//build/MainApp/release/lib\libMainApp.a(app_fota.o)
                                 0x5c (size before relaxing)
 .rodata.ota_thread.str1.1
                0x6033560c       0x17 .//build/MainApp/release/lib\libMainApp.a(app_fota.o)
                                 0x1e (size before relaxing)
 .rodata.report_update_result_aliyun.str1.1
                0x60335623       0x2f .//build/MainApp/release/lib\libMainApp.a(app_fota.o)
                                 0x3c (size before relaxing)
 .text          0x60335652        0x0 .//build/MainApp/release/lib\libMainApp.a(temp.o)
 *fill*         0x60335652        0x2 
 .text.play_audio_by_name.constprop.8
                0x60335654       0x3c .//build/MainApp/release/lib\libMainApp.a(temp.o)
 .text.set_audio_type
                0x60335690        0xc .//build/MainApp/release/lib\libMainApp.a(temp.o)
                0x60335690                set_audio_type
 .text.set_audio_type_int
                0x6033569c       0x34 .//build/MainApp/release/lib\libMainApp.a(temp.o)
                0x6033569c                set_audio_type_int
 .text.get_audio_type
                0x603356d0        0x8 .//build/MainApp/release/lib\libMainApp.a(temp.o)
                0x603356d0                get_audio_type
 .text.format_audio_file_name
                0x603356d8       0x20 .//build/MainApp/release/lib\libMainApp.a(temp.o)
                0x603356d8                format_audio_file_name
 .text.get_audio_file_name_byid
                0x603356f8       0x38 .//build/MainApp/release/lib\libMainApp.a(temp.o)
                0x603356f8                get_audio_file_name_byid
 .text.get_audio_file_name
                0x60335730        0xc .//build/MainApp/release/lib\libMainApp.a(temp.o)
                0x60335730                get_audio_file_name
 .text.get_unit_audio_file_name
                0x6033573c        0xc .//build/MainApp/release/lib\libMainApp.a(temp.o)
                0x6033573c                get_unit_audio_file_name
 .text.get_unit_audio_index
                0x60335748        0x2 .//build/MainApp/release/lib\libMainApp.a(temp.o)
                0x60335748                get_unit_audio_index
 *fill*         0x6033574a        0x2 
 .text.get_digit_audio_file_name
                0x6033574c       0x34 .//build/MainApp/release/lib\libMainApp.a(temp.o)
                0x6033574c                get_digit_audio_file_name
 .text.get_digit_audio_index
                0x60335780        0x2 .//build/MainApp/release/lib\libMainApp.a(temp.o)
                0x60335780                get_digit_audio_index
 .text.prefix_splitter
                0x60335782       0x18 .//build/MainApp/release/lib\libMainApp.a(temp.o)
                0x60335782                prefix_splitter
 .text.prefix_audio_file_name
                0x6033579a       0x3c .//build/MainApp/release/lib\libMainApp.a(temp.o)
                0x6033579a                prefix_audio_file_name
 .text.prefix_digit
                0x603357d6       0x26 .//build/MainApp/release/lib\libMainApp.a(temp.o)
                0x603357d6                prefix_digit
 .text.prefix_unit
                0x603357fc       0x28 .//build/MainApp/release/lib\libMainApp.a(temp.o)
                0x603357fc                prefix_unit
 .text.prefix_and
                0x60335824       0x1c .//build/MainApp/release/lib\libMainApp.a(temp.o)
                0x60335824                prefix_and
 .text.prefix_two_digits_audio_file
                0x60335840       0x34 .//build/MainApp/release/lib\libMainApp.a(temp.o)
                0x60335840                prefix_two_digits_audio_file
 .text.prefix_two_digits_audio_index
                0x60335874       0x22 .//build/MainApp/release/lib\libMainApp.a(temp.o)
                0x60335874                prefix_two_digits_audio_index
 .text.prefix_three_digits_audio_file
                0x60335896       0x46 .//build/MainApp/release/lib\libMainApp.a(temp.o)
                0x60335896                prefix_three_digits_audio_file
 .text.prefix_three_digits_audio_index
                0x603358dc       0x58 .//build/MainApp/release/lib\libMainApp.a(temp.o)
                0x603358dc                prefix_three_digits_audio_index
 .text.num_to_audio_files_list
                0x60335934       0x3a .//build/MainApp/release/lib\libMainApp.a(temp.o)
                0x60335934                num_to_audio_files_list
 *fill*         0x6033596e        0x2 
 .text.play_audio_by_name
                0x60335970       0x3c .//build/MainApp/release/lib\libMainApp.a(temp.o)
                0x60335970                play_audio_by_name
 .text.play_audio_header
                0x603359ac       0x34 .//build/MainApp/release/lib\libMainApp.a(temp.o)
                0x603359ac                play_audio_header
 .text.play_audio_otp_header
                0x603359e0       0x1c .//build/MainApp/release/lib\libMainApp.a(temp.o)
                0x603359e0                play_audio_otp_header
 .text.play_audio_footer
                0x603359fc       0x2c .//build/MainApp/release/lib\libMainApp.a(temp.o)
                0x603359fc                play_audio_footer
 .text.play_audio_units
                0x60335a28       0x48 .//build/MainApp/release/lib\libMainApp.a(temp.o)
                0x60335a28                play_audio_units
 .text.play_audio_num
                0x60335a70       0x48 .//build/MainApp/release/lib\libMainApp.a(temp.o)
                0x60335a70                play_audio_num
 .text.num_to_audio_999_by_name
                0x60335ab8       0x66 .//build/MainApp/release/lib\libMainApp.a(temp.o)
                0x60335ab8                num_to_audio_999_by_name
 *fill*         0x60335b1e        0x2 
 .text.INTEGER_to_audio_by_name
                0x60335b20       0xd8 .//build/MainApp/release/lib\libMainApp.a(temp.o)
                0x60335b20                INTEGER_to_audio_by_name
 .text.DECIMAL_to_audio_by_name
                0x60335bf8       0x2c .//build/MainApp/release/lib\libMainApp.a(temp.o)
                0x60335bf8                DECIMAL_to_audio_by_name
 .text.play_audio_confirmation_code
                0x60335c24       0x78 .//build/MainApp/release/lib\libMainApp.a(temp.o)
                0x60335c24                play_audio_confirmation_code
 .text.play_audio_serial_number
                0x60335c9c       0x54 .//build/MainApp/release/lib\libMainApp.a(temp.o)
                0x60335c9c                play_audio_serial_number
 .text.play_audio_full_amt
                0x60335cf0       0x64 .//build/MainApp/release/lib\libMainApp.a(temp.o)
                0x60335cf0                play_audio_full_amt
 .text.play_amount_mosambee
                0x60335d54      0x140 .//build/MainApp/release/lib\libMainApp.a(temp.o)
                0x60335d54                play_amount_mosambee
 .text.get_str_from_list
                0x60335e94       0x22 .//build/MainApp/release/lib\libMainApp.a(temp.o)
                0x60335e94                get_str_from_list
 .text.revstr   0x60335eb6       0x2c .//build/MainApp/release/lib\libMainApp.a(temp.o)
                0x60335eb6                revstr
 *fill*         0x60335ee2        0x2 
 .text.generatePassword
                0x60335ee4       0x48 .//build/MainApp/release/lib\libMainApp.a(temp.o)
                0x60335ee4                generatePassword
 .text.num_to_audio_index_array
                0x60335f2c       0x84 .//build/MainApp/release/lib\libMainApp.a(temp.o)
                0x60335f2c                num_to_audio_index_array
 .text.test_audio_array_conv
                0x60335fb0       0x16 .//build/MainApp/release/lib\libMainApp.a(temp.o)
                0x60335fb0                test_audio_array_conv
 .rodata.DECIMAL_to_audio_by_name.str1.1
                0x60335fc6        0xe .//build/MainApp/release/lib\libMainApp.a(temp.o)
 .rodata.INTEGER_to_audio_by_name.str1.1
                0x60335fd4       0x17 .//build/MainApp/release/lib\libMainApp.a(temp.o)
 .rodata.format_audio_file_name.str1.1
                0x60335feb        0xd .//build/MainApp/release/lib\libMainApp.a(temp.o)
 .rodata.generatePassword.str1.1
                0x60335ff8       0x10 .//build/MainApp/release/lib\libMainApp.a(temp.o)
 .rodata.get_unit_audio_file_name.str1.1
                0x60336008        0x1 .//build/MainApp/release/lib\libMainApp.a(temp.o)
 .rodata.play_amount_mosambee.str1.1
                0x60336008        0x8 .//build/MainApp/release/lib\libMainApp.a(temp.o)
                                 0x1f (size before relaxing)
 .rodata.play_audio_by_name.constprop.8.str1.1
                0x60336010        0xa .//build/MainApp/release/lib\libMainApp.a(temp.o)
                                 0x11 (size before relaxing)
 .rodata.play_audio_confirmation_code.str1.1
                0x6033601a       0x13 .//build/MainApp/release/lib\libMainApp.a(temp.o)
 .rodata.play_audio_footer.str1.1
                0x6033602d       0x11 .//build/MainApp/release/lib\libMainApp.a(temp.o)
 .rodata.play_audio_full_amt.str1.1
                0x6033603e        0xa .//build/MainApp/release/lib\libMainApp.a(temp.o)
 .rodata.play_audio_header.str1.1
                0x60336048       0x14 .//build/MainApp/release/lib\libMainApp.a(temp.o)
 .rodata.play_audio_num.str1.1
                0x6033605c        0xe .//build/MainApp/release/lib\libMainApp.a(temp.o)
 .rodata.play_audio_otp_header.str1.1
                0x6033606a        0xc .//build/MainApp/release/lib\libMainApp.a(temp.o)
 .rodata.play_audio_serial_number.str1.1
                0x60336076        0x4 .//build/MainApp/release/lib\libMainApp.a(temp.o)
 .rodata.play_audio_units.str1.1
                0x6033607a       0x10 .//build/MainApp/release/lib\libMainApp.a(temp.o)
 .rodata.set_audio_type_int.str1.1
                0x6033608a        0xf .//build/MainApp/release/lib\libMainApp.a(temp.o)
 .text          0x60336099        0x0 .//build/MainApp/release/lib\libMainApp.a(app_audio.o)
 *fill*         0x60336099        0x1 
 .text.get_nv_audio_data_len
                0x6033609a        0x8 .//build/MainApp/release/lib\libMainApp.a(app_audio.o)
                0x6033609a                get_nv_audio_data_len
 .text.get_audio_fileId
                0x603360a2        0x2 .//build/MainApp/release/lib\libMainApp.a(app_audio.o)
                0x603360a2                get_audio_fileId
 .text.app_get_audio_type
                0x603360a4        0x4 .//build/MainApp/release/lib\libMainApp.a(app_audio.o)
                0x603360a4                app_get_audio_type
 .text.app_audio_play_file
                0x603360a8       0x22 .//build/MainApp/release/lib\libMainApp.a(app_audio.o)
                0x603360a8                app_audio_play_file
 .text.app_audio_tts_callback
                0x603360ca        0x4 .//build/MainApp/release/lib\libMainApp.a(app_audio.o)
                0x603360ca                app_audio_tts_callback
 .text.app_audio_amr_callback
                0x603360ce        0xa .//build/MainApp/release/lib\libMainApp.a(app_audio.o)
                0x603360ce                app_audio_amr_callback
 .text.app_audio_mp3_callback
                0x603360d8        0xa .//build/MainApp/release/lib\libMainApp.a(app_audio.o)
                0x603360d8                app_audio_mp3_callback
 .text.app_audio_play
                0x603360e2        0x2 .//build/MainApp/release/lib\libMainApp.a(app_audio.o)
                0x603360e2                app_audio_play
 .text.app_play_error_code
                0x603360e4        0x2 .//build/MainApp/release/lib\libMainApp.a(app_audio.o)
                0x603360e4                app_play_error_code
 *fill*         0x603360e6        0x2 
 .text.start_audio_upgrade_thread
                0x603360e8       0x24 .//build/MainApp/release/lib\libMainApp.a(app_audio.o)
                0x603360e8                start_audio_upgrade_thread
 .text.app_audio_get_file_info
                0x6033610c       0xcc .//build/MainApp/release/lib\libMainApp.a(app_audio.o)
                0x6033610c                app_audio_get_file_info
 .text.app_audio_get_file_data
                0x603361d8      0x10c .//build/MainApp/release/lib\libMainApp.a(app_audio.o)
                0x603361d8                app_audio_get_file_data
 .text.app_audio_download_from_server
                0x603362e4      0x144 .//build/MainApp/release/lib\libMainApp.a(app_audio.o)
                0x603362e4                app_audio_download_from_server
 .text.app_audio_get_list_from_server
                0x60336428       0xd8 .//build/MainApp/release/lib\libMainApp.a(app_audio.o)
                0x60336428                app_audio_get_list_from_server
 .text.app_audio_check_update
                0x60336500      0x16c .//build/MainApp/release/lib\libMainApp.a(app_audio.o)
                0x60336500                app_audio_check_update
 .rodata.app_audio_check_update.str1.1
                0x6033666c       0x45 .//build/MainApp/release/lib\libMainApp.a(app_audio.o)
                                 0x56 (size before relaxing)
 .rodata.app_audio_download_from_server.str1.1
                0x603366b1       0x17 .//build/MainApp/release/lib\libMainApp.a(app_audio.o)
 .rodata.app_audio_get_file_data.str1.1
                0x603366c8       0x5c .//build/MainApp/release/lib\libMainApp.a(app_audio.o)
                                 0x73 (size before relaxing)
 .rodata.app_audio_get_file_info.str1.1
                0x60336724       0x5c .//build/MainApp/release/lib\libMainApp.a(app_audio.o)
                                 0x82 (size before relaxing)
 .rodata.app_audio_get_list_from_server.str1.1
                0x60336780       0x39 .//build/MainApp/release/lib\libMainApp.a(app_audio.o)
                                 0x40 (size before relaxing)
 *fill*         0x603367b9        0x3 
 .rodata.g_audioErrTbl
                0x603367bc       0x68 .//build/MainApp/release/lib\libMainApp.a(app_audio.o)
                0x603367bc                g_audioErrTbl
 .rodata.g_audioMapTbl
                0x60336824        0xc .//build/MainApp/release/lib\libMainApp.a(app_audio.o)
                0x60336824                g_audioMapTbl
 .rodata.str1.1
                0x60336830      0x180 .//build/MainApp/release/lib\libMainApp.a(app_audio.o)
                                0x195 (size before relaxing)
 .text          0x603369b0        0x0 .//build/MainApp/release/lib\libMainApp.a(global.o)
 .text          0x603369b0        0x0 .//build/MainApp/release/lib\libMainApp.a(data_parser.o)
 .text.calculate_CRC_16
                0x603369b0       0x40 .//build/MainApp/release/lib\libMainApp.a(data_parser.o)
                0x603369b0                calculate_CRC_16
 .text.parseTxnDetails_new
                0x603369f0      0x148 .//build/MainApp/release/lib\libMainApp.a(data_parser.o)
                0x603369f0                parseTxnDetails_new
 .text.parseRegisterDeviceResponse
                0x60336b38      0x240 .//build/MainApp/release/lib\libMainApp.a(data_parser.o)
                0x60336b38                parseRegisterDeviceResponse
 .text.createJsonForDeviceRegistration
                0x60336d78      0x23c .//build/MainApp/release/lib\libMainApp.a(data_parser.o)
                0x60336d78                createJsonForDeviceRegistration
 .rodata.createJsonForDeviceRegistration.str1.1
                0x60336fb4       0xd3 .//build/MainApp/release/lib\libMainApp.a(data_parser.o)
                                 0xf6 (size before relaxing)
 .rodata.parseRegisterDeviceResponse.str1.1
                0x60337087       0x6f .//build/MainApp/release/lib\libMainApp.a(data_parser.o)
                                 0x80 (size before relaxing)
 .rodata.parseTxnDetails_new.str1.1
                0x603370f6       0x67 .//build/MainApp/release/lib\libMainApp.a(data_parser.o)
                                 0x80 (size before relaxing)
 .text          0x6033715d        0x0 .//build/MainApp/release/lib\libMainApp.a(app_power.o)
 *fill*         0x6033715d        0x1 
 .text._app_charger_out_notify
                0x6033715e        0xc .//build/MainApp/release/lib\libMainApp.a(app_power.o)
 *fill*         0x6033716a        0x2 
 .text._app_charger_in_notify
                0x6033716c       0x18 .//build/MainApp/release/lib\libMainApp.a(app_power.o)
 .text.qyy_led_charge_control
                0x60337184       0x18 .//build/MainApp/release/lib\libMainApp.a(app_power.o)
                0x60337184                qyy_led_charge_control
 .text.batlow_poweroff
                0x6033719c       0x24 .//build/MainApp/release/lib\libMainApp.a(app_power.o)
                0x6033719c                batlow_poweroff
 .text.batlow_warning
                0x603371c0        0xc .//build/MainApp/release/lib\libMainApp.a(app_power.o)
                0x603371c0                batlow_warning
 .text.app_poweron_check_battery
                0x603371cc       0x40 .//build/MainApp/release/lib\libMainApp.a(app_power.o)
                0x603371cc                app_poweron_check_battery
 .text.app_check_low_power
                0x6033720c       0x60 .//build/MainApp/release/lib\libMainApp.a(app_power.o)
                0x6033720c                app_check_low_power
 .text.app_power_monitor_cb
                0x6033726c       0x34 .//build/MainApp/release/lib\libMainApp.a(app_power.o)
 .text.app_start_power_monitor
                0x603372a0       0x84 .//build/MainApp/release/lib\libMainApp.a(app_power.o)
                0x603372a0                app_start_power_monitor
 .text.PowerOffRebootDevice
                0x60337324       0x7c .//build/MainApp/release/lib\libMainApp.a(app_power.o)
                0x60337324                PowerOffRebootDevice
 .rodata        0x603373a0        0xc .//build/MainApp/release/lib\libMainApp.a(app_power.o)
 .rodata.PowerOffRebootDevice.str1.1
                0x603373ac        0x5 .//build/MainApp/release/lib\libMainApp.a(app_power.o)
 .rodata._app_charger_in_notify.str1.1
                0x603373ac        0x5 .//build/MainApp/release/lib\libMainApp.a(app_power.o)
 .rodata.app_start_power_monitor.str1.1
                0x603373b1       0x3d .//build/MainApp/release/lib\libMainApp.a(app_power.o)
 .rodata.batlow_poweroff.str1.1
                0x603373ee        0x5 .//build/MainApp/release/lib\libMainApp.a(app_power.o)
 .rodata.batlow_warning.str1.1
                0x603373f3        0x5 .//build/MainApp/release/lib\libMainApp.a(app_power.o)
 .text          0x603373f8      0x2b0 .//prebuilts/win32/gcc-arm-none-eabi/lib/gcc/arm-none-eabi/7.2.1\libgcc.a(_divsi3.o)
                0x603373f8                __divsi3
                0x603373f8                __aeabi_idiv
                0x6033768c                __aeabi_idivmod
 .text          0x603376a8        0x4 .//prebuilts/win32/gcc-arm-none-eabi/lib/gcc/arm-none-eabi/7.2.1\libgcc.a(_dvmd_tls.o)
                0x603376a8                __aeabi_idiv0
                0x603376a8                __aeabi_ldiv0
 .text          0x603376ac        0x0 ./SysLib/MercuryPlat/release/libsystem.a(MercuryAudio.o)
 .text.AudioSetChannel
                0x603376ac       0x2c ./SysLib/MercuryPlat/release/libsystem.a(MercuryAudio.o)
                0x603376ac                AudioSetChannel
 .text.AudioGetChannel
                0x603376d8        0xc ./SysLib/MercuryPlat/release/libsystem.a(MercuryAudio.o)
                0x603376d8                AudioGetChannel
 .text.AudioSetVolume
                0x603376e4       0x30 ./SysLib/MercuryPlat/release/libsystem.a(MercuryAudio.o)
                0x603376e4                AudioSetVolume
 .text.AudioGetVolume
                0x60337714        0xc ./SysLib/MercuryPlat/release/libsystem.a(MercuryAudio.o)
                0x60337714                AudioGetVolume
 .text.AudioDtmfPlay
                0x60337720        0xc ./SysLib/MercuryPlat/release/libsystem.a(MercuryAudio.o)
                0x60337720                AudioDtmfPlay
 .text.AudioDtmfAbort
                0x6033772c        0xc ./SysLib/MercuryPlat/release/libsystem.a(MercuryAudio.o)
                0x6033772c                AudioDtmfAbort
 .text.AudioDtmfVolume
                0x60337738        0xc ./SysLib/MercuryPlat/release/libsystem.a(MercuryAudio.o)
                0x60337738                AudioDtmfVolume
 .text.AudioSingleTonePlay
                0x60337744        0xc ./SysLib/MercuryPlat/release/libsystem.a(MercuryAudio.o)
                0x60337744                AudioSingleTonePlay
 .text.AudioSingleToneAbort
                0x60337750        0xc ./SysLib/MercuryPlat/release/libsystem.a(MercuryAudio.o)
                0x60337750                AudioSingleToneAbort
 .text.AudioSingleToneVolume
                0x6033775c        0xc ./SysLib/MercuryPlat/release/libsystem.a(MercuryAudio.o)
                0x6033775c                AudioSingleToneVolume
 .text.AudioSetPaType
                0x60337768       0x18 ./SysLib/MercuryPlat/release/libsystem.a(MercuryAudio.o)
                0x60337768                AudioSetPaType
 .text.AudioGetPaType
                0x60337780        0xc ./SysLib/MercuryPlat/release/libsystem.a(MercuryAudio.o)
                0x60337780                AudioGetPaType
 .text.AudioSetExtPA
                0x6033778c       0x10 ./SysLib/MercuryPlat/release/libsystem.a(MercuryAudio.o)
                0x6033778c                AudioSetExtPA
 .text.AudioRecordStart
                0x6033779c       0x18 ./SysLib/MercuryPlat/release/libsystem.a(MercuryAudio.o)
                0x6033779c                AudioRecordStart
 .text.AudioRecordStop
                0x603377b4       0x10 ./SysLib/MercuryPlat/release/libsystem.a(MercuryAudio.o)
                0x603377b4                AudioRecordStop
 .text.AudioRecordPause
                0x603377c4       0x10 ./SysLib/MercuryPlat/release/libsystem.a(MercuryAudio.o)
                0x603377c4                AudioRecordPause
 .text.AudioRecordResume
                0x603377d4       0x10 ./SysLib/MercuryPlat/release/libsystem.a(MercuryAudio.o)
                0x603377d4                AudioRecordResume
 .text.AudioPoCStart
                0x603377e4       0x10 ./SysLib/MercuryPlat/release/libsystem.a(MercuryAudio.o)
                0x603377e4                AudioPoCStart
 .text.AudioPoCStop
                0x603377f4       0x10 ./SysLib/MercuryPlat/release/libsystem.a(MercuryAudio.o)
                0x603377f4                AudioPoCStop
 .text.AudioPoCHalfModeSwitch
                0x60337804       0x10 ./SysLib/MercuryPlat/release/libsystem.a(MercuryAudio.o)
                0x60337804                AudioPoCHalfModeSwitch
 .text.AudioPoCFillData
                0x60337814       0x10 ./SysLib/MercuryPlat/release/libsystem.a(MercuryAudio.o)
                0x60337814                AudioPoCFillData
 .text.AudioPoCReadData
                0x60337824       0x10 ./SysLib/MercuryPlat/release/libsystem.a(MercuryAudio.o)
                0x60337824                AudioPoCReadData
 .text.AudioSetExtPADelay
                0x60337834       0x10 ./SysLib/MercuryPlat/release/libsystem.a(MercuryAudio.o)
                0x60337834                AudioSetExtPADelay
 .text          0x60337844        0x0 ./SysLib/MercuryPlat/release/libsystem.a(MercuryBattery.o)
 .text.BatteryGetStatus
                0x60337844        0xc ./SysLib/MercuryPlat/release/libsystem.a(MercuryBattery.o)
                0x60337844                BatteryGetStatus
 .text          0x60337850        0x0 ./SysLib/MercuryPlat/release/libsystem.a(MercuryFile.o)
 .text.InitFileSystem
                0x60337850       0x30 ./SysLib/MercuryPlat/release/libsystem.a(MercuryFile.o)
                0x60337850                InitFileSystem
 .text.InitFileSystemPlus
                0x60337880       0x38 ./SysLib/MercuryPlat/release/libsystem.a(MercuryFile.o)
                0x60337880                InitFileSystemPlus
 .text.UnInitFileSystem
                0x603378b8       0x24 ./SysLib/MercuryPlat/release/libsystem.a(MercuryFile.o)
                0x603378b8                UnInitFileSystem
 .text.CreateDirectory
                0x603378dc       0x2c ./SysLib/MercuryPlat/release/libsystem.a(MercuryFile.o)
                0x603378dc                CreateDirectory
 .text.DeleteDirectory
                0x60337908       0x2c ./SysLib/MercuryPlat/release/libsystem.a(MercuryFile.o)
                0x60337908                DeleteDirectory
 .text.CreateFile
                0x60337934       0x24 ./SysLib/MercuryPlat/release/libsystem.a(MercuryFile.o)
                0x60337934                CreateFile
 .text.DeleteFile
                0x60337958       0x2c ./SysLib/MercuryPlat/release/libsystem.a(MercuryFile.o)
                0x60337958                DeleteFile
 .text.FindFirstFile
                0x60337984       0x20 ./SysLib/MercuryPlat/release/libsystem.a(MercuryFile.o)
                0x60337984                FindFirstFile
 .text.FindNextFile
                0x603379a4       0x2c ./SysLib/MercuryPlat/release/libsystem.a(MercuryFile.o)
                0x603379a4                FindNextFile
 .text.FindClose
                0x603379d0       0x2c ./SysLib/MercuryPlat/release/libsystem.a(MercuryFile.o)
                0x603379d0                FindClose
 .text.FlushFileBuffers
                0x603379fc       0x34 ./SysLib/MercuryPlat/release/libsystem.a(MercuryFile.o)
                0x603379fc                FlushFileBuffers
 .text.GetFileSize
                0x60337a30       0x20 ./SysLib/MercuryPlat/release/libsystem.a(MercuryFile.o)
                0x60337a30                GetFileSize
 .text.RenameFile
                0x60337a50       0x2c ./SysLib/MercuryPlat/release/libsystem.a(MercuryFile.o)
                0x60337a50                RenameFile
 .text.SetFileSize
                0x60337a7c       0x2c ./SysLib/MercuryPlat/release/libsystem.a(MercuryFile.o)
                0x60337a7c                SetFileSize
 .text.GetFilePointer
                0x60337aa8       0x34 ./SysLib/MercuryPlat/release/libsystem.a(MercuryFile.o)
                0x60337aa8                GetFilePointer
 .text.ReadFile
                0x60337adc       0x34 ./SysLib/MercuryPlat/release/libsystem.a(MercuryFile.o)
                0x60337adc                ReadFile
 .text.SetFilePointer
                0x60337b10       0x88 ./SysLib/MercuryPlat/release/libsystem.a(MercuryFile.o)
                0x60337b10                SetFilePointer
 .text.WriteFile
                0x60337b98       0x34 ./SysLib/MercuryPlat/release/libsystem.a(MercuryFile.o)
                0x60337b98                WriteFile
 .text.CloseHandle
                0x60337bcc       0x2c ./SysLib/MercuryPlat/release/libsystem.a(MercuryFile.o)
                0x60337bcc                CloseHandle
 .text.FomatDisk
                0x60337bf8       0x18 ./SysLib/MercuryPlat/release/libsystem.a(MercuryFile.o)
                0x60337bf8                FomatDisk
 .text.GetDeviceFreeSpace
                0x60337c10       0x2c ./SysLib/MercuryPlat/release/libsystem.a(MercuryFile.o)
                0x60337c10                GetDeviceFreeSpace
 .text.GetDeviceUsedSpace
                0x60337c3c       0x2c ./SysLib/MercuryPlat/release/libsystem.a(MercuryFile.o)
                0x60337c3c                GetDeviceUsedSpace
 .text.InitFileSystemPlusAndPoint
                0x60337c68       0x38 ./SysLib/MercuryPlat/release/libsystem.a(MercuryFile.o)
                0x60337c68                InitFileSystemPlusAndPoint
 .text.FomatDisk_Point
                0x60337ca0       0x18 ./SysLib/MercuryPlat/release/libsystem.a(MercuryFile.o)
                0x60337ca0                FomatDisk_Point
 .text.GetDeviceFreeSpace_Point
                0x60337cb8       0x2c ./SysLib/MercuryPlat/release/libsystem.a(MercuryFile.o)
                0x60337cb8                GetDeviceFreeSpace_Point
 .text.GetDeviceUsedSpace_Point
                0x60337ce4       0x2c ./SysLib/MercuryPlat/release/libsystem.a(MercuryFile.o)
                0x60337ce4                GetDeviceUsedSpace_Point
 .text.FindFirstFile_Point
                0x60337d10       0x20 ./SysLib/MercuryPlat/release/libsystem.a(MercuryFile.o)
                0x60337d10                FindFirstFile_Point
 .text.Format_AllPoint
                0x60337d30        0xc ./SysLib/MercuryPlat/release/libsystem.a(MercuryFile.o)
                0x60337d30                Format_AllPoint
 .text.FileSpi_Config
                0x60337d3c       0x14 ./SysLib/MercuryPlat/release/libsystem.a(MercuryFile.o)
                0x60337d3c                FileSpi_Config
 .text.SetFlashChipData
                0x60337d50       0x14 ./SysLib/MercuryPlat/release/libsystem.a(MercuryFile.o)
                0x60337d50                SetFlashChipData
 .text.GetFileSpi_Config
                0x60337d64       0x14 ./SysLib/MercuryPlat/release/libsystem.a(MercuryFile.o)
                0x60337d64                GetFileSpi_Config
 .text          0x60337d78        0x0 ./SysLib/MercuryPlat/release/libsystem.a(MercuryFota.o)
 .text.FOTA_Init
                0x60337d78       0x18 ./SysLib/MercuryPlat/release/libsystem.a(MercuryFota.o)
                0x60337d78                FOTA_Init
 .text.FOTA_ImgInfoSet
                0x60337d90       0x40 ./SysLib/MercuryPlat/release/libsystem.a(MercuryFota.o)
                0x60337d90                FOTA_ImgInfoSet
 .text.FOTA_WroteLenGet
                0x60337dd0       0x2c ./SysLib/MercuryPlat/release/libsystem.a(MercuryFota.o)
                0x60337dd0                FOTA_WroteLenGet
 .text.FOTA_FlashWrite
                0x60337dfc       0x44 ./SysLib/MercuryPlat/release/libsystem.a(MercuryFota.o)
                0x60337dfc                FOTA_FlashWrite
 .text.FOTA_FlashRead
                0x60337e40       0x44 ./SysLib/MercuryPlat/release/libsystem.a(MercuryFota.o)
                0x60337e40                FOTA_FlashRead
 .text.APP_FlashWrite
                0x60337e84        0xc ./SysLib/MercuryPlat/release/libsystem.a(MercuryFota.o)
                0x60337e84                APP_FlashWrite
 .text.APP_FlashErase
                0x60337e90        0xc ./SysLib/MercuryPlat/release/libsystem.a(MercuryFota.o)
                0x60337e90                APP_FlashErase
 .text.APP_FlashRead
                0x60337e9c        0xc ./SysLib/MercuryPlat/release/libsystem.a(MercuryFota.o)
                0x60337e9c                APP_FlashRead
 .text.FOTA_RawDataInfoSet
                0x60337ea8       0x14 ./SysLib/MercuryPlat/release/libsystem.a(MercuryFota.o)
                0x60337ea8                FOTA_RawDataInfoSet
 .text.FOTA_RawDataClear
                0x60337ebc        0xc ./SysLib/MercuryPlat/release/libsystem.a(MercuryFota.o)
                0x60337ebc                FOTA_RawDataClear
 .text.LOGO_FlashWrite
                0x60337ec8        0xc ./SysLib/MercuryPlat/release/libsystem.a(MercuryFota.o)
                0x60337ec8                LOGO_FlashWrite
 .text.LOGO_FlashErase
                0x60337ed4        0xc ./SysLib/MercuryPlat/release/libsystem.a(MercuryFota.o)
                0x60337ed4                LOGO_FlashErase
 .text.LOGO_FlashRead
                0x60337ee0        0xc ./SysLib/MercuryPlat/release/libsystem.a(MercuryFota.o)
                0x60337ee0                LOGO_FlashRead
 .text.APP_FlashWriteExt
                0x60337eec        0xc ./SysLib/MercuryPlat/release/libsystem.a(MercuryFota.o)
                0x60337eec                APP_FlashWriteExt
 .text.APP_FlashEraseExt
                0x60337ef8        0xc ./SysLib/MercuryPlat/release/libsystem.a(MercuryFota.o)
                0x60337ef8                APP_FlashEraseExt
 .text.APP_FlashReadExt
                0x60337f04        0xc ./SysLib/MercuryPlat/release/libsystem.a(MercuryFota.o)
                0x60337f04                APP_FlashReadExt
 .text.FotaUpgrade_Init
                0x60337f10        0xc ./SysLib/MercuryPlat/release/libsystem.a(MercuryFota.o)
                0x60337f10                FotaUpgrade_Init
 .text.FotaUpgrade_Deinit
                0x60337f1c        0xc ./SysLib/MercuryPlat/release/libsystem.a(MercuryFota.o)
                0x60337f1c                FotaUpgrade_Deinit
 .text.FotaUpgrade_Write
                0x60337f28        0xc ./SysLib/MercuryPlat/release/libsystem.a(MercuryFota.o)
                0x60337f28                FotaUpgrade_Write
 .text.FotaUpgrade_Read
                0x60337f34        0xc ./SysLib/MercuryPlat/release/libsystem.a(MercuryFota.o)
                0x60337f34                FotaUpgrade_Read
 .text.FotaUpgradeLen
                0x60337f40        0xc ./SysLib/MercuryPlat/release/libsystem.a(MercuryFota.o)
                0x60337f40                FotaUpgradeLen
 .text.FotaUpgrade_Start
                0x60337f4c        0xc ./SysLib/MercuryPlat/release/libsystem.a(MercuryFota.o)
                0x60337f4c                FotaUpgrade_Start
 .text.FotaUpgrade_GetSpace
                0x60337f58        0xc ./SysLib/MercuryPlat/release/libsystem.a(MercuryFota.o)
                0x60337f58                FotaUpgrade_GetSpace
 .text.FotaSetUpdateTip
                0x60337f64       0x24 ./SysLib/MercuryPlat/release/libsystem.a(MercuryFota.o)
                0x60337f64                FotaSetUpdateTip
 .text.QspiFlashRead
                0x60337f88       0x24 ./SysLib/MercuryPlat/release/libsystem.a(MercuryFota.o)
                0x60337f88                QspiFlashRead
 .text.QspiFlashWrite
                0x60337fac       0x24 ./SysLib/MercuryPlat/release/libsystem.a(MercuryFota.o)
                0x60337fac                QspiFlashWrite
 .text.QspiFlashErase
                0x60337fd0       0x10 ./SysLib/MercuryPlat/release/libsystem.a(MercuryFota.o)
                0x60337fd0                QspiFlashErase
 .text.QspiFlashInit
                0x60337fe0       0x10 ./SysLib/MercuryPlat/release/libsystem.a(MercuryFota.o)
                0x60337fe0                QspiFlashInit
 .text          0x60337ff0        0x0 ./SysLib/MercuryPlat/release/libsystem.a(MercuryGpio.o)
 .text.GIO_Init
                0x60337ff0       0x1c ./SysLib/MercuryPlat/release/libsystem.a(MercuryGpio.o)
                0x60337ff0                GIO_Init
 .text.GIO_Deinit
                0x6033800c       0x1c ./SysLib/MercuryPlat/release/libsystem.a(MercuryGpio.o)
                0x6033800c                GIO_Deinit
 .text.GIO_SetBit
                0x60338028       0x1c ./SysLib/MercuryPlat/release/libsystem.a(MercuryGpio.o)
                0x60338028                GIO_SetBit
 .text.GIO_ClrBit
                0x60338044       0x1c ./SysLib/MercuryPlat/release/libsystem.a(MercuryGpio.o)
                0x60338044                GIO_ClrBit
 .text.GIO_GetBit
                0x60338060       0x20 ./SysLib/MercuryPlat/release/libsystem.a(MercuryGpio.o)
                0x60338060                GIO_GetBit
 .text.GIO_SetMode
                0x60338080       0x1c ./SysLib/MercuryPlat/release/libsystem.a(MercuryGpio.o)
                0x60338080                GIO_SetMode
 .text.GIO_TestMode
                0x6033809c        0xc ./SysLib/MercuryPlat/release/libsystem.a(MercuryGpio.o)
                0x6033809c                GIO_TestMode
 .text.MercuryPinSetGpio
                0x603380a8        0xc ./SysLib/MercuryPlat/release/libsystem.a(MercuryGpio.o)
                0x603380a8                MercuryPinSetGpio
 .text.PAD_SetDriving
                0x603380b4        0xc ./SysLib/MercuryPlat/release/libsystem.a(MercuryGpio.o)
                0x603380b4                PAD_SetDriving
 .text.PAD_SetPull
                0x603380c0        0xc ./SysLib/MercuryPlat/release/libsystem.a(MercuryGpio.o)
                0x603380c0                PAD_SetPull
 .text.PAD_SetInout
                0x603380cc       0x10 ./SysLib/MercuryPlat/release/libsystem.a(MercuryGpio.o)
                0x603380cc                PAD_SetInout
 .text.MC_GIO_GetPads
                0x603380dc        0xc ./SysLib/MercuryPlat/release/libsystem.a(MercuryGpio.o)
                0x603380dc                MC_GIO_GetPads
 .text.MC_GIO_PmicIntrSwitch
                0x603380e8        0xc ./SysLib/MercuryPlat/release/libsystem.a(MercuryGpio.o)
                0x603380e8                MC_GIO_PmicIntrSwitch
 .text.GIO_SetFastIsrMode
                0x603380f4       0x10 ./SysLib/MercuryPlat/release/libsystem.a(MercuryGpio.o)
                0x603380f4                GIO_SetFastIsrMode
 .text.GIO_SetPowerDomainLevel
                0x60338104       0x28 ./SysLib/MercuryPlat/release/libsystem.a(MercuryGpio.o)
                0x60338104                GIO_SetPowerDomainLevel
 .text.GIO_SetIntrMode
                0x6033812c       0x10 ./SysLib/MercuryPlat/release/libsystem.a(MercuryGpio.o)
                0x6033812c                GIO_SetIntrMode
 .text.GIO_SetIntThreadPriority
                0x6033813c       0x10 ./SysLib/MercuryPlat/release/libsystem.a(MercuryGpio.o)
                0x6033813c                GIO_SetIntThreadPriority
 .text          0x6033814c        0x0 ./SysLib/MercuryPlat/release/libsystem.a(MercuryGraphics.o)
 .text.DisplayInit
                0x6033814c       0x20 ./SysLib/MercuryPlat/release/libsystem.a(MercuryGraphics.o)
                0x6033814c                DisplayInit
 .text.DisplayMutilInit
                0x6033816c       0x20 ./SysLib/MercuryPlat/release/libsystem.a(MercuryGraphics.o)
                0x6033816c                DisplayMutilInit
 .text.DisplayInitCustLCD
                0x6033818c       0x20 ./SysLib/MercuryPlat/release/libsystem.a(MercuryGraphics.o)
                0x6033818c                DisplayInitCustLCD
 .text.DisplayDeinit
                0x603381ac       0x18 ./SysLib/MercuryPlat/release/libsystem.a(MercuryGraphics.o)
                0x603381ac                DisplayDeinit
 .text.DisplayString
                0x603381c4       0x1c ./SysLib/MercuryPlat/release/libsystem.a(MercuryGraphics.o)
                0x603381c4                DisplayString
 .text.DisplayHorizLine
                0x603381e0       0x28 ./SysLib/MercuryPlat/release/libsystem.a(MercuryGraphics.o)
                0x603381e0                DisplayHorizLine
 .text.DisplayVertiLine
                0x60338208       0x2c ./SysLib/MercuryPlat/release/libsystem.a(MercuryGraphics.o)
                0x60338208                DisplayVertiLine
 .text.DisplayGetMode
                0x60338234       0x1c ./SysLib/MercuryPlat/release/libsystem.a(MercuryGraphics.o)
                0x60338234                DisplayGetMode
 .text.DisplayBitMap
                0x60338250       0x1c ./SysLib/MercuryPlat/release/libsystem.a(MercuryGraphics.o)
                0x60338250                DisplayBitMap
 .text.DisplayBitMapGet
                0x6033826c       0x1c ./SysLib/MercuryPlat/release/libsystem.a(MercuryGraphics.o)
                0x6033826c                DisplayBitMapGet
 .text.DisplaySetColor
                0x60338288       0x1c ./SysLib/MercuryPlat/release/libsystem.a(MercuryGraphics.o)
                0x60338288                DisplaySetColor
 .text.DisplayClearScreen
                0x603382a4       0x1c ./SysLib/MercuryPlat/release/libsystem.a(MercuryGraphics.o)
                0x603382a4                DisplayClearScreen
 .text.DisplayGetDirection
                0x603382c0       0x1c ./SysLib/MercuryPlat/release/libsystem.a(MercuryGraphics.o)
                0x603382c0                DisplayGetDirection
 .text.DisplaySetDirection
                0x603382dc       0x1c ./SysLib/MercuryPlat/release/libsystem.a(MercuryGraphics.o)
                0x603382dc                DisplaySetDirection
 .text.DisplaySetBrightness
                0x603382f8       0x1c ./SysLib/MercuryPlat/release/libsystem.a(MercuryGraphics.o)
                0x603382f8                DisplaySetBrightness
 .text.DisplaySetScreenOffTimeout
                0x60338314       0x1c ./SysLib/MercuryPlat/release/libsystem.a(MercuryGraphics.o)
                0x60338314                DisplaySetScreenOffTimeout
 .text.DisplayScreenOn
                0x60338330       0x1c ./SysLib/MercuryPlat/release/libsystem.a(MercuryGraphics.o)
                0x60338330                DisplayScreenOn
 .text.DisplayTransparentString
                0x6033834c       0x1c ./SysLib/MercuryPlat/release/libsystem.a(MercuryGraphics.o)
                0x6033834c                DisplayTransparentString
 .text.DisplayRLE_BMP
                0x60338368       0x1c ./SysLib/MercuryPlat/release/libsystem.a(MercuryGraphics.o)
                0x60338368                DisplayRLE_BMP
 .text.DisplayPaintEnd
                0x60338384       0x1c ./SysLib/MercuryPlat/release/libsystem.a(MercuryGraphics.o)
                0x60338384                DisplayPaintEnd
 .text.DisplayLineRGB565
                0x603383a0       0x28 ./SysLib/MercuryPlat/release/libsystem.a(MercuryGraphics.o)
                0x603383a0                DisplayLineRGB565
 .text.LCD_SetColorRGB565
                0x603383c8       0x1c ./SysLib/MercuryPlat/release/libsystem.a(MercuryGraphics.o)
                0x603383c8                LCD_SetColorRGB565
 .text.DisplayPointRGB565
                0x603383e4       0x1c ./SysLib/MercuryPlat/release/libsystem.a(MercuryGraphics.o)
                0x603383e4                DisplayPointRGB565
 .text.DisplayGetRGB565
                0x60338400        0xc ./SysLib/MercuryPlat/release/libsystem.a(MercuryGraphics.o)
                0x60338400                DisplayGetRGB565
 .text.DisplaySetClock
                0x6033840c       0x28 ./SysLib/MercuryPlat/release/libsystem.a(MercuryGraphics.o)
                0x6033840c                DisplaySetClock
 .text.DisplaySendCommand
                0x60338434        0xc ./SysLib/MercuryPlat/release/libsystem.a(MercuryGraphics.o)
                0x60338434                DisplaySendCommand
 .text.DisplaySendData
                0x60338440        0xc ./SysLib/MercuryPlat/release/libsystem.a(MercuryGraphics.o)
                0x60338440                DisplaySendData
 .text.DisplayReadId
                0x6033844c       0x14 ./SysLib/MercuryPlat/release/libsystem.a(MercuryGraphics.o)
                0x6033844c                DisplayReadId
 .text.DisplaySetIOVDD
                0x60338460       0x18 ./SysLib/MercuryPlat/release/libsystem.a(MercuryGraphics.o)
                0x60338460                DisplaySetIOVDD
 .text.DisplayResetLcdPin
                0x60338478       0x10 ./SysLib/MercuryPlat/release/libsystem.a(MercuryGraphics.o)
                0x60338478                DisplayResetLcdPin
 .text.DisplayEnterSleep
                0x60338488       0x10 ./SysLib/MercuryPlat/release/libsystem.a(MercuryGraphics.o)
                0x60338488                DisplayEnterSleep
 .text.DisplayCloseBLToSleep
                0x60338498       0x10 ./SysLib/MercuryPlat/release/libsystem.a(MercuryGraphics.o)
                0x60338498                DisplayCloseBLToSleep
 .text.DisplayEnableLowPowerShow
                0x603384a8       0x10 ./SysLib/MercuryPlat/release/libsystem.a(MercuryGraphics.o)
                0x603384a8                DisplayEnableLowPowerShow
 .rodata.s_lcdClk
                0x603384b8       0x14 ./SysLib/MercuryPlat/release/libsystem.a(MercuryGraphics.o)
 .text          0x603384cc        0x0 ./SysLib/MercuryPlat/release/libsystem.a(MercuryKeypad.o)
 .text.KP_Init  0x603384cc        0xc ./SysLib/MercuryPlat/release/libsystem.a(MercuryKeypad.o)
                0x603384cc                KP_Init
 .text.KP_Deinit
                0x603384d8        0xc ./SysLib/MercuryPlat/release/libsystem.a(MercuryKeypad.o)
                0x603384d8                KP_Deinit
 .text.KP_RegisterApp
                0x603384e4       0x24 ./SysLib/MercuryPlat/release/libsystem.a(MercuryKeypad.o)
                0x603384e4                KP_RegisterApp
 .text.KP_DeregisterApp
                0x60338508       0x24 ./SysLib/MercuryPlat/release/libsystem.a(MercuryKeypad.o)
                0x60338508                KP_DeregisterApp
 .text.KP_SetFocus
                0x6033852c       0x24 ./SysLib/MercuryPlat/release/libsystem.a(MercuryKeypad.o)
                0x6033852c                KP_SetFocus
 .text.KP_SetKeyPressSound
                0x60338550        0xc ./SysLib/MercuryPlat/release/libsystem.a(MercuryKeypad.o)
                0x60338550                KP_SetKeyPressSound
 .text.KP_SetBlackLight
                0x6033855c       0x24 ./SysLib/MercuryPlat/release/libsystem.a(MercuryKeypad.o)
                0x6033855c                KP_SetBlackLight
 .text.KP_SetPowerKeyAction
                0x60338580       0x10 ./SysLib/MercuryPlat/release/libsystem.a(MercuryKeypad.o)
                0x60338580                KP_SetPowerKeyAction
 .text.KP_PowKeyState
                0x60338590       0x10 ./SysLib/MercuryPlat/release/libsystem.a(MercuryKeypad.o)
                0x60338590                KP_PowKeyState
 .text.KP_PowKeyLongPressTimeSet
                0x603385a0       0x10 ./SysLib/MercuryPlat/release/libsystem.a(MercuryKeypad.o)
                0x603385a0                KP_PowKeyLongPressTimeSet
 .text          0x603385b0        0x0 ./SysLib/MercuryPlat/release/libsystem.a(MercuryMem.o)
 .text.LocalAlloc
                0x603385b0       0x28 ./SysLib/MercuryPlat/release/libsystem.a(MercuryMem.o)
                0x603385b0                LocalAlloc
 .text.LocalReAlloc
                0x603385d8       0x28 ./SysLib/MercuryPlat/release/libsystem.a(MercuryMem.o)
                0x603385d8                LocalReAlloc
 .text.LocalFree
                0x60338600       0x20 ./SysLib/MercuryPlat/release/libsystem.a(MercuryMem.o)
                0x60338600                LocalFree
 .text.SecureZeroMemory
                0x60338620       0x20 ./SysLib/MercuryPlat/release/libsystem.a(MercuryMem.o)
                0x60338620                SecureZeroMemory
 .text.GetAppHeapUsageStatus
                0x60338640       0x24 ./SysLib/MercuryPlat/release/libsystem.a(MercuryMem.o)
                0x60338640                GetAppHeapUsageStatus
 .text          0x60338664        0x0 ./SysLib/MercuryPlat/release/libsystem.a(MercuryNLed.o)
 .text.NLedInit
                0x60338664       0x24 ./SysLib/MercuryPlat/release/libsystem.a(MercuryNLed.o)
                0x60338664                NLedInit
 .text.NLedDeinit
                0x60338688       0x24 ./SysLib/MercuryPlat/release/libsystem.a(MercuryNLed.o)
                0x60338688                NLedDeinit
 .text.NLedSetMode
                0x603386ac       0x40 ./SysLib/MercuryPlat/release/libsystem.a(MercuryNLed.o)
                0x603386ac                NLedSetMode
 .text.NledConfigLedGpioId
                0x603386ec       0x20 ./SysLib/MercuryPlat/release/libsystem.a(MercuryNLed.o)
                0x603386ec                NledConfigLedGpioId
 .text.SetLedIndicationlevel
                0x6033870c       0x14 ./SysLib/MercuryPlat/release/libsystem.a(MercuryNLed.o)
                0x6033870c                SetLedIndicationlevel
 .text.SetLedIndication
                0x60338720        0xc ./SysLib/MercuryPlat/release/libsystem.a(MercuryNLed.o)
                0x60338720                SetLedIndication
 .text.SetFlashIBlevel
                0x6033872c        0xc ./SysLib/MercuryPlat/release/libsystem.a(MercuryNLed.o)
                0x6033872c                SetFlashIBlevel
 .text.NLedSetCurrentLedlevel
                0x60338738       0x10 ./SysLib/MercuryPlat/release/libsystem.a(MercuryNLed.o)
                0x60338738                NLedSetCurrentLedlevel
 .text.NledSetCurrentLed
                0x60338748       0x10 ./SysLib/MercuryPlat/release/libsystem.a(MercuryNLed.o)
                0x60338748                NledSetCurrentLed
 .text          0x60338758        0x0 ./SysLib/MercuryPlat/release/libsystem.a(MercuryNet.o)
 .text.NetworkGetSignalQuality
                0x60338758       0x24 ./SysLib/MercuryPlat/release/libsystem.a(MercuryNet.o)
                0x60338758                NetworkGetSignalQuality
 .text.NetworkGetState
                0x6033877c       0x24 ./SysLib/MercuryPlat/release/libsystem.a(MercuryNet.o)
                0x6033877c                NetworkGetState
 .text.NetworkSetAPN
                0x603387a0       0x2c ./SysLib/MercuryPlat/release/libsystem.a(MercuryNet.o)
                0x603387a0                NetworkSetAPN
 .text.NetworkOpenPDP
                0x603387cc       0x2c ./SysLib/MercuryPlat/release/libsystem.a(MercuryNet.o)
                0x603387cc                NetworkOpenPDP
 .text.NetworkClosePDP
                0x603387f8       0x2c ./SysLib/MercuryPlat/release/libsystem.a(MercuryNet.o)
                0x603387f8                NetworkClosePDP
 .text.Network_GetPDPStatus
                0x60338824        0xc ./SysLib/MercuryPlat/release/libsystem.a(MercuryNet.o)
                0x60338824                Network_GetPDPStatus
 .text.Network_ReadPDPStatus
                0x60338830        0xc ./SysLib/MercuryPlat/release/libsystem.a(MercuryNet.o)
                0x60338830                Network_ReadPDPStatus
 .text.SoOptPreSetFlagGet
                0x6033883c        0x4 ./SysLib/MercuryPlat/release/libsystem.a(MercuryNet.o)
                0x6033883c                SoOptPreSetFlagGet
 .text.SoOptPreSetFlagSet
                0x60338840        0x2 ./SysLib/MercuryPlat/release/libsystem.a(MercuryNet.o)
                0x60338840                SoOptPreSetFlagSet
 *fill*         0x60338842        0x2 
 .text.SocketCreate
                0x60338844        0xc ./SysLib/MercuryPlat/release/libsystem.a(MercuryNet.o)
                0x60338844                SocketCreate
 .text.SocketConnect
                0x60338850       0x24 ./SysLib/MercuryPlat/release/libsystem.a(MercuryNet.o)
                0x60338850                SocketConnect
 .text.SocketSend
                0x60338874       0x24 ./SysLib/MercuryPlat/release/libsystem.a(MercuryNet.o)
                0x60338874                SocketSend
 .text.SocketSendTo
                0x60338898       0x24 ./SysLib/MercuryPlat/release/libsystem.a(MercuryNet.o)
                0x60338898                SocketSendTo
 .text.SocketRecv
                0x603388bc       0x24 ./SysLib/MercuryPlat/release/libsystem.a(MercuryNet.o)
                0x603388bc                SocketRecv
 .text.SocketRecvFrom
                0x603388e0       0x28 ./SysLib/MercuryPlat/release/libsystem.a(MercuryNet.o)
                0x603388e0                SocketRecvFrom
 .text.SocketClose
                0x60338908        0xc ./SysLib/MercuryPlat/release/libsystem.a(MercuryNet.o)
                0x60338908                SocketClose
 .text.SocketShutdown
                0x60338914        0xc ./SysLib/MercuryPlat/release/libsystem.a(MercuryNet.o)
                0x60338914                SocketShutdown
 .text.SocketErrNo
                0x60338920        0xc ./SysLib/MercuryPlat/release/libsystem.a(MercuryNet.o)
                0x60338920                SocketErrNo
 .text.INetAtoN
                0x6033892c       0x24 ./SysLib/MercuryPlat/release/libsystem.a(MercuryNet.o)
                0x6033892c                INetAtoN
 .text.INetNtoA
                0x60338950        0xc ./SysLib/MercuryPlat/release/libsystem.a(MercuryNet.o)
                0x60338950                INetNtoA
 .text.NetworkGetHostByName
                0x6033895c        0xc ./SysLib/MercuryPlat/release/libsystem.a(MercuryNet.o)
                0x6033895c                NetworkGetHostByName
 .text.FlightModeSet
                0x60338968       0x10 ./SysLib/MercuryPlat/release/libsystem.a(MercuryNet.o)
                0x60338968                FlightModeSet
 .text.GprsAttach
                0x60338978        0xc ./SysLib/MercuryPlat/release/libsystem.a(MercuryNet.o)
                0x60338978                GprsAttach
 .text.GprsDetach
                0x60338984        0xc ./SysLib/MercuryPlat/release/libsystem.a(MercuryNet.o)
                0x60338984                GprsDetach
 .text.SocketGetOpt
                0x60338990       0x88 ./SysLib/MercuryPlat/release/libsystem.a(MercuryNet.o)
                0x60338990                SocketGetOpt
 .text.SocketGetState
                0x60338a18       0x20 ./SysLib/MercuryPlat/release/libsystem.a(MercuryNet.o)
                0x60338a18                SocketGetState
 .text.Network_BaseStationInfoGet
                0x60338a38       0x10 ./SysLib/MercuryPlat/release/libsystem.a(MercuryNet.o)
                0x60338a38                Network_BaseStationInfoGet
 .text.Network_BaseStationInfoGetV2
                0x60338a48       0x10 ./SysLib/MercuryPlat/release/libsystem.a(MercuryNet.o)
                0x60338a48                Network_BaseStationInfoGetV2
 .text.Network_SetDns
                0x60338a58       0x10 ./SysLib/MercuryPlat/release/libsystem.a(MercuryNet.o)
                0x60338a58                Network_SetDns
 .text.Network_NetAddrGet
                0x60338a68       0x18 ./SysLib/MercuryPlat/release/libsystem.a(MercuryNet.o)
                0x60338a68                Network_NetAddrGet
 .text.Network_ForceCampon
                0x60338a80       0x10 ./SysLib/MercuryPlat/release/libsystem.a(MercuryNet.o)
                0x60338a80                Network_ForceCampon
 .text.Network_CancelForceCampon
                0x60338a90       0x10 ./SysLib/MercuryPlat/release/libsystem.a(MercuryNet.o)
                0x60338a90                Network_CancelForceCampon
 .text.Network_SetGprsMassRetransmitParam
                0x60338aa0       0x10 ./SysLib/MercuryPlat/release/libsystem.a(MercuryNet.o)
                0x60338aa0                Network_SetGprsMassRetransmitParam
 .text.Network_GetT3302
                0x60338ab0       0x10 ./SysLib/MercuryPlat/release/libsystem.a(MercuryNet.o)
                0x60338ab0                Network_GetT3302
 .text.Network_SetT3302
                0x60338ac0       0x10 ./SysLib/MercuryPlat/release/libsystem.a(MercuryNet.o)
                0x60338ac0                Network_SetT3302
 .text.Network_SetAuthType
                0x60338ad0       0x10 ./SysLib/MercuryPlat/release/libsystem.a(MercuryNet.o)
                0x60338ad0                Network_SetAuthType
 .text.Network_SelectBand
                0x60338ae0       0x10 ./SysLib/MercuryPlat/release/libsystem.a(MercuryNet.o)
                0x60338ae0                Network_SelectBand
 .text.Network_PingRequest
                0x60338af0       0x14 ./SysLib/MercuryPlat/release/libsystem.a(MercuryNet.o)
                0x60338af0                Network_PingRequest
 .text.Network_PingCancel
                0x60338b04       0x10 ./SysLib/MercuryPlat/release/libsystem.a(MercuryNet.o)
                0x60338b04                Network_PingCancel
 .text.Network_GetTaPwr
                0x60338b14       0x10 ./SysLib/MercuryPlat/release/libsystem.a(MercuryNet.o)
                0x60338b14                Network_GetTaPwr
 .text.SocketSetOpt
                0x60338b24       0x20 ./SysLib/MercuryPlat/release/libsystem.a(MercuryNet.o)
                0x60338b24                SocketSetOpt
 .text.Network_PingV4Request
                0x60338b44       0x18 ./SysLib/MercuryPlat/release/libsystem.a(MercuryNet.o)
                0x60338b44                Network_PingV4Request
 .text.Network_PingV6Request
                0x60338b5c       0x18 ./SysLib/MercuryPlat/release/libsystem.a(MercuryNet.o)
                0x60338b5c                Network_PingV6Request
 .text.NetworkSetPdpType
                0x60338b74        0xc ./SysLib/MercuryPlat/release/libsystem.a(MercuryNet.o)
                0x60338b74                NetworkSetPdpType
 .text.SocketCreateV6
                0x60338b80       0x10 ./SysLib/MercuryPlat/release/libsystem.a(MercuryNet.o)
                0x60338b80                SocketCreateV6
 .text.SocketConnectV6
                0x60338b90       0x10 ./SysLib/MercuryPlat/release/libsystem.a(MercuryNet.o)
                0x60338b90                SocketConnectV6
 .text.SocketSendToV6
                0x60338ba0       0x18 ./SysLib/MercuryPlat/release/libsystem.a(MercuryNet.o)
                0x60338ba0                SocketSendToV6
 .text.SocketRecvFromV6
                0x60338bb8       0x18 ./SysLib/MercuryPlat/release/libsystem.a(MercuryNet.o)
                0x60338bb8                SocketRecvFromV6
 .text.ETH_SocketCreate
                0x60338bd0        0x4 ./SysLib/MercuryPlat/release/libsystem.a(MercuryNet.o)
                0x60338bd0                ETH_SocketCreate
 .text.ETH_RegInterface
                0x60338bd4        0x4 ./SysLib/MercuryPlat/release/libsystem.a(MercuryNet.o)
                0x60338bd4                ETH_RegInterface
 .text.ETH_DeRegInterface
                0x60338bd8        0x2 ./SysLib/MercuryPlat/release/libsystem.a(MercuryNet.o)
                0x60338bd8                ETH_DeRegInterface
 .text.ETH_DhcpRequest
                0x60338bda        0x4 ./SysLib/MercuryPlat/release/libsystem.a(MercuryNet.o)
                0x60338bda                ETH_DhcpRequest
 .text.ETH_DhcpCancel
                0x60338bde        0x2 ./SysLib/MercuryPlat/release/libsystem.a(MercuryNet.o)
                0x60338bde                ETH_DhcpCancel
 .text.ETH_SetIpAddress
                0x60338be0        0x4 ./SysLib/MercuryPlat/release/libsystem.a(MercuryNet.o)
                0x60338be0                ETH_SetIpAddress
 .text.ETH_GetIpAddress
                0x60338be4        0x4 ./SysLib/MercuryPlat/release/libsystem.a(MercuryNet.o)
                0x60338be4                ETH_GetIpAddress
 .text.Network_SetDnsV6
                0x60338be8       0x10 ./SysLib/MercuryPlat/release/libsystem.a(MercuryNet.o)
                0x60338be8                Network_SetDnsV6
 .text.Network_GetIpv6Address
                0x60338bf8       0x18 ./SysLib/MercuryPlat/release/libsystem.a(MercuryNet.o)
                0x60338bf8                Network_GetIpv6Address
 .text.ETH_PingV4Request
                0x60338c10        0x4 ./SysLib/MercuryPlat/release/libsystem.a(MercuryNet.o)
                0x60338c10                ETH_PingV4Request
 .text.ETH_PingV6Request
                0x60338c14        0x4 ./SysLib/MercuryPlat/release/libsystem.a(MercuryNet.o)
                0x60338c14                ETH_PingV6Request
 .text.SocketBind
                0x60338c18        0xc ./SysLib/MercuryPlat/release/libsystem.a(MercuryNet.o)
                0x60338c18                SocketBind
 .text.SocketListen
                0x60338c24        0xc ./SysLib/MercuryPlat/release/libsystem.a(MercuryNet.o)
                0x60338c24                SocketListen
 .text.SocketAccept
                0x60338c30        0xc ./SysLib/MercuryPlat/release/libsystem.a(MercuryNet.o)
                0x60338c30                SocketAccept
 .text.SocketSelect
                0x60338c3c       0x14 ./SysLib/MercuryPlat/release/libsystem.a(MercuryNet.o)
                0x60338c3c                SocketSelect
 .text.FdClr    0x60338c50        0xc ./SysLib/MercuryPlat/release/libsystem.a(MercuryNet.o)
                0x60338c50                FdClr
 .text.FdSet    0x60338c5c        0xc ./SysLib/MercuryPlat/release/libsystem.a(MercuryNet.o)
                0x60338c5c                FdSet
 .text.FdIsSet  0x60338c68        0xc ./SysLib/MercuryPlat/release/libsystem.a(MercuryNet.o)
                0x60338c68                FdIsSet
 .text.FdZero   0x60338c74        0xc ./SysLib/MercuryPlat/release/libsystem.a(MercuryNet.o)
                0x60338c74                FdZero
 .text.PS_StatusSet
                0x60338c80       0x10 ./SysLib/MercuryPlat/release/libsystem.a(MercuryNet.o)
                0x60338c80                PS_StatusSet
 .text.PosModeSet
                0x60338c90       0x10 ./SysLib/MercuryPlat/release/libsystem.a(MercuryNet.o)
                0x60338c90                PosModeSet
 .text.PosModeGet
                0x60338ca0       0x10 ./SysLib/MercuryPlat/release/libsystem.a(MercuryNet.o)
                0x60338ca0                PosModeGet
 .text.NetworkSetAndOpenPDP
                0x60338cb0        0x4 ./SysLib/MercuryPlat/release/libsystem.a(MercuryNet.o)
                0x60338cb0                NetworkSetAndOpenPDP
 .text.NetworkResetAndClosePDP
                0x60338cb4        0x4 ./SysLib/MercuryPlat/release/libsystem.a(MercuryNet.o)
                0x60338cb4                NetworkResetAndClosePDP
 .text.ReadQosProfile_R98
                0x60338cb8       0x10 ./SysLib/MercuryPlat/release/libsystem.a(MercuryNet.o)
                0x60338cb8                ReadQosProfile_R98
 .text.SetQosProfile_R98
                0x60338cc8       0x10 ./SysLib/MercuryPlat/release/libsystem.a(MercuryNet.o)
                0x60338cc8                SetQosProfile_R98
 .text.ReadTotalQosProfile
                0x60338cd8        0x4 ./SysLib/MercuryPlat/release/libsystem.a(MercuryNet.o)
                0x60338cd8                ReadTotalQosProfile
 .text.SetTotalQosProfile
                0x60338cdc        0x4 ./SysLib/MercuryPlat/release/libsystem.a(MercuryNet.o)
                0x60338cdc                SetTotalQosProfile
 .text.ReadQosProfile_Eps
                0x60338ce0       0x10 ./SysLib/MercuryPlat/release/libsystem.a(MercuryNet.o)
                0x60338ce0                ReadQosProfile_Eps
 .text.SetQosProfile_Eps
                0x60338cf0       0x10 ./SysLib/MercuryPlat/release/libsystem.a(MercuryNet.o)
                0x60338cf0                SetQosProfile_Eps
 .text.NetworkSetMode
                0x60338d00       0x10 ./SysLib/MercuryPlat/release/libsystem.a(MercuryNet.o)
                0x60338d00                NetworkSetMode
 .text.NetworkGetMode
                0x60338d10       0x10 ./SysLib/MercuryPlat/release/libsystem.a(MercuryNet.o)
                0x60338d10                NetworkGetMode
 .text.NetworkVolteIsSupport
                0x60338d20       0x10 ./SysLib/MercuryPlat/release/libsystem.a(MercuryNet.o)
                0x60338d20                NetworkVolteIsSupport
 .text.NetworkVolteSet
                0x60338d30       0x10 ./SysLib/MercuryPlat/release/libsystem.a(MercuryNet.o)
                0x60338d30                NetworkVolteSet
 .text.NetworkVolteGet
                0x60338d40       0x10 ./SysLib/MercuryPlat/release/libsystem.a(MercuryNet.o)
                0x60338d40                NetworkVolteGet
 .text.NetworkSetLteBandLock
                0x60338d50       0x10 ./SysLib/MercuryPlat/release/libsystem.a(MercuryNet.o)
                0x60338d50                NetworkSetLteBandLock
 .text.NetworkGetLteBandLock
                0x60338d60       0x10 ./SysLib/MercuryPlat/release/libsystem.a(MercuryNet.o)
                0x60338d60                NetworkGetLteBandLock
 .text.NetworkSetLteFreqLock
                0x60338d70       0x10 ./SysLib/MercuryPlat/release/libsystem.a(MercuryNet.o)
                0x60338d70                NetworkSetLteFreqLock
 .text.NetworkGetLteFreqLock
                0x60338d80       0x10 ./SysLib/MercuryPlat/release/libsystem.a(MercuryNet.o)
                0x60338d80                NetworkGetLteFreqLock
 .text.NetworkSetRRCRel
                0x60338d90       0x18 ./SysLib/MercuryPlat/release/libsystem.a(MercuryNet.o)
                0x60338d90                NetworkSetRRCRel
 .text.NetworkGetRRCRel
                0x60338da8       0x10 ./SysLib/MercuryPlat/release/libsystem.a(MercuryNet.o)
                0x60338da8                NetworkGetRRCRel
 .text.setsockopt
                0x60338db8       0x28 ./SysLib/MercuryPlat/release/libsystem.a(MercuryNet.o)
                0x60338db8                setsockopt
 .text.getsockopt
                0x60338de0       0x28 ./SysLib/MercuryPlat/release/libsystem.a(MercuryNet.o)
                0x60338de0                getsockopt
 .text.NetworkGetAPN
                0x60338e08       0x18 ./SysLib/MercuryPlat/release/libsystem.a(MercuryNet.o)
                0x60338e08                NetworkGetAPN
 .text.NetworkScanFreq
                0x60338e20       0x10 ./SysLib/MercuryPlat/release/libsystem.a(MercuryNet.o)
                0x60338e20                NetworkScanFreq
 .text.NetworkSetAutoAttachFlag
                0x60338e30       0x18 ./SysLib/MercuryPlat/release/libsystem.a(MercuryNet.o)
                0x60338e30                NetworkSetAutoAttachFlag
 .text.NetworkGetAutoAttachFlag
                0x60338e48       0x10 ./SysLib/MercuryPlat/release/libsystem.a(MercuryNet.o)
                0x60338e48                NetworkGetAutoAttachFlag
 .text.NetworkSetSimId
                0x60338e58       0x10 ./SysLib/MercuryPlat/release/libsystem.a(MercuryNet.o)
                0x60338e58                NetworkSetSimId
 .text.NetworkGetSimId
                0x60338e68       0x10 ./SysLib/MercuryPlat/release/libsystem.a(MercuryNet.o)
                0x60338e68                NetworkGetSimId
 .text.NetworkSetDefaultSim
                0x60338e78       0x10 ./SysLib/MercuryPlat/release/libsystem.a(MercuryNet.o)
                0x60338e78                NetworkSetDefaultSim
 .text.NetworkGetDefaultSim
                0x60338e88       0x10 ./SysLib/MercuryPlat/release/libsystem.a(MercuryNet.o)
                0x60338e88                NetworkGetDefaultSim
 .text.NetworkSetDefaultDataSim
                0x60338e98       0x10 ./SysLib/MercuryPlat/release/libsystem.a(MercuryNet.o)
                0x60338e98                NetworkSetDefaultDataSim
 .text.NetworkGetDefaultDataSim
                0x60338ea8       0x10 ./SysLib/MercuryPlat/release/libsystem.a(MercuryNet.o)
                0x60338ea8                NetworkGetDefaultDataSim
 .text.NetworkGetOperatorName
                0x60338eb8       0x10 ./SysLib/MercuryPlat/release/libsystem.a(MercuryNet.o)
                0x60338eb8                NetworkGetOperatorName
 .text.NetworkSetServiceMode
                0x60338ec8       0x10 ./SysLib/MercuryPlat/release/libsystem.a(MercuryNet.o)
                0x60338ec8                NetworkSetServiceMode
 .text.NetworkGetServiceMode
                0x60338ed8       0x10 ./SysLib/MercuryPlat/release/libsystem.a(MercuryNet.o)
                0x60338ed8                NetworkGetServiceMode
 .text.NetworkGetState_Ex
                0x60338ee8       0x10 ./SysLib/MercuryPlat/release/libsystem.a(MercuryNet.o)
                0x60338ee8                NetworkGetState_Ex
 .text.FlightModeSet_Ex
                0x60338ef8       0x10 ./SysLib/MercuryPlat/release/libsystem.a(MercuryNet.o)
                0x60338ef8                FlightModeSet_Ex
 .text.FlightModeGet_Ex
                0x60338f08       0x10 ./SysLib/MercuryPlat/release/libsystem.a(MercuryNet.o)
                0x60338f08                FlightModeGet_Ex
 .text.NetworkSetRRCRel_Ex
                0x60338f18       0x10 ./SysLib/MercuryPlat/release/libsystem.a(MercuryNet.o)
                0x60338f18                NetworkSetRRCRel_Ex
 .text.NetworkGetRRCRel_Ex
                0x60338f28       0x10 ./SysLib/MercuryPlat/release/libsystem.a(MercuryNet.o)
                0x60338f28                NetworkGetRRCRel_Ex
 .text.NetworkPdpNetIdSet
                0x60338f38       0x10 ./SysLib/MercuryPlat/release/libsystem.a(MercuryNet.o)
                0x60338f38                NetworkPdpNetIdSet
 .text.INetPtoN
                0x60338f48       0x10 ./SysLib/MercuryPlat/release/libsystem.a(MercuryNet.o)
                0x60338f48                INetPtoN
 .text.INetNtoP
                0x60338f58       0x18 ./SysLib/MercuryPlat/release/libsystem.a(MercuryNet.o)
                0x60338f58                INetNtoP
 .text          0x60338f70        0x0 ./SysLib/MercuryPlat/release/libsystem.a(MercuryNv.o)
 .text.NV_Init  0x60338f70       0x14 ./SysLib/MercuryPlat/release/libsystem.a(MercuryNv.o)
                0x60338f70                NV_Init
 .text.NV_Deinit
                0x60338f84       0x14 ./SysLib/MercuryPlat/release/libsystem.a(MercuryNv.o)
                0x60338f84                NV_Deinit
 .text.NV_Read  0x60338f98       0x30 ./SysLib/MercuryPlat/release/libsystem.a(MercuryNv.o)
                0x60338f98                NV_Read
 .text.NV_Write
                0x60338fc8       0x30 ./SysLib/MercuryPlat/release/libsystem.a(MercuryNv.o)
                0x60338fc8                NV_Write
 .text.NV_Delete
                0x60338ff8       0x30 ./SysLib/MercuryPlat/release/libsystem.a(MercuryNv.o)
                0x60338ff8                NV_Delete
 .text.NV_AppInfoRead
                0x60339028       0x30 ./SysLib/MercuryPlat/release/libsystem.a(MercuryNv.o)
                0x60339028                NV_AppInfoRead
 .text.NV_AppInfoWrite
                0x60339058       0x30 ./SysLib/MercuryPlat/release/libsystem.a(MercuryNv.o)
                0x60339058                NV_AppInfoWrite
 .text.NV_GetItemidDataLen
                0x60339088       0x28 ./SysLib/MercuryPlat/release/libsystem.a(MercuryNv.o)
                0x60339088                NV_GetItemidDataLen
 .text.NV_Config
                0x603390b0        0xc ./SysLib/MercuryPlat/release/libsystem.a(MercuryNv.o)
                0x603390b0                NV_Config
 .text.NV_Format
                0x603390bc       0x10 ./SysLib/MercuryPlat/release/libsystem.a(MercuryNv.o)
                0x603390bc                NV_Format
 .text.SYSNV_Set
                0x603390cc       0x10 ./SysLib/MercuryPlat/release/libsystem.a(MercuryNv.o)
                0x603390cc                SYSNV_Set
 .text.SYSNV_Get
                0x603390dc       0x10 ./SysLib/MercuryPlat/release/libsystem.a(MercuryNv.o)
                0x603390dc                SYSNV_Get
 .text.SYSNV_Clear
                0x603390ec       0x10 ./SysLib/MercuryPlat/release/libsystem.a(MercuryNv.o)
                0x603390ec                SYSNV_Clear
 .text          0x603390fc        0x0 ./SysLib/MercuryPlat/release/libsystem.a(MercuryPlat.o)
 .text.RegNotifyCallback
                0x603390fc       0x1c ./SysLib/MercuryPlat/release/libsystem.a(MercuryPlat.o)
                0x603390fc                RegNotifyCallback
 .text.GetImei  0x60339118        0xc ./SysLib/MercuryPlat/release/libsystem.a(MercuryPlat.o)
                0x60339118                GetImei
 .text.GetSimInfo
                0x60339124        0xc ./SysLib/MercuryPlat/release/libsystem.a(MercuryPlat.o)
                0x60339124                GetSimInfo
 .text.GetMercuryVersion
                0x60339130        0xc ./SysLib/MercuryPlat/release/libsystem.a(MercuryPlat.o)
                0x60339130                GetMercuryVersion
 .text.GetMercuryCPVersion
                0x6033913c       0x10 ./SysLib/MercuryPlat/release/libsystem.a(MercuryPlat.o)
                0x6033913c                GetMercuryCPVersion
 .text.GetSdkVersion
                0x6033914c        0x8 ./SysLib/MercuryPlat/release/libsystem.a(MercuryPlat.o)
                0x6033914c                GetSdkVersion
 .text.MercuryGetPsRwMem
                0x60339154        0xc ./SysLib/MercuryPlat/release/libsystem.a(MercuryPlat.o)
                0x60339154                MercuryGetPsRwMem
 .text.MercuryDebug
                0x60339160        0xc ./SysLib/MercuryPlat/release/libsystem.a(MercuryPlat.o)
                0x60339160                MercuryDebug
 .text.SetLastError
                0x6033916c        0xc ./SysLib/MercuryPlat/release/libsystem.a(MercuryPlat.o)
                0x6033916c                SetLastError
 .text.GetLastError
                0x60339178        0xc ./SysLib/MercuryPlat/release/libsystem.a(MercuryPlat.o)
                0x60339178                GetLastError
 .text.MercuryFactoryTestResult
                0x60339184        0xc ./SysLib/MercuryPlat/release/libsystem.a(MercuryPlat.o)
                0x60339184                MercuryFactoryTestResult
 .text.MercuryReadID
                0x60339190        0xc ./SysLib/MercuryPlat/release/libsystem.a(MercuryPlat.o)
                0x60339190                MercuryReadID
 .text.MercuryEIDGet
                0x6033919c       0x10 ./SysLib/MercuryPlat/release/libsystem.a(MercuryPlat.o)
                0x6033919c                MercuryEIDGet
 .text.MercuryUsbVbusMoniter
                0x603391ac        0xc ./SysLib/MercuryPlat/release/libsystem.a(MercuryPlat.o)
                0x603391ac                MercuryUsbVbusMoniter
 .text.MercurySetTrace
                0x603391b8        0xc ./SysLib/MercuryPlat/release/libsystem.a(MercuryPlat.o)
                0x603391b8                MercurySetTrace
 .text.MercuryGetApTraceState
                0x603391c4        0xc ./SysLib/MercuryPlat/release/libsystem.a(MercuryPlat.o)
                0x603391c4                MercuryGetApTraceState
 .text.EnableWatchDog
                0x603391d0        0xc ./SysLib/MercuryPlat/release/libsystem.a(MercuryPlat.o)
                0x603391d0                EnableWatchDog
 .text.GetWatchDogPriority
                0x603391dc        0xc ./SysLib/MercuryPlat/release/libsystem.a(MercuryPlat.o)
                0x603391dc                GetWatchDogPriority
 .text.SetWatchDogPriority
                0x603391e8       0x18 ./SysLib/MercuryPlat/release/libsystem.a(MercuryPlat.o)
                0x603391e8                SetWatchDogPriority
 .text.CharsetConvert
                0x60339200       0x24 ./SysLib/MercuryPlat/release/libsystem.a(MercuryPlat.o)
                0x60339200                CharsetConvert
 .text.MercuryWriteImei
                0x60339224       0x18 ./SysLib/MercuryPlat/release/libsystem.a(MercuryPlat.o)
                0x60339224                MercuryWriteImei
 .text.MercuryWriteFlashAppFlag
                0x6033923c       0x10 ./SysLib/MercuryPlat/release/libsystem.a(MercuryPlat.o)
                0x6033923c                MercuryWriteFlashAppFlag
 .text.MercuryReadFlashAppFlag
                0x6033924c       0x10 ./SysLib/MercuryPlat/release/libsystem.a(MercuryPlat.o)
                0x6033924c                MercuryReadFlashAppFlag
 .text.MercuryWriteDualImei
                0x6033925c       0x10 ./SysLib/MercuryPlat/release/libsystem.a(MercuryPlat.o)
                0x6033925c                MercuryWriteDualImei
 .text.GetImei_Ex
                0x6033926c       0x10 ./SysLib/MercuryPlat/release/libsystem.a(MercuryPlat.o)
                0x6033926c                GetImei_Ex
 .text.GetSimInfo_Ex
                0x6033927c       0x18 ./SysLib/MercuryPlat/release/libsystem.a(MercuryPlat.o)
                0x6033927c                GetSimInfo_Ex
 .text.MercuryEIDGet_Ex
                0x60339294       0x10 ./SysLib/MercuryPlat/release/libsystem.a(MercuryPlat.o)
                0x60339294                MercuryEIDGet_Ex
 .rodata.GetSdkVersion.str1.1
                0x603392a4        0xc ./SysLib/MercuryPlat/release/libsystem.a(MercuryPlat.o)
 .text          0x603392b0        0x0 ./SysLib/MercuryPlat/release/libsystem.a(MercuryPowerManager.o)
 .text.WakeLock
                0x603392b0        0xc ./SysLib/MercuryPlat/release/libsystem.a(MercuryPowerManager.o)
                0x603392b0                WakeLock
 .text.WakeUnlock
                0x603392bc        0xc ./SysLib/MercuryPlat/release/libsystem.a(MercuryPowerManager.o)
                0x603392bc                WakeUnlock
 .text.PowerOff
                0x603392c8        0xc ./SysLib/MercuryPlat/release/libsystem.a(MercuryPowerManager.o)
                0x603392c8                PowerOff
 .text.PowerReboot
                0x603392d4        0xc ./SysLib/MercuryPlat/release/libsystem.a(MercuryPowerManager.o)
                0x603392d4                PowerReboot
 .text.Power_GetChgCurrent
                0x603392e0        0xc ./SysLib/MercuryPlat/release/libsystem.a(MercuryPowerManager.o)
                0x603392e0                Power_GetChgCurrent
 .text.Power_GetVoltagetoPercent
                0x603392ec        0xc ./SysLib/MercuryPlat/release/libsystem.a(MercuryPowerManager.o)
                0x603392ec                Power_GetVoltagetoPercent
 .text.SetChgOverHighTemp
                0x603392f8        0xc ./SysLib/MercuryPlat/release/libsystem.a(MercuryPowerManager.o)
                0x603392f8                SetChgOverHighTemp
 .text.SetChgOverLowTemp
                0x60339304        0xc ./SysLib/MercuryPlat/release/libsystem.a(MercuryPowerManager.o)
                0x60339304                SetChgOverLowTemp
 .text.SetRechgVol
                0x60339310        0xc ./SysLib/MercuryPlat/release/libsystem.a(MercuryPowerManager.o)
                0x60339310                SetRechgVol
 .text.SetChgEndVol
                0x6033931c        0xc ./SysLib/MercuryPlat/release/libsystem.a(MercuryPowerManager.o)
                0x6033931c                SetChgEndVol
 .text.SetChgSwtich
                0x60339328       0x18 ./SysLib/MercuryPlat/release/libsystem.a(MercuryPowerManager.o)
                0x60339328                SetChgSwtich
 .text.SetAutoIdentAdp
                0x60339340        0xc ./SysLib/MercuryPlat/release/libsystem.a(MercuryPowerManager.o)
                0x60339340                SetAutoIdentAdp
 .text.GetAdpType
                0x6033934c        0xc ./SysLib/MercuryPlat/release/libsystem.a(MercuryPowerManager.o)
                0x6033934c                GetAdpType
 .text.ADC_GetResult
                0x60339358       0x1c ./SysLib/MercuryPlat/release/libsystem.a(MercuryPowerManager.o)
                0x60339358                ADC_GetResult
 .text.SystemAutoSleep
                0x60339374        0xc ./SysLib/MercuryPlat/release/libsystem.a(MercuryPowerManager.o)
                0x60339374                SystemAutoSleep
 .text.SetBatTempDetect
                0x60339380        0xc ./SysLib/MercuryPlat/release/libsystem.a(MercuryPowerManager.o)
                0x60339380                SetBatTempDetect
 .text.GetBatTempDetect
                0x6033938c        0xc ./SysLib/MercuryPlat/release/libsystem.a(MercuryPowerManager.o)
                0x6033938c                GetBatTempDetect
 .text.SetChargerBoardParam
                0x60339398       0x14 ./SysLib/MercuryPlat/release/libsystem.a(MercuryPowerManager.o)
                0x60339398                SetChargerBoardParam
 .text.EnableExtSrcClock
                0x603393ac       0x18 ./SysLib/MercuryPlat/release/libsystem.a(MercuryPowerManager.o)
                0x603393ac                EnableExtSrcClock
 .text.EnableCamSrcClock
                0x603393c4        0xc ./SysLib/MercuryPlat/release/libsystem.a(MercuryPowerManager.o)
                0x603393c4                EnableCamSrcClock
 .text.PmuSwitchPower
                0x603393d0        0xc ./SysLib/MercuryPlat/release/libsystem.a(MercuryPowerManager.o)
                0x603393d0                PmuSwitchPower
 .text.PmuSetPowerLevel
                0x603393dc        0xc ./SysLib/MercuryPlat/release/libsystem.a(MercuryPowerManager.o)
                0x603393dc                PmuSetPowerLevel
 .text.AdcChannelGetVol
                0x603393e8       0x10 ./SysLib/MercuryPlat/release/libsystem.a(MercuryPowerManager.o)
                0x603393e8                AdcChannelGetVol
 .text.GetLowPowerState
                0x603393f8       0x10 ./SysLib/MercuryPlat/release/libsystem.a(MercuryPowerManager.o)
                0x603393f8                GetLowPowerState
 .text.SetLowPowerEnable
                0x60339408       0x10 ./SysLib/MercuryPlat/release/libsystem.a(MercuryPowerManager.o)
                0x60339408                SetLowPowerEnable
 .text.PmuSet7sReset
                0x60339418       0x10 ./SysLib/MercuryPlat/release/libsystem.a(MercuryPowerManager.o)
                0x60339418                PmuSet7sReset
 .text.PmuSet7sResetThreshold
                0x60339428       0x20 ./SysLib/MercuryPlat/release/libsystem.a(MercuryPowerManager.o)
                0x60339428                PmuSet7sResetThreshold
 .text.SetPoweronLongPressDuration
                0x60339448       0x10 ./SysLib/MercuryPlat/release/libsystem.a(MercuryPowerManager.o)
                0x60339448                SetPoweronLongPressDuration
 .text.GetPoweronLongPressDuration
                0x60339458       0x10 ./SysLib/MercuryPlat/release/libsystem.a(MercuryPowerManager.o)
                0x60339458                GetPoweronLongPressDuration
 .text          0x60339468        0x0 ./SysLib/MercuryPlat/release/libsystem.a(MercurySyn.o)
 .text.CreateEvent
                0x60339468       0x30 ./SysLib/MercuryPlat/release/libsystem.a(MercurySyn.o)
                0x60339468                CreateEvent
 .text.OpenEvent
                0x60339498       0x30 ./SysLib/MercuryPlat/release/libsystem.a(MercurySyn.o)
                0x60339498                OpenEvent
 .text.PulseEvent
                0x603394c8       0x24 ./SysLib/MercuryPlat/release/libsystem.a(MercurySyn.o)
                0x603394c8                PulseEvent
 .text.ResetEvent
                0x603394ec       0x24 ./SysLib/MercuryPlat/release/libsystem.a(MercurySyn.o)
                0x603394ec                ResetEvent
 .text.SetEvent
                0x60339510       0x24 ./SysLib/MercuryPlat/release/libsystem.a(MercurySyn.o)
                0x60339510                SetEvent
 .text.WaitForSingleObject
                0x60339534       0x20 ./SysLib/MercuryPlat/release/libsystem.a(MercurySyn.o)
                0x60339534                WaitForSingleObject
 .text.InitializeCriticalSection
                0x60339554       0x14 ./SysLib/MercuryPlat/release/libsystem.a(MercurySyn.o)
                0x60339554                InitializeCriticalSection
 .text.EnterCriticalSection
                0x60339568       0x18 ./SysLib/MercuryPlat/release/libsystem.a(MercurySyn.o)
                0x60339568                EnterCriticalSection
 .text.LeaveCriticalSection
                0x60339580       0x18 ./SysLib/MercuryPlat/release/libsystem.a(MercurySyn.o)
                0x60339580                LeaveCriticalSection
 .text.DeleteCriticalSection
                0x60339598       0x18 ./SysLib/MercuryPlat/release/libsystem.a(MercurySyn.o)
                0x60339598                DeleteCriticalSection
 .text.osiSemaphoreCreate
                0x603395b0       0x24 ./SysLib/MercuryPlat/release/libsystem.a(MercurySyn.o)
                0x603395b0                osiSemaphoreCreate
 .text.osiSemaphoreDelete
                0x603395d4       0x18 ./SysLib/MercuryPlat/release/libsystem.a(MercurySyn.o)
                0x603395d4                osiSemaphoreDelete
 .text.osiSemaphoreAcquire
                0x603395ec       0x18 ./SysLib/MercuryPlat/release/libsystem.a(MercurySyn.o)
                0x603395ec                osiSemaphoreAcquire
 .text.osiSemaphoreTryAcquire
                0x60339604       0x24 ./SysLib/MercuryPlat/release/libsystem.a(MercurySyn.o)
                0x60339604                osiSemaphoreTryAcquire
 .text.osiSemaphoreRelease
                0x60339628       0x18 ./SysLib/MercuryPlat/release/libsystem.a(MercurySyn.o)
                0x60339628                osiSemaphoreRelease
 .text.osiMutexCreate
                0x60339640       0x10 ./SysLib/MercuryPlat/release/libsystem.a(MercurySyn.o)
                0x60339640                osiMutexCreate
 .text.osiMutexDelete
                0x60339650       0x18 ./SysLib/MercuryPlat/release/libsystem.a(MercurySyn.o)
                0x60339650                osiMutexDelete
 .text.osiMutexLock
                0x60339668       0x18 ./SysLib/MercuryPlat/release/libsystem.a(MercurySyn.o)
                0x60339668                osiMutexLock
 .text.osiMutexTryLock
                0x60339680       0x24 ./SysLib/MercuryPlat/release/libsystem.a(MercurySyn.o)
                0x60339680                osiMutexTryLock
 .text.osiMutexUnlock
                0x603396a4       0x18 ./SysLib/MercuryPlat/release/libsystem.a(MercurySyn.o)
                0x603396a4                osiMutexUnlock
 .text.osiMessageQueueCreate
                0x603396bc       0x10 ./SysLib/MercuryPlat/release/libsystem.a(MercurySyn.o)
                0x603396bc                osiMessageQueueCreate
 .text.osiMessageQueueDelete
                0x603396cc       0x18 ./SysLib/MercuryPlat/release/libsystem.a(MercurySyn.o)
                0x603396cc                osiMessageQueueDelete
 .text.osiMessageQueuePut
                0x603396e4       0x24 ./SysLib/MercuryPlat/release/libsystem.a(MercurySyn.o)
                0x603396e4                osiMessageQueuePut
 .text.osiMessageQueueTryPut
                0x60339708       0x24 ./SysLib/MercuryPlat/release/libsystem.a(MercurySyn.o)
                0x60339708                osiMessageQueueTryPut
 .text.osiMessageQueueGet
                0x6033972c       0x24 ./SysLib/MercuryPlat/release/libsystem.a(MercurySyn.o)
                0x6033972c                osiMessageQueueGet
 .text.osiMessageQueueTryGet
                0x60339750       0x24 ./SysLib/MercuryPlat/release/libsystem.a(MercurySyn.o)
                0x60339750                osiMessageQueueTryGet
 .text          0x60339774        0x0 ./SysLib/MercuryPlat/release/libsystem.a(MercuryThread.o)
 .text.CreateThread
                0x60339774       0x3c ./SysLib/MercuryPlat/release/libsystem.a(MercuryThread.o)
                0x60339774                CreateThread
 .text.CreateThreadWithStack
                0x603397b0       0x44 ./SysLib/MercuryPlat/release/libsystem.a(MercuryThread.o)
                0x603397b0                CreateThreadWithStack
 .text.ExitThread
                0x603397f4        0xc ./SysLib/MercuryPlat/release/libsystem.a(MercuryThread.o)
                0x603397f4                ExitThread
 .text.GetCurrentThread
                0x60339800        0xc ./SysLib/MercuryPlat/release/libsystem.a(MercuryThread.o)
                0x60339800                GetCurrentThread
 .text.GetCurrentThreadId
                0x6033980c        0xc ./SysLib/MercuryPlat/release/libsystem.a(MercuryThread.o)
                0x6033980c                GetCurrentThreadId
 .text.GetThreadPriority
                0x60339818        0xc ./SysLib/MercuryPlat/release/libsystem.a(MercuryThread.o)
                0x60339818                GetThreadPriority
 .text.ResumeThread
                0x60339824        0xc ./SysLib/MercuryPlat/release/libsystem.a(MercuryThread.o)
                0x60339824                ResumeThread
 .text.SetThreadPriority
                0x60339830       0x20 ./SysLib/MercuryPlat/release/libsystem.a(MercuryThread.o)
                0x60339830                SetThreadPriority
 .text.Sleep    0x60339850        0xc ./SysLib/MercuryPlat/release/libsystem.a(MercuryThread.o)
                0x60339850                Sleep
 .text.SuspendThread
                0x6033985c        0xc ./SysLib/MercuryPlat/release/libsystem.a(MercuryThread.o)
                0x6033985c                SuspendThread
 .text.TerminateThread
                0x60339868        0xc ./SysLib/MercuryPlat/release/libsystem.a(MercuryThread.o)
                0x60339868                TerminateThread
 .text.MercurySendMessage
                0x60339874       0x24 ./SysLib/MercuryPlat/release/libsystem.a(MercuryThread.o)
                0x60339874                MercurySendMessage
 .text.MercuryGetMessage
                0x60339898       0x10 ./SysLib/MercuryPlat/release/libsystem.a(MercuryThread.o)
                0x60339898                MercuryGetMessage
 .text.MercuryPeekMessage
                0x603398a8       0x10 ./SysLib/MercuryPlat/release/libsystem.a(MercuryThread.o)
                0x603398a8                MercuryPeekMessage
 .text.MercuryBreakPoint
                0x603398b8       0x10 ./SysLib/MercuryPlat/release/libsystem.a(MercuryThread.o)
                0x603398b8                MercuryBreakPoint
 .text.SleepUs  0x603398c8       0x10 ./SysLib/MercuryPlat/release/libsystem.a(MercuryThread.o)
                0x603398c8                SleepUs
 .text.MercuryThreadCount
                0x603398d8       0x10 ./SysLib/MercuryPlat/release/libsystem.a(MercuryThread.o)
                0x603398d8                MercuryThreadCount
 .text.MercuryThreadGetAllStatus
                0x603398e8       0x24 ./SysLib/MercuryPlat/release/libsystem.a(MercuryThread.o)
                0x603398e8                MercuryThreadGetAllStatus
 .text.MercurySetThreadNoCheckStackOverFlow
                0x6033990c       0x10 ./SysLib/MercuryPlat/release/libsystem.a(MercuryThread.o)
                0x6033990c                MercurySetThreadNoCheckStackOverFlow
 .text          0x6033991c        0x0 ./SysLib/MercuryPlat/release/libsystem.a(MercuryTimer.o)
 .text.CreateTimer
                0x6033991c       0x40 ./SysLib/MercuryPlat/release/libsystem.a(MercuryTimer.o)
                0x6033991c                CreateTimer
 .text.ChangeTimer
                0x6033995c       0x30 ./SysLib/MercuryPlat/release/libsystem.a(MercuryTimer.o)
                0x6033995c                ChangeTimer
 .text.ActiveTimer
                0x6033998c       0x28 ./SysLib/MercuryPlat/release/libsystem.a(MercuryTimer.o)
                0x6033998c                ActiveTimer
 .text.DeactiveTimer
                0x603399b4       0x28 ./SysLib/MercuryPlat/release/libsystem.a(MercuryTimer.o)
                0x603399b4                DeactiveTimer
 .text.IsTimerActive
                0x603399dc       0x24 ./SysLib/MercuryPlat/release/libsystem.a(MercuryTimer.o)
                0x603399dc                IsTimerActive
 .text.DeleteTimer
                0x60339a00       0x28 ./SysLib/MercuryPlat/release/libsystem.a(MercuryTimer.o)
                0x60339a00                DeleteTimer
 .text.GetCurrentTime
                0x60339a28       0x20 ./SysLib/MercuryPlat/release/libsystem.a(MercuryTimer.o)
                0x60339a28                GetCurrentTime
 .text.GetTickCount
                0x60339a48       0x20 ./SysLib/MercuryPlat/release/libsystem.a(MercuryTimer.o)
                0x60339a48                GetTickCount
 .text.SetLocalTime
                0x60339a68       0x2c ./SysLib/MercuryPlat/release/libsystem.a(MercuryTimer.o)
                0x60339a68                SetLocalTime
 .text.GetLocalTime
                0x60339a94       0x18 ./SysLib/MercuryPlat/release/libsystem.a(MercuryTimer.o)
                0x60339a94                GetLocalTime
 .text.CtrlSysnTimeFromNet
                0x60339aac       0x10 ./SysLib/MercuryPlat/release/libsystem.a(MercuryTimer.o)
                0x60339aac                CtrlSysnTimeFromNet
 .text.MercuryTime
                0x60339abc       0x10 ./SysLib/MercuryPlat/release/libsystem.a(MercuryTimer.o)
                0x60339abc                MercuryTime
 .text.MercuryLocaltime
                0x60339acc       0x14 ./SysLib/MercuryPlat/release/libsystem.a(MercuryTimer.o)
                0x60339acc                MercuryLocaltime
 .text.MercuryGMtime
                0x60339ae0       0x14 ./SysLib/MercuryPlat/release/libsystem.a(MercuryTimer.o)
                0x60339ae0                MercuryGMtime
 .text.MercuryTimeTickUS
                0x60339af4       0x10 ./SysLib/MercuryPlat/release/libsystem.a(MercuryTimer.o)
                0x60339af4                MercuryTimeTickUS
 .text          0x60339b04        0x0 ./SysLib/MercuryPlat/release/libsystem.a(MercuryTts.o)
 .text.TTS_Init
                0x60339b04       0x30 ./SysLib/MercuryPlat/release/libsystem.a(MercuryTts.o)
                0x60339b04                TTS_Init
 .text.TTS_Deinit
                0x60339b34       0x34 ./SysLib/MercuryPlat/release/libsystem.a(MercuryTts.o)
                0x60339b34                TTS_Deinit
 .text.TTS_SetParams
                0x60339b68       0x3c ./SysLib/MercuryPlat/release/libsystem.a(MercuryTts.o)
                0x60339b68                TTS_SetParams
 .text.TTS_GetParams
                0x60339ba4       0x3c ./SysLib/MercuryPlat/release/libsystem.a(MercuryTts.o)
                0x60339ba4                TTS_GetParams
 .text.TTS_PlayText
                0x60339be0       0x40 ./SysLib/MercuryPlat/release/libsystem.a(MercuryTts.o)
                0x60339be0                TTS_PlayText
 .text.TTS_Abort
                0x60339c20       0x2c ./SysLib/MercuryPlat/release/libsystem.a(MercuryTts.o)
                0x60339c20                TTS_Abort
 .text.PCM_StartPlay
                0x60339c4c        0xc ./SysLib/MercuryPlat/release/libsystem.a(MercuryTts.o)
                0x60339c4c                PCM_StartPlay
 .text.PCM_FillData
                0x60339c58       0x20 ./SysLib/MercuryPlat/release/libsystem.a(MercuryTts.o)
                0x60339c58                PCM_FillData
 .text.PCM_StopPlay
                0x60339c78        0xc ./SysLib/MercuryPlat/release/libsystem.a(MercuryTts.o)
                0x60339c78                PCM_StopPlay
 .text.AMR_StartPlay
                0x60339c84        0xc ./SysLib/MercuryPlat/release/libsystem.a(MercuryTts.o)
                0x60339c84                AMR_StartPlay
 .text.AMR_StopPlay
                0x60339c90        0xc ./SysLib/MercuryPlat/release/libsystem.a(MercuryTts.o)
                0x60339c90                AMR_StopPlay
 .text.MP3_StartPlay
                0x60339c9c       0x10 ./SysLib/MercuryPlat/release/libsystem.a(MercuryTts.o)
                0x60339c9c                MP3_StartPlay
 .text.MP3_StopPlay
                0x60339cac       0x10 ./SysLib/MercuryPlat/release/libsystem.a(MercuryTts.o)
                0x60339cac                MP3_StopPlay
 .text.PCM_StartPlay_Ex
                0x60339cbc       0x10 ./SysLib/MercuryPlat/release/libsystem.a(MercuryTts.o)
                0x60339cbc                PCM_StartPlay_Ex
 .text.Wav_StartPlay
                0x60339ccc       0x10 ./SysLib/MercuryPlat/release/libsystem.a(MercuryTts.o)
                0x60339ccc                Wav_StartPlay
 .text.Wav_StopPlay
                0x60339cdc       0x10 ./SysLib/MercuryPlat/release/libsystem.a(MercuryTts.o)
                0x60339cdc                Wav_StopPlay
 .text          0x60339cec        0x0 ./SysLib/MercuryPlat/release/AL36V200_SDK.a(QYY_API_FOTA.o)
 .text.hex2str  0x60339cec       0x30 ./SysLib/MercuryPlat/release/AL36V200_SDK.a(QYY_API_FOTA.o)
 .text.ota_rsp_cb
                0x60339d1c       0xc8 ./SysLib/MercuryPlat/release/AL36V200_SDK.a(QYY_API_FOTA.o)
                0x60339d1c                ota_rsp_cb
 .text.ota_download_cb
                0x60339de4       0x44 ./SysLib/MercuryPlat/release/AL36V200_SDK.a(QYY_API_FOTA.o)
                0x60339de4                ota_download_cb
 .text.qyy_set_ota_mode
                0x60339e28       0x14 ./SysLib/MercuryPlat/release/AL36V200_SDK.a(QYY_API_FOTA.o)
                0x60339e28                qyy_set_ota_mode
 .text._internal_fota_download_http
                0x60339e3c       0x5c ./SysLib/MercuryPlat/release/AL36V200_SDK.a(QYY_API_FOTA.o)
                0x60339e3c                _internal_fota_download_http
 .text.qyy_fota_download_http_ex
                0x60339e98        0xc ./SysLib/MercuryPlat/release/AL36V200_SDK.a(QYY_API_FOTA.o)
                0x60339e98                qyy_fota_download_http_ex
 .text.qyy_fota_download_http
                0x60339ea4       0x30 ./SysLib/MercuryPlat/release/AL36V200_SDK.a(QYY_API_FOTA.o)
                0x60339ea4                qyy_fota_download_http
 .text.qyy_fota_download_http_plain
                0x60339ed4       0x14 ./SysLib/MercuryPlat/release/AL36V200_SDK.a(QYY_API_FOTA.o)
                0x60339ed4                qyy_fota_download_http_plain
 .text.qyy_fota_update
                0x60339ee8      0x1f0 ./SysLib/MercuryPlat/release/AL36V200_SDK.a(QYY_API_FOTA.o)
                0x60339ee8                qyy_fota_update
 .text.qyy_flash_logo_read
                0x6033a0d8       0x12 ./SysLib/MercuryPlat/release/AL36V200_SDK.a(QYY_API_FOTA.o)
                0x6033a0d8                qyy_flash_logo_read
 .text.qyy_flash_logo_write
                0x6033a0ea       0x12 ./SysLib/MercuryPlat/release/AL36V200_SDK.a(QYY_API_FOTA.o)
                0x6033a0ea                qyy_flash_logo_write
 .text.qyy_flash_logo_erase
                0x6033a0fc       0x12 ./SysLib/MercuryPlat/release/AL36V200_SDK.a(QYY_API_FOTA.o)
                0x6033a0fc                qyy_flash_logo_erase
 .rodata.hex2str.str1.1
                0x6033a10e       0x11 ./SysLib/MercuryPlat/release/AL36V200_SDK.a(QYY_API_FOTA.o)
 .rodata.ota_rsp_cb.str1.1
                0x6033a10e       0x17 ./SysLib/MercuryPlat/release/AL36V200_SDK.a(QYY_API_FOTA.o)
 .rodata.str1.1
                0x6033a10e       0x15 ./SysLib/MercuryPlat/release/AL36V200_SDK.a(QYY_API_FOTA.o)
 .text          0x6033a123        0x0 ./SysLib/MercuryPlat/release/AL36V200_SDK.a(QYY_API_POWER.o)
 *fill*         0x6033a123        0x1 
 .text.get_battery_percent
                0x6033a124       0xba ./SysLib/MercuryPlat/release/AL36V200_SDK.a(QYY_API_POWER.o)
                0x6033a124                get_battery_percent
 .text.qyy_is_usb_online
                0x6033a1de       0x2c ./SysLib/MercuryPlat/release/AL36V200_SDK.a(QYY_API_POWER.o)
                0x6033a1de                qyy_is_usb_online
 *fill*         0x6033a20a        0x2 
 .text.qyy_set_battery_table
                0x6033a20c       0x14 ./SysLib/MercuryPlat/release/AL36V200_SDK.a(QYY_API_POWER.o)
                0x6033a20c                qyy_set_battery_table
 .text.qyy_get_battery_percent
                0x6033a220       0x60 ./SysLib/MercuryPlat/release/AL36V200_SDK.a(QYY_API_POWER.o)
                0x6033a220                qyy_get_battery_percent
 .text.get_battery_chargfull_time
                0x6033a280       0x34 ./SysLib/MercuryPlat/release/AL36V200_SDK.a(QYY_API_POWER.o)
                0x6033a280                get_battery_chargfull_time
 .text.qyy_power_off
                0x6033a2b4        0x4 ./SysLib/MercuryPlat/release/AL36V200_SDK.a(QYY_API_POWER.o)
                0x6033a2b4                qyy_power_off
 .text.qyy_system_restart
                0x6033a2b8        0xa ./SysLib/MercuryPlat/release/AL36V200_SDK.a(QYY_API_POWER.o)
                0x6033a2b8                qyy_system_restart
 .text.qyy_get_poweron_type
                0x6033a2c2        0xe ./SysLib/MercuryPlat/release/AL36V200_SDK.a(QYY_API_POWER.o)
                0x6033a2c2                qyy_get_poweron_type
 .text.qyy_fake_power_off
                0x6033a2d0       0x54 ./SysLib/MercuryPlat/release/AL36V200_SDK.a(QYY_API_POWER.o)
                0x6033a2d0                qyy_fake_power_off
 .rodata.charge_time_table
                0x6033a324       0x2c ./SysLib/MercuryPlat/release/AL36V200_SDK.a(QYY_API_POWER.o)
 .rodata.qyy_fake_power_off.str1.1
                0x6033a350        0x9 ./SysLib/MercuryPlat/release/AL36V200_SDK.a(QYY_API_POWER.o)
 .text          0x6033a359        0x0 ./SysLib/MercuryPlat/release/AL36V200_SDK.a(QYY_API_BCS_DISPLAY.o)
 *fill*         0x6033a359        0x1 
 .text._set_battery_level2
                0x6033a35a       0x44 ./SysLib/MercuryPlat/release/AL36V200_SDK.a(QYY_API_BCS_DISPLAY.o)
                0x6033a35a                _set_battery_level2
 .text._set_battery_level
                0x6033a39e       0x2c ./SysLib/MercuryPlat/release/AL36V200_SDK.a(QYY_API_BCS_DISPLAY.o)
                0x6033a39e                _set_battery_level
 .text._set_gprs_icon
                0x6033a3ca       0x26 ./SysLib/MercuryPlat/release/AL36V200_SDK.a(QYY_API_BCS_DISPLAY.o)
                0x6033a3ca                _set_gprs_icon
 .text._set_wifi_icon
                0x6033a3f0       0x26 ./SysLib/MercuryPlat/release/AL36V200_SDK.a(QYY_API_BCS_DISPLAY.o)
                0x6033a3f0                _set_wifi_icon
 .text.sdk_uart_init
                0x6033a416       0x20 ./SysLib/MercuryPlat/release/AL36V200_SDK.a(QYY_API_BCS_DISPLAY.o)
                0x6033a416                sdk_uart_init
 *fill*         0x6033a436        0x2 
 .text.qyy_bcs_flag
                0x6033a438        0xc ./SysLib/MercuryPlat/release/AL36V200_SDK.a(QYY_API_BCS_DISPLAY.o)
                0x6033a438                qyy_bcs_flag
 .text.qyy_bcs_number
                0x6033a444       0x16 ./SysLib/MercuryPlat/release/AL36V200_SDK.a(QYY_API_BCS_DISPLAY.o)
                0x6033a444                qyy_bcs_number
 *fill*         0x6033a45a        0x2 
 .text.qyy_bcs_init
                0x6033a45c       0x34 ./SysLib/MercuryPlat/release/AL36V200_SDK.a(QYY_API_BCS_DISPLAY.o)
                0x6033a45c                qyy_bcs_init
 .text.qyy_bcs_character
                0x6033a490        0x8 ./SysLib/MercuryPlat/release/AL36V200_SDK.a(QYY_API_BCS_DISPLAY.o)
                0x6033a490                qyy_bcs_character
 .text.qyy_bcs_authcode
                0x6033a498        0x8 ./SysLib/MercuryPlat/release/AL36V200_SDK.a(QYY_API_BCS_DISPLAY.o)
                0x6033a498                qyy_bcs_authcode
 .text.qyy_bcs_set_rssi
                0x6033a4a0       0x1a ./SysLib/MercuryPlat/release/AL36V200_SDK.a(QYY_API_BCS_DISPLAY.o)
                0x6033a4a0                qyy_bcs_set_rssi
 *fill*         0x6033a4ba        0x2 
 .text.qyy_bcs_set_speaker
                0x6033a4bc       0x20 ./SysLib/MercuryPlat/release/AL36V200_SDK.a(QYY_API_BCS_DISPLAY.o)
                0x6033a4bc                qyy_bcs_set_speaker
 .text.qyy_bcs_set_bluetooth
                0x6033a4dc       0x2c ./SysLib/MercuryPlat/release/AL36V200_SDK.a(QYY_API_BCS_DISPLAY.o)
                0x6033a4dc                qyy_bcs_set_bluetooth
 .text.qyy_bcs_set_battery
                0x6033a508       0x40 ./SysLib/MercuryPlat/release/AL36V200_SDK.a(QYY_API_BCS_DISPLAY.o)
                0x6033a508                qyy_bcs_set_battery
 .text.qyy_bcs_set_icon
                0x6033a548        0x8 ./SysLib/MercuryPlat/release/AL36V200_SDK.a(QYY_API_BCS_DISPLAY.o)
                0x6033a548                qyy_bcs_set_icon
 .text          0x6033a550        0x0 ./SysLib/MercuryPlat/release/AL36V200_SDK.a(qyy_to_sdk.o)
 .text.sdk_PA_ENABLE
                0x6033a550        0x4 ./SysLib/MercuryPlat/release/AL36V200_SDK.a(qyy_to_sdk.o)
                0x6033a550                sdk_PA_ENABLE
 .text.sdk_voiceplay
                0x6033a554        0x4 ./SysLib/MercuryPlat/release/AL36V200_SDK.a(qyy_to_sdk.o)
                0x6033a554                sdk_voiceplay
 .text.sdk_reg_tts_complete_callback
                0x6033a558        0x4 ./SysLib/MercuryPlat/release/AL36V200_SDK.a(qyy_to_sdk.o)
                0x6033a558                sdk_reg_tts_complete_callback
 .text.sdk_reg_pcm_complete_callback
                0x6033a55c        0x4 ./SysLib/MercuryPlat/release/AL36V200_SDK.a(qyy_to_sdk.o)
                0x6033a55c                sdk_reg_pcm_complete_callback
 .text.sdk_reg_amr_complete_callback
                0x6033a560        0x4 ./SysLib/MercuryPlat/release/AL36V200_SDK.a(qyy_to_sdk.o)
                0x6033a560                sdk_reg_amr_complete_callback
 .text.sdk_reg_mp3_complete_callback
                0x6033a564        0x4 ./SysLib/MercuryPlat/release/AL36V200_SDK.a(qyy_to_sdk.o)
                0x6033a564                sdk_reg_mp3_complete_callback
 .text.sdk_reg_tts_complete_callback_event
                0x6033a568        0x4 ./SysLib/MercuryPlat/release/AL36V200_SDK.a(qyy_to_sdk.o)
                0x6033a568                sdk_reg_tts_complete_callback_event
 .text.sdk_reg_wifi_scan_callback
                0x6033a56c        0x4 ./SysLib/MercuryPlat/release/AL36V200_SDK.a(qyy_to_sdk.o)
                0x6033a56c                sdk_reg_wifi_scan_callback
 .text.sdk_audio_play_file
                0x6033a570        0x4 ./SysLib/MercuryPlat/release/AL36V200_SDK.a(qyy_to_sdk.o)
                0x6033a570                sdk_audio_play_file
 .text.sdk_audio_play_nv
                0x6033a574        0x4 ./SysLib/MercuryPlat/release/AL36V200_SDK.a(qyy_to_sdk.o)
                0x6033a574                sdk_audio_play_nv
 .text.sdk_audio_play_gap
                0x6033a578        0x4 ./SysLib/MercuryPlat/release/AL36V200_SDK.a(qyy_to_sdk.o)
                0x6033a578                sdk_audio_play_gap
 .text.sdk_audio_play_stop
                0x6033a57c        0x4 ./SysLib/MercuryPlat/release/AL36V200_SDK.a(qyy_to_sdk.o)
                0x6033a57c                sdk_audio_play_stop
 .text.sdk_audio_play_file_sync
                0x6033a580        0x4 ./SysLib/MercuryPlat/release/AL36V200_SDK.a(qyy_to_sdk.o)
                0x6033a580                sdk_audio_play_file_sync
 .text.sdk_audio_play_data_sync
                0x6033a584        0x4 ./SysLib/MercuryPlat/release/AL36V200_SDK.a(qyy_to_sdk.o)
                0x6033a584                sdk_audio_play_data_sync
 .text.sdk_audio_play_data
                0x6033a588        0x4 ./SysLib/MercuryPlat/release/AL36V200_SDK.a(qyy_to_sdk.o)
                0x6033a588                sdk_audio_play_data
 .text.sdk_audio_playing
                0x6033a58c        0x4 ./SysLib/MercuryPlat/release/AL36V200_SDK.a(qyy_to_sdk.o)
                0x6033a58c                sdk_audio_playing
 .text.sdk_audio_queue_count
                0x6033a590        0x4 ./SysLib/MercuryPlat/release/AL36V200_SDK.a(qyy_to_sdk.o)
                0x6033a590                sdk_audio_queue_count
 .text.sdk_audio_play_array
                0x6033a594        0x4 ./SysLib/MercuryPlat/release/AL36V200_SDK.a(qyy_to_sdk.o)
                0x6033a594                sdk_audio_play_array
 .text.sdk_disp_init
                0x6033a598        0x4 ./SysLib/MercuryPlat/release/AL36V200_SDK.a(qyy_to_sdk.o)
                0x6033a598                sdk_disp_init
 .text.sdk_disp_set_params
                0x6033a59c        0x4 ./SysLib/MercuryPlat/release/AL36V200_SDK.a(qyy_to_sdk.o)
                0x6033a59c                sdk_disp_set_params
 .text.sdk_disp_get_params
                0x6033a5a0        0x4 ./SysLib/MercuryPlat/release/AL36V200_SDK.a(qyy_to_sdk.o)
                0x6033a5a0                sdk_disp_get_params
 .text.sdk_disp_set_default_params
                0x6033a5a4        0x4 ./SysLib/MercuryPlat/release/AL36V200_SDK.a(qyy_to_sdk.o)
                0x6033a5a4                sdk_disp_set_default_params
 .text.sdk_disp_clear_screen
                0x6033a5a8        0x4 ./SysLib/MercuryPlat/release/AL36V200_SDK.a(qyy_to_sdk.o)
                0x6033a5a8                sdk_disp_clear_screen
 .text.sdk_disp_clear_area
                0x6033a5ac        0x4 ./SysLib/MercuryPlat/release/AL36V200_SDK.a(qyy_to_sdk.o)
                0x6033a5ac                sdk_disp_clear_area
 .text.sdk_disp_line
                0x6033a5b0        0x4 ./SysLib/MercuryPlat/release/AL36V200_SDK.a(qyy_to_sdk.o)
                0x6033a5b0                sdk_disp_line
 .text.sdk_disp_line_color
                0x6033a5b4       0x10 ./SysLib/MercuryPlat/release/AL36V200_SDK.a(qyy_to_sdk.o)
                0x6033a5b4                sdk_disp_line_color
 .text.sdk_disp_bitmap
                0x6033a5c4        0x4 ./SysLib/MercuryPlat/release/AL36V200_SDK.a(qyy_to_sdk.o)
                0x6033a5c4                sdk_disp_bitmap
 .text.sdk_set_status_bar
                0x6033a5c8        0x4 ./SysLib/MercuryPlat/release/AL36V200_SDK.a(qyy_to_sdk.o)
                0x6033a5c8                sdk_set_status_bar
 .text.sdk_disp_battery
                0x6033a5cc        0x4 ./SysLib/MercuryPlat/release/AL36V200_SDK.a(qyy_to_sdk.o)
                0x6033a5cc                sdk_disp_battery
 .text.sdk_disp_mobile_signal
                0x6033a5d0        0x4 ./SysLib/MercuryPlat/release/AL36V200_SDK.a(qyy_to_sdk.o)
                0x6033a5d0                sdk_disp_mobile_signal
 .text.sdk_disp_wifi_signal
                0x6033a5d4        0x4 ./SysLib/MercuryPlat/release/AL36V200_SDK.a(qyy_to_sdk.o)
                0x6033a5d4                sdk_disp_wifi_signal
 .text.sdk_disp_time
                0x6033a5d8        0x4 ./SysLib/MercuryPlat/release/AL36V200_SDK.a(qyy_to_sdk.o)
                0x6033a5d8                sdk_disp_time
 .text.sdk_disp_text
                0x6033a5dc        0x4 ./SysLib/MercuryPlat/release/AL36V200_SDK.a(qyy_to_sdk.o)
                0x6033a5dc                sdk_disp_text
 .text.sdk_disp_text_row
                0x6033a5e0        0x4 ./SysLib/MercuryPlat/release/AL36V200_SDK.a(qyy_to_sdk.o)
                0x6033a5e0                sdk_disp_text_row
 .text.sdk_disp_qrcode
                0x6033a5e4        0x4 ./SysLib/MercuryPlat/release/AL36V200_SDK.a(qyy_to_sdk.o)
                0x6033a5e4                sdk_disp_qrcode
 .text.sdk_fota_download_http_plain
                0x6033a5e8        0x4 ./SysLib/MercuryPlat/release/AL36V200_SDK.a(qyy_to_sdk.o)
                0x6033a5e8                sdk_fota_download_http_plain
 .text.sdk_fota_download_http
                0x6033a5ec        0x4 ./SysLib/MercuryPlat/release/AL36V200_SDK.a(qyy_to_sdk.o)
                0x6033a5ec                sdk_fota_download_http
 .text.sdk_fota_download_http_ex
                0x6033a5f0        0x4 ./SysLib/MercuryPlat/release/AL36V200_SDK.a(qyy_to_sdk.o)
                0x6033a5f0                sdk_fota_download_http_ex
 .text.sdk_fota_update
                0x6033a5f4        0x4 ./SysLib/MercuryPlat/release/AL36V200_SDK.a(qyy_to_sdk.o)
                0x6033a5f4                sdk_fota_update
 .text.sdk_http_post
                0x6033a5f8        0x4 ./SysLib/MercuryPlat/release/AL36V200_SDK.a(qyy_to_sdk.o)
                0x6033a5f8                sdk_http_post
 .text.sdk_http_post_auto
                0x6033a5fc        0x4 ./SysLib/MercuryPlat/release/AL36V200_SDK.a(qyy_to_sdk.o)
                0x6033a5fc                sdk_http_post_auto
 .text.sdk_http_get
                0x6033a600        0x4 ./SysLib/MercuryPlat/release/AL36V200_SDK.a(qyy_to_sdk.o)
                0x6033a600                sdk_http_get
 .text.sdk_flash_logo_read
                0x6033a604        0x4 ./SysLib/MercuryPlat/release/AL36V200_SDK.a(qyy_to_sdk.o)
                0x6033a604                sdk_flash_logo_read
 .text.sdk_flash_logo_write
                0x6033a608        0x4 ./SysLib/MercuryPlat/release/AL36V200_SDK.a(qyy_to_sdk.o)
                0x6033a608                sdk_flash_logo_write
 .text.sdk_flash_logo_erase
                0x6033a60c        0x4 ./SysLib/MercuryPlat/release/AL36V200_SDK.a(qyy_to_sdk.o)
                0x6033a60c                sdk_flash_logo_erase
 .text.sdk_set_ota_mode
                0x6033a610        0x4 ./SysLib/MercuryPlat/release/AL36V200_SDK.a(qyy_to_sdk.o)
                0x6033a610                sdk_set_ota_mode
 .text.sdk_Get_key_up_state
                0x6033a614        0x4 ./SysLib/MercuryPlat/release/AL36V200_SDK.a(qyy_to_sdk.o)
                0x6033a614                sdk_Get_key_up_state
 .text.sdk_Get_key_down_state
                0x6033a618        0x4 ./SysLib/MercuryPlat/release/AL36V200_SDK.a(qyy_to_sdk.o)
                0x6033a618                sdk_Get_key_down_state
 .text.sdk_Get_key_replay_state
                0x6033a61c        0x4 ./SysLib/MercuryPlat/release/AL36V200_SDK.a(qyy_to_sdk.o)
                0x6033a61c                sdk_Get_key_replay_state
 .text.sdk_register_key_short_press_cb
                0x6033a620        0x4 ./SysLib/MercuryPlat/release/AL36V200_SDK.a(qyy_to_sdk.o)
                0x6033a620                sdk_register_key_short_press_cb
 .text.sdk_register_key_long_press_cb
                0x6033a624        0x4 ./SysLib/MercuryPlat/release/AL36V200_SDK.a(qyy_to_sdk.o)
                0x6033a624                sdk_register_key_long_press_cb
 .text.sdk_light_control
                0x6033a628        0x4 ./SysLib/MercuryPlat/release/AL36V200_SDK.a(qyy_to_sdk.o)
                0x6033a628                sdk_light_control
 .text.sdk_blink_control
                0x6033a62c        0x4 ./SysLib/MercuryPlat/release/AL36V200_SDK.a(qyy_to_sdk.o)
                0x6033a62c                sdk_blink_control
 .text.sdk_MQTT_connect
                0x6033a630        0x4 ./SysLib/MercuryPlat/release/AL36V200_SDK.a(qyy_to_sdk.o)
                0x6033a630                sdk_MQTT_connect
 .text.sdk_MQTT_publish
                0x6033a634        0x4 ./SysLib/MercuryPlat/release/AL36V200_SDK.a(qyy_to_sdk.o)
                0x6033a634                sdk_MQTT_publish
 .text.sdk_MQTT_subcribe
                0x6033a638        0x4 ./SysLib/MercuryPlat/release/AL36V200_SDK.a(qyy_to_sdk.o)
                0x6033a638                sdk_MQTT_subcribe
 .text.sdk_MQTT_unsubcribe
                0x6033a63c        0x4 ./SysLib/MercuryPlat/release/AL36V200_SDK.a(qyy_to_sdk.o)
                0x6033a63c                sdk_MQTT_unsubcribe
 .text.sdk_MQTT_close
                0x6033a640        0x4 ./SysLib/MercuryPlat/release/AL36V200_SDK.a(qyy_to_sdk.o)
                0x6033a640                sdk_MQTT_close
 .text.sdk_MQTT_yield
                0x6033a644        0x4 ./SysLib/MercuryPlat/release/AL36V200_SDK.a(qyy_to_sdk.o)
                0x6033a644                sdk_MQTT_yield
 .text.sdk_change_mqtt_alive_interval
                0x6033a648        0x4 ./SysLib/MercuryPlat/release/AL36V200_SDK.a(qyy_to_sdk.o)
                0x6033a648                sdk_change_mqtt_alive_interval
 .text.sdk_MQTT_SetDefault_handler
                0x6033a64c        0x4 ./SysLib/MercuryPlat/release/AL36V200_SDK.a(qyy_to_sdk.o)
                0x6033a64c                sdk_MQTT_SetDefault_handler
 .text.sdk_set_battery_table
                0x6033a650        0x4 ./SysLib/MercuryPlat/release/AL36V200_SDK.a(qyy_to_sdk.o)
                0x6033a650                sdk_set_battery_table
 .text.sdk_get_battery_percent
                0x6033a654        0x4 ./SysLib/MercuryPlat/release/AL36V200_SDK.a(qyy_to_sdk.o)
                0x6033a654                sdk_get_battery_percent
 .text.sdk_is_usb_online
                0x6033a658        0x4 ./SysLib/MercuryPlat/release/AL36V200_SDK.a(qyy_to_sdk.o)
                0x6033a658                sdk_is_usb_online
 .text.sdk_power_off
                0x6033a65c        0x4 ./SysLib/MercuryPlat/release/AL36V200_SDK.a(qyy_to_sdk.o)
                0x6033a65c                sdk_power_off
 .text.sdk_system_restart
                0x6033a660        0x4 ./SysLib/MercuryPlat/release/AL36V200_SDK.a(qyy_to_sdk.o)
                0x6033a660                sdk_system_restart
 .text.sdk_reg_powerkey_shortpress_callback
                0x6033a664        0x4 ./SysLib/MercuryPlat/release/AL36V200_SDK.a(qyy_to_sdk.o)
                0x6033a664                sdk_reg_powerkey_shortpress_callback
 .text.sdk_reg_poweroff_callback
                0x6033a668        0x4 ./SysLib/MercuryPlat/release/AL36V200_SDK.a(qyy_to_sdk.o)
                0x6033a668                sdk_reg_poweroff_callback
 .text.sdk_System_Init
                0x6033a66c        0x4 ./SysLib/MercuryPlat/release/AL36V200_SDK.a(qyy_to_sdk.o)
                0x6033a66c                sdk_System_Init
 .text.sdk_network_gprs_init
                0x6033a670        0x4 ./SysLib/MercuryPlat/release/AL36V200_SDK.a(qyy_to_sdk.o)
                0x6033a670                sdk_network_gprs_init
 .text.sdk_network_wifi_init
                0x6033a674        0x4 ./SysLib/MercuryPlat/release/AL36V200_SDK.a(qyy_to_sdk.o)
                0x6033a674                sdk_network_wifi_init
 .text.sdk_get_wifi_init_OK
                0x6033a678        0x4 ./SysLib/MercuryPlat/release/AL36V200_SDK.a(qyy_to_sdk.o)
                0x6033a678                sdk_get_wifi_init_OK
 .text.sdk_get_gprs_network_status
                0x6033a67c        0x4 ./SysLib/MercuryPlat/release/AL36V200_SDK.a(qyy_to_sdk.o)
                0x6033a67c                sdk_get_gprs_network_status
 .text.sdk_GET_SDK_VERSION
                0x6033a680        0x4 ./SysLib/MercuryPlat/release/AL36V200_SDK.a(qyy_to_sdk.o)
                0x6033a680                sdk_GET_SDK_VERSION
 .text.sdk_set_network_mode
                0x6033a684        0x4 ./SysLib/MercuryPlat/release/AL36V200_SDK.a(qyy_to_sdk.o)
                0x6033a684                sdk_set_network_mode
 .text.sdk_get_network_mode
                0x6033a688        0x4 ./SysLib/MercuryPlat/release/AL36V200_SDK.a(qyy_to_sdk.o)
                0x6033a688                sdk_get_network_mode
 .text.sdk_wifi_power_off
                0x6033a68c        0x4 ./SysLib/MercuryPlat/release/AL36V200_SDK.a(qyy_to_sdk.o)
                0x6033a68c                sdk_wifi_power_off
 .text.sdk_wifi_power_on
                0x6033a690        0x4 ./SysLib/MercuryPlat/release/AL36V200_SDK.a(qyy_to_sdk.o)
                0x6033a690                sdk_wifi_power_on
 .text.sdk_set_wifi_sleep_mode
                0x6033a694        0x4 ./SysLib/MercuryPlat/release/AL36V200_SDK.a(qyy_to_sdk.o)
                0x6033a694                sdk_set_wifi_sleep_mode
 .text.sdk_set_wifi_sta_disconn_ap
                0x6033a698        0x4 ./SysLib/MercuryPlat/release/AL36V200_SDK.a(qyy_to_sdk.o)
                0x6033a698                sdk_set_wifi_sta_disconn_ap
 .text.sdk_read_secure_boot_rsa
                0x6033a69c        0x4 ./SysLib/MercuryPlat/release/AL36V200_SDK.a(qyy_to_sdk.o)
                0x6033a69c                sdk_read_secure_boot_rsa
 .text.sdk_read_secure_boot_state
                0x6033a6a0        0x4 ./SysLib/MercuryPlat/release/AL36V200_SDK.a(qyy_to_sdk.o)
                0x6033a6a0                sdk_read_secure_boot_state
 .text.sdk_fake_power_off
                0x6033a6a4        0x4 ./SysLib/MercuryPlat/release/AL36V200_SDK.a(qyy_to_sdk.o)
                0x6033a6a4                sdk_fake_power_off
 .text.sdk_uri_encode
                0x6033a6a8        0x4 ./SysLib/MercuryPlat/release/AL36V200_SDK.a(qyy_to_sdk.o)
                0x6033a6a8                sdk_uri_encode
 .text.sdk_hmac_sha1
                0x6033a6ac        0x4 ./SysLib/MercuryPlat/release/AL36V200_SDK.a(qyy_to_sdk.o)
                0x6033a6ac                sdk_hmac_sha1
 .text.sdk_powersave_notify_reg_cb
                0x6033a6b0        0x4 ./SysLib/MercuryPlat/release/AL36V200_SDK.a(qyy_to_sdk.o)
                0x6033a6b0                sdk_powersave_notify_reg_cb
 .text.sdk_set_log_level
                0x6033a6b4        0x4 ./SysLib/MercuryPlat/release/AL36V200_SDK.a(qyy_to_sdk.o)
                0x6033a6b4                sdk_set_log_level
 .text.sdk_power_save
                0x6033a6b8        0x4 ./SysLib/MercuryPlat/release/AL36V200_SDK.a(qyy_to_sdk.o)
                0x6033a6b8                sdk_power_save
 .text.sdk_gpio_key_reg_cb
                0x6033a6bc        0x4 ./SysLib/MercuryPlat/release/AL36V200_SDK.a(qyy_to_sdk.o)
                0x6033a6bc                sdk_gpio_key_reg_cb
 .text.sdk_gpio_key_reg_cb_short_double
                0x6033a6c0        0x4 ./SysLib/MercuryPlat/release/AL36V200_SDK.a(qyy_to_sdk.o)
                0x6033a6c0                sdk_gpio_key_reg_cb_short_double
 .text.sdk_power_save_key_fetch
                0x6033a6c4        0x4 ./SysLib/MercuryPlat/release/AL36V200_SDK.a(qyy_to_sdk.o)
                0x6033a6c4                sdk_power_save_key_fetch
 .text.sdk_keypad_scan_handle
                0x6033a6c8        0x4 ./SysLib/MercuryPlat/release/AL36V200_SDK.a(qyy_to_sdk.o)
                0x6033a6c8                sdk_keypad_scan_handle
 .text.sdk_reg_key_short_cb
                0x6033a6cc        0x4 ./SysLib/MercuryPlat/release/AL36V200_SDK.a(qyy_to_sdk.o)
                0x6033a6cc                sdk_reg_key_short_cb
 .text.sdk_reg_key_long_cb
                0x6033a6d0        0xe ./SysLib/MercuryPlat/release/AL36V200_SDK.a(qyy_to_sdk.o)
                0x6033a6d0                sdk_reg_key_long_cb
 .text.sdk_reg_key_double_cb
                0x6033a6de        0x4 ./SysLib/MercuryPlat/release/AL36V200_SDK.a(qyy_to_sdk.o)
                0x6033a6de                sdk_reg_key_double_cb
 .text.sdk_reg_telephone_callback
                0x6033a6e2        0x4 ./SysLib/MercuryPlat/release/AL36V200_SDK.a(qyy_to_sdk.o)
                0x6033a6e2                sdk_reg_telephone_callback
 .text.sdk_get_ntptime
                0x6033a6e6        0x4 ./SysLib/MercuryPlat/release/AL36V200_SDK.a(qyy_to_sdk.o)
                0x6033a6e6                sdk_get_ntptime
 .text.sdk_Utf8ToGb2312
                0x6033a6ea        0x4 ./SysLib/MercuryPlat/release/AL36V200_SDK.a(qyy_to_sdk.o)
                0x6033a6ea                sdk_Utf8ToGb2312
 .text.sdk_set_amp_gpio
                0x6033a6ee        0x4 ./SysLib/MercuryPlat/release/AL36V200_SDK.a(qyy_to_sdk.o)
                0x6033a6ee                sdk_set_amp_gpio
 .text.sdk_tcp_connect
                0x6033a6f2        0x4 ./SysLib/MercuryPlat/release/AL36V200_SDK.a(qyy_to_sdk.o)
                0x6033a6f2                sdk_tcp_connect
 .text.sdk_tcp_recv
                0x6033a6f6        0x4 ./SysLib/MercuryPlat/release/AL36V200_SDK.a(qyy_to_sdk.o)
                0x6033a6f6                sdk_tcp_recv
 .text.sdk_tcp_send
                0x6033a6fa        0x4 ./SysLib/MercuryPlat/release/AL36V200_SDK.a(qyy_to_sdk.o)
                0x6033a6fa                sdk_tcp_send
 .text.sdk_tcp_close
                0x6033a6fe        0x4 ./SysLib/MercuryPlat/release/AL36V200_SDK.a(qyy_to_sdk.o)
                0x6033a6fe                sdk_tcp_close
 .text.sdk_hosttoip
                0x6033a702        0x4 ./SysLib/MercuryPlat/release/AL36V200_SDK.a(qyy_to_sdk.o)
                0x6033a702                sdk_hosttoip
 .text.sdk_setx509cer
                0x6033a706        0x4 ./SysLib/MercuryPlat/release/AL36V200_SDK.a(qyy_to_sdk.o)
                0x6033a706                sdk_setx509cer
 .text.sdk_setx509_own_cer
                0x6033a70a        0x4 ./SysLib/MercuryPlat/release/AL36V200_SDK.a(qyy_to_sdk.o)
                0x6033a70a                sdk_setx509_own_cer
 .text.sdk_setx509_prikey
                0x6033a70e        0x4 ./SysLib/MercuryPlat/release/AL36V200_SDK.a(qyy_to_sdk.o)
                0x6033a70e                sdk_setx509_prikey
 .text.sdk_gprs_set_dns_server
                0x6033a712        0x4 ./SysLib/MercuryPlat/release/AL36V200_SDK.a(qyy_to_sdk.o)
                0x6033a712                sdk_gprs_set_dns_server
 .text.sdk_get_wifi_rssi
                0x6033a716        0x4 ./SysLib/MercuryPlat/release/AL36V200_SDK.a(qyy_to_sdk.o)
                0x6033a716                sdk_get_wifi_rssi
 .text.sdk_get_wifi_hostname
                0x6033a71a        0x4 ./SysLib/MercuryPlat/release/AL36V200_SDK.a(qyy_to_sdk.o)
                0x6033a71a                sdk_get_wifi_hostname
 .text.sdk_set_wifi_hostname
                0x6033a71e        0x4 ./SysLib/MercuryPlat/release/AL36V200_SDK.a(qyy_to_sdk.o)
                0x6033a71e                sdk_set_wifi_hostname
 .text.sdk_start_airkiss
                0x6033a722        0x4 ./SysLib/MercuryPlat/release/AL36V200_SDK.a(qyy_to_sdk.o)
                0x6033a722                sdk_start_airkiss
 .text.sdk_abort_airkiss
                0x6033a726        0x4 ./SysLib/MercuryPlat/release/AL36V200_SDK.a(qyy_to_sdk.o)
                0x6033a726                sdk_abort_airkiss
 .text.sdk_start_connect
                0x6033a72a        0x4 ./SysLib/MercuryPlat/release/AL36V200_SDK.a(qyy_to_sdk.o)
                0x6033a72a                sdk_start_connect
 .text.sdk_get_wifi_singnal
                0x6033a72e        0x4 ./SysLib/MercuryPlat/release/AL36V200_SDK.a(qyy_to_sdk.o)
                0x6033a72e                sdk_get_wifi_singnal
 .text.sdk_get_connected_wifi_singnal
                0x6033a732        0x4 ./SysLib/MercuryPlat/release/AL36V200_SDK.a(qyy_to_sdk.o)
                0x6033a732                sdk_get_connected_wifi_singnal
 .text.sdk_get_wifi_list
                0x6033a736        0x4 ./SysLib/MercuryPlat/release/AL36V200_SDK.a(qyy_to_sdk.o)
                0x6033a736                sdk_get_wifi_list
 .text.sdk_start_AP
                0x6033a73a        0x4 ./SysLib/MercuryPlat/release/AL36V200_SDK.a(qyy_to_sdk.o)
                0x6033a73a                sdk_start_AP
 .text.sdk_abort_AP
                0x6033a73e        0x4 ./SysLib/MercuryPlat/release/AL36V200_SDK.a(qyy_to_sdk.o)
                0x6033a73e                sdk_abort_AP
 .text.sdk_WIFI_ENABLE
                0x6033a742        0x4 ./SysLib/MercuryPlat/release/AL36V200_SDK.a(qyy_to_sdk.o)
                0x6033a742                sdk_WIFI_ENABLE
 .text.sdk_get_wifi_MAC
                0x6033a746        0x4 ./SysLib/MercuryPlat/release/AL36V200_SDK.a(qyy_to_sdk.o)
                0x6033a746                sdk_get_wifi_MAC
 .text.sdk_get_wifi_firmware_version
                0x6033a74a        0x4 ./SysLib/MercuryPlat/release/AL36V200_SDK.a(qyy_to_sdk.o)
                0x6033a74a                sdk_get_wifi_firmware_version
 .text.sdk_wifi_ping
                0x6033a74e        0x4 ./SysLib/MercuryPlat/release/AL36V200_SDK.a(qyy_to_sdk.o)
                0x6033a74e                sdk_wifi_ping
 .text.sdk_wifi_deep_sleep_mode
                0x6033a752        0x4 ./SysLib/MercuryPlat/release/AL36V200_SDK.a(qyy_to_sdk.o)
                0x6033a752                sdk_wifi_deep_sleep_mode
 .text.sdk_wifi_setpowersavemode
                0x6033a756        0x4 ./SysLib/MercuryPlat/release/AL36V200_SDK.a(qyy_to_sdk.o)
                0x6033a756                sdk_wifi_setpowersavemode
 .text.sdk_wifi_wakeup
                0x6033a75a        0x4 ./SysLib/MercuryPlat/release/AL36V200_SDK.a(qyy_to_sdk.o)
                0x6033a75a                sdk_wifi_wakeup
 .text.sdk_wifi_set_dns_server
                0x6033a75e        0x4 ./SysLib/MercuryPlat/release/AL36V200_SDK.a(qyy_to_sdk.o)
                0x6033a75e                sdk_wifi_set_dns_server
 .text.sdk_wifi_firmware_update
                0x6033a762        0x4 ./SysLib/MercuryPlat/release/AL36V200_SDK.a(qyy_to_sdk.o)
                0x6033a762                sdk_wifi_firmware_update
 .text.sdk_get_flash_usage
                0x6033a766        0x4 ./SysLib/MercuryPlat/release/AL36V200_SDK.a(qyy_to_sdk.o)
                0x6033a766                sdk_get_flash_usage
 .text.sdk_bcs_init
                0x6033a76a        0x4 ./SysLib/MercuryPlat/release/AL36V200_SDK.a(qyy_to_sdk.o)
                0x6033a76a                sdk_bcs_init
 .text.sdk_bcs_number
                0x6033a76e        0x4 ./SysLib/MercuryPlat/release/AL36V200_SDK.a(qyy_to_sdk.o)
                0x6033a76e                sdk_bcs_number
 .text.sdk_bcs_authcode
                0x6033a772        0x4 ./SysLib/MercuryPlat/release/AL36V200_SDK.a(qyy_to_sdk.o)
                0x6033a772                sdk_bcs_authcode
 .text.sdk_bcs_set_rssi
                0x6033a776        0x4 ./SysLib/MercuryPlat/release/AL36V200_SDK.a(qyy_to_sdk.o)
                0x6033a776                sdk_bcs_set_rssi
 .text.sdk_bcs_set_speaker
                0x6033a77a        0x4 ./SysLib/MercuryPlat/release/AL36V200_SDK.a(qyy_to_sdk.o)
                0x6033a77a                sdk_bcs_set_speaker
 .text.sdk_bcs_set_bluetooth
                0x6033a77e        0x4 ./SysLib/MercuryPlat/release/AL36V200_SDK.a(qyy_to_sdk.o)
                0x6033a77e                sdk_bcs_set_bluetooth
 .text.sdk_bcs_set_icon
                0x6033a782        0x4 ./SysLib/MercuryPlat/release/AL36V200_SDK.a(qyy_to_sdk.o)
                0x6033a782                sdk_bcs_set_icon
 .text.sdk_bcs_set_battery
                0x6033a786        0x4 ./SysLib/MercuryPlat/release/AL36V200_SDK.a(qyy_to_sdk.o)
                0x6033a786                sdk_bcs_set_battery
 .text.sdk_bcs_character
                0x6033a78a        0x4 ./SysLib/MercuryPlat/release/AL36V200_SDK.a(qyy_to_sdk.o)
                0x6033a78a                sdk_bcs_character
 .text.sdk_bcs_flag
                0x6033a78e        0x4 ./SysLib/MercuryPlat/release/AL36V200_SDK.a(qyy_to_sdk.o)
                0x6033a78e                sdk_bcs_flag
 .text          0x6033a792        0x0 ./SysLib/MercuryPlat/release/AL36V200_SDK.a(gpio.o)
 *fill*         0x6033a792        0x2 
 .text._cb_default_gpio_interrupt_key
                0x6033a794        0xc ./SysLib/MercuryPlat/release/AL36V200_SDK.a(gpio.o)
                0x6033a794                _cb_default_gpio_interrupt_key
 .text.dsa_clean.constprop.7
                0x6033a7a0        0xa ./SysLib/MercuryPlat/release/AL36V200_SDK.a(gpio.o)
 .text._qyy_gpio_key_check_release_timeout
                0x6033a7aa       0x7e ./SysLib/MercuryPlat/release/AL36V200_SDK.a(gpio.o)
 .text.Get_GPIO_Value
                0x6033a828        0x4 ./SysLib/MercuryPlat/release/AL36V200_SDK.a(gpio.o)
                0x6033a828                Get_GPIO_Value
 .text.Set_GPIO_Input
                0x6033a82c       0x24 ./SysLib/MercuryPlat/release/AL36V200_SDK.a(gpio.o)
                0x6033a82c                Set_GPIO_Input
 .text.Set_GPIO_Output
                0x6033a850       0x4c ./SysLib/MercuryPlat/release/AL36V200_SDK.a(gpio.o)
                0x6033a850                Set_GPIO_Output
 .text.Set_GPIO_High
                0x6033a89c        0x4 ./SysLib/MercuryPlat/release/AL36V200_SDK.a(gpio.o)
                0x6033a89c                Set_GPIO_High
 .text.Set_GPIO_Low
                0x6033a8a0        0x4 ./SysLib/MercuryPlat/release/AL36V200_SDK.a(gpio.o)
                0x6033a8a0                Set_GPIO_Low
 .text._set_led_gpio_high
                0x6033a8a4        0x4 ./SysLib/MercuryPlat/release/AL36V200_SDK.a(gpio.o)
                0x6033a8a4                _set_led_gpio_high
 .text._set_led_gpio_low
                0x6033a8a8        0x4 ./SysLib/MercuryPlat/release/AL36V200_SDK.a(gpio.o)
                0x6033a8a8                _set_led_gpio_low
 .text.qyy_gpio_key_cb_init
                0x6033a8ac       0x12 ./SysLib/MercuryPlat/release/AL36V200_SDK.a(gpio.o)
                0x6033a8ac                qyy_gpio_key_cb_init
 *fill*         0x6033a8be        0x2 
 .text.qyy_gpio_key_reg_cb
                0x6033a8c0       0x20 ./SysLib/MercuryPlat/release/AL36V200_SDK.a(gpio.o)
                0x6033a8c0                qyy_gpio_key_reg_cb
 .text.qyy_gpio_key_reg_cb_append1
                0x6033a8e0        0xc ./SysLib/MercuryPlat/release/AL36V200_SDK.a(gpio.o)
                0x6033a8e0                qyy_gpio_key_reg_cb_append1
 .text.qyy_gpio_key_reg_cb_short_double
                0x6033a8ec       0x10 ./SysLib/MercuryPlat/release/AL36V200_SDK.a(gpio.o)
                0x6033a8ec                qyy_gpio_key_reg_cb_short_double
 .text.qyy_power_save_key_init
                0x6033a8fc       0x30 ./SysLib/MercuryPlat/release/AL36V200_SDK.a(gpio.o)
                0x6033a8fc                qyy_power_save_key_init
 .text.qyy_power_save_key_fetch
                0x6033a92c      0x38c ./SysLib/MercuryPlat/release/AL36V200_SDK.a(gpio.o)
                0x6033a92c                qyy_power_save_key_fetch
 .text._set_key_gpio_interrupt
                0x6033acb8       0x50 ./SysLib/MercuryPlat/release/AL36V200_SDK.a(gpio.o)
                0x6033acb8                _set_key_gpio_interrupt
 .rodata        0x6033ad08       0x10 ./SysLib/MercuryPlat/release/AL36V200_SDK.a(gpio.o)
 .text          0x6033ad18        0x0 ./SysLib/MercuryPlat/release/AL36V200_SDK.a(keypad.o)
 .text.cb_keypad_shortpress
                0x6033ad18       0x50 ./SysLib/MercuryPlat/release/AL36V200_SDK.a(keypad.o)
 .text.cb_keypad_dbclick
                0x6033ad68       0x44 ./SysLib/MercuryPlat/release/AL36V200_SDK.a(keypad.o)
 .text.qyy_Get_key_up_state
                0x6033adac        0x6 ./SysLib/MercuryPlat/release/AL36V200_SDK.a(keypad.o)
                0x6033adac                qyy_Get_key_up_state
 .text.qyy_Get_key_down_state
                0x6033adb2        0x6 ./SysLib/MercuryPlat/release/AL36V200_SDK.a(keypad.o)
                0x6033adb2                qyy_Get_key_down_state
 .text.qyy_Get_key_replay_state
                0x6033adb8        0x6 ./SysLib/MercuryPlat/release/AL36V200_SDK.a(keypad.o)
                0x6033adb8                qyy_Get_key_replay_state
 .text.keypad_getkey
                0x6033adbe       0x3e ./SysLib/MercuryPlat/release/AL36V200_SDK.a(keypad.o)
                0x6033adbe                keypad_getkey
 .text.qyy_reg_key_short_cb
                0x6033adfc       0x10 ./SysLib/MercuryPlat/release/AL36V200_SDK.a(keypad.o)
                0x6033adfc                qyy_reg_key_short_cb
 .text.qyy_reg_key_long_cb
                0x6033ae0c       0x18 ./SysLib/MercuryPlat/release/AL36V200_SDK.a(keypad.o)
                0x6033ae0c                qyy_reg_key_long_cb
 .text.qyy_reg_key_double_cb
                0x6033ae24       0x10 ./SysLib/MercuryPlat/release/AL36V200_SDK.a(keypad.o)
                0x6033ae24                qyy_reg_key_double_cb
 .text.qyy_register_key_short_press_cb
                0x6033ae34       0x3c ./SysLib/MercuryPlat/release/AL36V200_SDK.a(keypad.o)
                0x6033ae34                qyy_register_key_short_press_cb
 .text.qyy_register_key_long_press_cb
                0x6033ae70       0x48 ./SysLib/MercuryPlat/release/AL36V200_SDK.a(keypad.o)
                0x6033ae70                qyy_register_key_long_press_cb
 .text.keypad_start_shortpress_time
                0x6033aeb8       0x54 ./SysLib/MercuryPlat/release/AL36V200_SDK.a(keypad.o)
                0x6033aeb8                keypad_start_shortpress_time
 .text.keypad_start_dbclick_time
                0x6033af0c       0x54 ./SysLib/MercuryPlat/release/AL36V200_SDK.a(keypad.o)
                0x6033af0c                keypad_start_dbclick_time
 .text.keypad_stop_timer
                0x6033af60       0x30 ./SysLib/MercuryPlat/release/AL36V200_SDK.a(keypad.o)
                0x6033af60                keypad_stop_timer
 .text.isBothLongPressed
                0x6033af90       0x1c ./SysLib/MercuryPlat/release/AL36V200_SDK.a(keypad.o)
                0x6033af90                isBothLongPressed
 .text.qyy_keypad_scan_handle
                0x6033afac      0x22c ./SysLib/MercuryPlat/release/AL36V200_SDK.a(keypad.o)
                0x6033afac                qyy_keypad_scan_handle
 .rodata.keypad_start_dbclick_time.str1.1
                0x6033b1d8        0xf ./SysLib/MercuryPlat/release/AL36V200_SDK.a(keypad.o)
 .rodata.keypad_start_shortpress_time.str1.1
                0x6033b1e7       0x12 ./SysLib/MercuryPlat/release/AL36V200_SDK.a(keypad.o)
 .text          0x6033b1f9        0x0 ./SysLib/MercuryPlat/release/AL36V200_SDK.a(lcddrv.o)
 *fill*         0x6033b1f9        0x1 
 .text._uc1617sSleepIn
                0x6033b1fa        0x2 ./SysLib/MercuryPlat/release/AL36V200_SDK.a(lcddrv.o)
 .text._uc1617sEsdCheck
                0x6033b1fc        0x2 ./SysLib/MercuryPlat/release/AL36V200_SDK.a(lcddrv.o)
 .text._uc1617sSetDisplayWindow
                0x6033b1fe        0x2 ./SysLib/MercuryPlat/release/AL36V200_SDK.a(lcddrv.o)
 .text._uc1617sRotationInvalidateRect
                0x6033b200        0x2 ./SysLib/MercuryPlat/release/AL36V200_SDK.a(lcddrv.o)
 .text._uc1617sSetDirection
                0x6033b202        0x2 ./SysLib/MercuryPlat/release/AL36V200_SDK.a(lcddrv.o)
 .text._uc1617sReadId
                0x6033b204        0x6 ./SysLib/MercuryPlat/release/AL36V200_SDK.a(lcddrv.o)
 .text._uc1617sInvalidateRect
                0x6033b20a        0x2 ./SysLib/MercuryPlat/release/AL36V200_SDK.a(lcddrv.o)
 .text._uc1617sInvalidate
                0x6033b20c        0x2 ./SysLib/MercuryPlat/release/AL36V200_SDK.a(lcddrv.o)
 .text._uc1617sClose
                0x6033b20e        0x2 ./SysLib/MercuryPlat/release/AL36V200_SDK.a(lcddrv.o)
 .text._set_point
                0x6033b210       0x40 ./SysLib/MercuryPlat/release/AL36V200_SDK.a(lcddrv.o)
                0x6033b210                _set_point
 .text._draw_screen
                0x6033b250       0x24 ./SysLib/MercuryPlat/release/AL36V200_SDK.a(lcddrv.o)
                0x6033b250                _draw_screen
 .text._clear_screen
                0x6033b274       0x10 ./SysLib/MercuryPlat/release/AL36V200_SDK.a(lcddrv.o)
                0x6033b274                _clear_screen
 .text._fill_rect
                0x6033b284       0x34 ./SysLib/MercuryPlat/release/AL36V200_SDK.a(lcddrv.o)
                0x6033b284                _fill_rect
 .text._fill_line
                0x6033b2b8       0x22 ./SysLib/MercuryPlat/release/AL36V200_SDK.a(lcddrv.o)
                0x6033b2b8                _fill_line
 .text._set_whole_scr
                0x6033b2da       0x54 ./SysLib/MercuryPlat/release/AL36V200_SDK.a(lcddrv.o)
                0x6033b2da                _set_whole_scr
 .text._uc1617sInit
                0x6033b32e       0x7e ./SysLib/MercuryPlat/release/AL36V200_SDK.a(lcddrv.o)
 .text.lcddrv_init
                0x6033b3ac       0x7c ./SysLib/MercuryPlat/release/AL36V200_SDK.a(lcddrv.o)
                0x6033b3ac                lcddrv_init
 .text.lcddrv_clear_screen
                0x6033b428        0xa ./SysLib/MercuryPlat/release/AL36V200_SDK.a(lcddrv.o)
                0x6033b428                lcddrv_clear_screen
 .text.lcddrv_set_point
                0x6033b432       0x10 ./SysLib/MercuryPlat/release/AL36V200_SDK.a(lcddrv.o)
                0x6033b432                lcddrv_set_point
 *fill*         0x6033b442        0x2 
 .text.lcddrv_fill
                0x6033b444       0x7c ./SysLib/MercuryPlat/release/AL36V200_SDK.a(lcddrv.o)
                0x6033b444                lcddrv_fill
 .text.lcddrv_set_line
                0x6033b4c0       0x12 ./SysLib/MercuryPlat/release/AL36V200_SDK.a(lcddrv.o)
                0x6033b4c0                lcddrv_set_line
 .text.lcddrv_set_matrix
                0x6033b4d2       0x76 ./SysLib/MercuryPlat/release/AL36V200_SDK.a(lcddrv.o)
                0x6033b4d2                lcddrv_set_matrix
 .text.lcddrv_end_paint
                0x6033b548       0x18 ./SysLib/MercuryPlat/release/AL36V200_SDK.a(lcddrv.o)
                0x6033b548                lcddrv_end_paint
 .text.lcddrv_switch_screen_mode
                0x6033b560       0x22 ./SysLib/MercuryPlat/release/AL36V200_SDK.a(lcddrv.o)
                0x6033b560                lcddrv_switch_screen_mode
 *fill*         0x6033b582        0x2 
 .text.lcddrv_set_matrix_mercury
                0x6033b584       0x7c ./SysLib/MercuryPlat/release/AL36V200_SDK.a(lcddrv.o)
                0x6033b584                lcddrv_set_matrix_mercury
 .rodata.g_custlcd_uc1617s
                0x6033b600       0x20 ./SysLib/MercuryPlat/release/AL36V200_SDK.a(lcddrv.o)
                0x6033b600                g_custlcd_uc1617s
 .rodata.uc1617sOperations
                0x6033b620       0x28 ./SysLib/MercuryPlat/release/AL36V200_SDK.a(lcddrv.o)
 .text          0x6033b648        0x0 ./SysLib/MercuryPlat/release/AL36V200_SDK.a(bcs_lcddrv.o)
 .text.mysleep  0x6033b648        0xc ./SysLib/MercuryPlat/release/AL36V200_SDK.a(bcs_lcddrv.o)
                0x6033b648                mysleep
 .text.vk1s56d_command
                0x6033b654       0x7e ./SysLib/MercuryPlat/release/AL36V200_SDK.a(bcs_lcddrv.o)
                0x6033b654                vk1s56d_command
 .text.vk1s56d_dat
                0x6033b6d2       0xb4 ./SysLib/MercuryPlat/release/AL36V200_SDK.a(bcs_lcddrv.o)
                0x6033b6d2                vk1s56d_dat
 *fill*         0x6033b786        0x2 
 .text.LCD_SetALL
                0x6033b788       0x24 ./SysLib/MercuryPlat/release/AL36V200_SDK.a(bcs_lcddrv.o)
                0x6033b788                LCD_SetALL
 .text.LCD_Init
                0x6033b7ac      0x128 ./SysLib/MercuryPlat/release/AL36V200_SDK.a(bcs_lcddrv.o)
                0x6033b7ac                LCD_Init
 .text.LCD_Show
                0x6033b8d4       0x20 ./SysLib/MercuryPlat/release/AL36V200_SDK.a(bcs_lcddrv.o)
                0x6033b8d4                LCD_Show
 .text.LCD_loc_str
                0x6033b8f4       0x60 ./SysLib/MercuryPlat/release/AL36V200_SDK.a(bcs_lcddrv.o)
                0x6033b8f4                LCD_loc_str
 .text.LCD_loc_num
                0x6033b954       0x5c ./SysLib/MercuryPlat/release/AL36V200_SDK.a(bcs_lcddrv.o)
                0x6033b954                LCD_loc_num
 .text.LCD_SET_POINT
                0x6033b9b0       0x58 ./SysLib/MercuryPlat/release/AL36V200_SDK.a(bcs_lcddrv.o)
                0x6033b9b0                LCD_SET_POINT
 .text.LCD_SET_INR
                0x6033ba08       0x18 ./SysLib/MercuryPlat/release/AL36V200_SDK.a(bcs_lcddrv.o)
                0x6033ba08                LCD_SET_INR
 .text.LCD_ALLIN
                0x6033ba20       0x20 ./SysLib/MercuryPlat/release/AL36V200_SDK.a(bcs_lcddrv.o)
                0x6033ba20                LCD_ALLIN
 .text.LCD_BATTERY
                0x6033ba40       0x18 ./SysLib/MercuryPlat/release/AL36V200_SDK.a(bcs_lcddrv.o)
                0x6033ba40                LCD_BATTERY
 .text.LCD_SET_ICON
                0x6033ba58       0x58 ./SysLib/MercuryPlat/release/AL36V200_SDK.a(bcs_lcddrv.o)
                0x6033ba58                LCD_SET_ICON
 .text.LCD_SHOW_CHARACTER
                0x6033bab0       0x8c ./SysLib/MercuryPlat/release/AL36V200_SDK.a(bcs_lcddrv.o)
                0x6033bab0                LCD_SHOW_CHARACTER
 .text.LCD_SHOW_AUTH_CODE
                0x6033bb3c       0x6a ./SysLib/MercuryPlat/release/AL36V200_SDK.a(bcs_lcddrv.o)
                0x6033bb3c                LCD_SHOW_AUTH_CODE
 *fill*         0x6033bba6        0x2 
 .text.LCD_SHOW_NUM
                0x6033bba8      0x130 ./SysLib/MercuryPlat/release/AL36V200_SDK.a(bcs_lcddrv.o)
                0x6033bba8                LCD_SHOW_NUM
 .rodata.bcs_mapTable
                0x6033bcd8      0x2e8 ./SysLib/MercuryPlat/release/AL36V200_SDK.a(bcs_lcddrv.o)
                0x6033bcd8                bcs_mapTable
 .rodata.num2asc
                0x6033bfc0       0x10 ./SysLib/MercuryPlat/release/AL36V200_SDK.a(bcs_lcddrv.o)
                0x6033bfc0                num2asc
 .rodata.str1.1
                0x6033bfd0        0xe ./SysLib/MercuryPlat/release/AL36V200_SDK.a(bcs_lcddrv.o)
                                 0x7c (size before relaxing)
 .text          0x6033bfde        0x0 ./SysLib/MercuryPlat/release/AL36V200_SDK.a(http.o)
 .text.on_status_cb
                0x6033bfde        0xa ./SysLib/MercuryPlat/release/AL36V200_SDK.a(http.o)
 .text.on_download_file_cb
                0x6033bfe8       0x2c ./SysLib/MercuryPlat/release/AL36V200_SDK.a(http.o)
 .text._strdup  0x6033c014       0x24 ./SysLib/MercuryPlat/release/AL36V200_SDK.a(http.o)
 .text._field_value_malloc
                0x6033c038       0x76 ./SysLib/MercuryPlat/release/AL36V200_SDK.a(http.o)
 .text.on_header_value_cb
                0x6033c0ae       0x2e ./SysLib/MercuryPlat/release/AL36V200_SDK.a(http.o)
 .text.on_body_cb
                0x6033c0dc       0x4e ./SysLib/MercuryPlat/release/AL36V200_SDK.a(http.o)
 *fill*         0x6033c12a        0x2 
 .text.http_read_write
                0x6033c12c       0xc8 ./SysLib/MercuryPlat/release/AL36V200_SDK.a(http.o)
 .text.on_message_complete_cb
                0x6033c1f4        0x4 ./SysLib/MercuryPlat/release/AL36V200_SDK.a(http.o)
 .text.Mercury_strcasecmp
                0x6033c1f8       0x40 ./SysLib/MercuryPlat/release/AL36V200_SDK.a(http.o)
                0x6033c1f8                Mercury_strcasecmp
 .text.parser_field_value
                0x6033c238       0x70 ./SysLib/MercuryPlat/release/AL36V200_SDK.a(http.o)
 .text.on_headers_complete_cb
                0x6033c2a8       0x3a ./SysLib/MercuryPlat/release/AL36V200_SDK.a(http.o)
 .text.on_header_field_cb
                0x6033c2e2       0x3e ./SysLib/MercuryPlat/release/AL36V200_SDK.a(http.o)
 .text.Mercury_strncasecmp
                0x6033c320       0x48 ./SysLib/MercuryPlat/release/AL36V200_SDK.a(http.o)
                0x6033c320                Mercury_strncasecmp
 .text.ft_http_init
                0x6033c368        0x4 ./SysLib/MercuryPlat/release/AL36V200_SDK.a(http.o)
                0x6033c368                ft_http_init
 .text.dl_http_set_type_head
                0x6033c36c        0x6 ./SysLib/MercuryPlat/release/AL36V200_SDK.a(http.o)
                0x6033c36c                dl_http_set_type_head
 .text.ft_http_deinit
                0x6033c372        0x2 ./SysLib/MercuryPlat/release/AL36V200_SDK.a(http.o)
                0x6033c372                ft_http_deinit
 .text.ft_http_new
                0x6033c374       0x12 ./SysLib/MercuryPlat/release/AL36V200_SDK.a(http.o)
                0x6033c374                ft_http_new
 .text.ft_http_destroy
                0x6033c386       0x70 ./SysLib/MercuryPlat/release/AL36V200_SDK.a(http.o)
                0x6033c386                ft_http_destroy
 .text.ft_http_get_error_code
                0x6033c3f6        0xe ./SysLib/MercuryPlat/release/AL36V200_SDK.a(http.o)
                0x6033c3f6                ft_http_get_error_code
 .text.ft_http_get_status_code
                0x6033c404        0xe ./SysLib/MercuryPlat/release/AL36V200_SDK.a(http.o)
                0x6033c404                ft_http_get_status_code
 .text.ft_http_set_timeout
                0x6033c412       0x16 ./SysLib/MercuryPlat/release/AL36V200_SDK.a(http.o)
                0x6033c412                ft_http_set_timeout
 .text.http_internal_sync_request
                0x6033c428      0x440 ./SysLib/MercuryPlat/release/AL36V200_SDK.a(http.o)
                0x6033c428                http_internal_sync_request
 .text.ft_http_sync_request
                0x6033c868       0x2c ./SysLib/MercuryPlat/release/AL36V200_SDK.a(http.o)
                0x6033c868                ft_http_sync_request
 .text.ft_http_sync_post_file
                0x6033c894        0x4 ./SysLib/MercuryPlat/release/AL36V200_SDK.a(http.o)
                0x6033c894                ft_http_sync_post_file
 .text.ft_http_sync_download_file
                0x6033c898       0x78 ./SysLib/MercuryPlat/release/AL36V200_SDK.a(http.o)
                0x6033c898                ft_http_sync_download_file
 .text.ft_http_cancel_request
                0x6033c910       0x1a ./SysLib/MercuryPlat/release/AL36V200_SDK.a(http.o)
                0x6033c910                ft_http_cancel_request
 .text.ft_http_wait_done
                0x6033c92a        0x4 ./SysLib/MercuryPlat/release/AL36V200_SDK.a(http.o)
                0x6033c92a                ft_http_wait_done
 .text.ft_http_exit
                0x6033c92e       0x12 ./SysLib/MercuryPlat/release/AL36V200_SDK.a(http.o)
                0x6033c92e                ft_http_exit
 .text.ft_http_set_data_recv_cb
                0x6033c940        0xa ./SysLib/MercuryPlat/release/AL36V200_SDK.a(http.o)
                0x6033c940                ft_http_set_data_recv_cb
 .rodata.http_internal_sync_request.str1.1
                0x6033c94a       0xf3 ./SysLib/MercuryPlat/release/AL36V200_SDK.a(http.o)
                                 0xfa (size before relaxing)
 *fill*         0x6033ca3d        0x3 
 .rodata.kSelectError
                0x6033ca40        0x4 ./SysLib/MercuryPlat/release/AL36V200_SDK.a(http.o)
                0x6033ca40                kSelectError
 .rodata.kSelectRead
                0x6033ca44        0x4 ./SysLib/MercuryPlat/release/AL36V200_SDK.a(http.o)
                0x6033ca44                kSelectRead
 .rodata.kSelectWrite
                0x6033ca48        0x4 ./SysLib/MercuryPlat/release/AL36V200_SDK.a(http.o)
                0x6033ca48                kSelectWrite
 .rodata.parser_field_value.str1.1
                0x6033ca4c        0x9 ./SysLib/MercuryPlat/release/AL36V200_SDK.a(http.o)
                                 0x18 (size before relaxing)
 .text          0x6033ca55        0x0 ./SysLib/MercuryPlat/release/AL36V200_SDK.a(http_parser.o)
 *fill*         0x6033ca55        0x3 
 .text.parse_url_char
                0x6033ca58      0x15c ./SysLib/MercuryPlat/release/AL36V200_SDK.a(http_parser.o)
 .text.http_message_needs_eof
                0x6033cbb4       0x3a ./SysLib/MercuryPlat/release/AL36V200_SDK.a(http_parser.o)
                0x6033cbb4                http_message_needs_eof
 .text.http_should_keep_alive
                0x6033cbee       0x2e ./SysLib/MercuryPlat/release/AL36V200_SDK.a(http_parser.o)
                0x6033cbee                http_should_keep_alive
 *fill*         0x6033cc1c        0x4 
 .text.http_parser_execute
                0x6033cc20     0x14f4 ./SysLib/MercuryPlat/release/AL36V200_SDK.a(http_parser.o)
                0x6033cc20                http_parser_execute
 .text.http_method_str
                0x6033e114       0x18 ./SysLib/MercuryPlat/release/AL36V200_SDK.a(http_parser.o)
                0x6033e114                http_method_str
 .text.http_parser_init
                0x6033e12c       0x3c ./SysLib/MercuryPlat/release/AL36V200_SDK.a(http_parser.o)
                0x6033e12c                http_parser_init
 .text.http_parser_settings_init
                0x6033e168        0x8 ./SysLib/MercuryPlat/release/AL36V200_SDK.a(http_parser.o)
                0x6033e168                http_parser_settings_init
 .text.http_errno_name
                0x6033e170        0xc ./SysLib/MercuryPlat/release/AL36V200_SDK.a(http_parser.o)
                0x6033e170                http_errno_name
 .text.http_errno_description
                0x6033e17c       0x10 ./SysLib/MercuryPlat/release/AL36V200_SDK.a(http_parser.o)
                0x6033e17c                http_errno_description
 .text.http_parser_parse_url
                0x6033e18c      0x2b0 ./SysLib/MercuryPlat/release/AL36V200_SDK.a(http_parser.o)
                0x6033e18c                http_parser_parse_url
 .text.http_parser_pause
                0x6033e43c       0x1e ./SysLib/MercuryPlat/release/AL36V200_SDK.a(http_parser.o)
                0x6033e43c                http_parser_pause
 .text.http_body_is_final
                0x6033e45a       0x10 ./SysLib/MercuryPlat/release/AL36V200_SDK.a(http_parser.o)
                0x6033e45a                http_body_is_final
 *fill*         0x6033e46a        0x2 
 .text.http_parser_version
                0x6033e46c        0x8 ./SysLib/MercuryPlat/release/AL36V200_SDK.a(http_parser.o)
                0x6033e46c                http_parser_version
 .rodata.http_method_str.str1.1
                0x6033e474        0xa ./SysLib/MercuryPlat/release/AL36V200_SDK.a(http_parser.o)
 .rodata.http_parser_execute.str1.1
                0x6033e47e       0x48 ./SysLib/MercuryPlat/release/AL36V200_SDK.a(http_parser.o)
                                 0x5e (size before relaxing)
 *fill*         0x6033e4c6        0x2 
 .rodata.http_strerror_tab
                0x6033e4c8      0x100 ./SysLib/MercuryPlat/release/AL36V200_SDK.a(http_parser.o)
 .rodata.method_strings
                0x6033e5c8       0x7c ./SysLib/MercuryPlat/release/AL36V200_SDK.a(http_parser.o)
 .rodata.normal_url_char
                0x6033e644       0x20 ./SysLib/MercuryPlat/release/AL36V200_SDK.a(http_parser.o)
 .rodata.str1.1
                0x6033e664      0x69e ./SysLib/MercuryPlat/release/AL36V200_SDK.a(http_parser.o)
                                0x6c7 (size before relaxing)
 .rodata.tokens
                0x6033ed02      0x100 ./SysLib/MercuryPlat/release/AL36V200_SDK.a(http_parser.o)
 .rodata.unhex  0x6033ee02      0x100 ./SysLib/MercuryPlat/release/AL36V200_SDK.a(http_parser.o)
 .text          0x6033ef02        0x0 ./SysLib/MercuryPlat/release/AL36V200_SDK.a(http_post.o)
 .text.strstr_t
                0x6033ef02       0x28 ./SysLib/MercuryPlat/release/AL36V200_SDK.a(http_post.o)
 .text.http_find_header_value
                0x6033ef2a       0x36 ./SysLib/MercuryPlat/release/AL36V200_SDK.a(http_post.o)
 .text.http_post_recv
                0x6033ef60       0x40 ./SysLib/MercuryPlat/release/AL36V200_SDK.a(http_post.o)
 .text.http_post_recv_chunked_len
                0x6033efa0       0xe4 ./SysLib/MercuryPlat/release/AL36V200_SDK.a(http_post.o)
 .text.http_post_send.constprop.4
                0x6033f084       0x3e ./SysLib/MercuryPlat/release/AL36V200_SDK.a(http_post.o)
 *fill*         0x6033f0c2        0x2 
 .text._inner_qyy_http_reqest
                0x6033f0c4      0x45c ./SysLib/MercuryPlat/release/AL36V200_SDK.a(http_post.o)
                0x6033f0c4                _inner_qyy_http_reqest
 .text._qyy_http_reqest
                0x6033f520       0x72 ./SysLib/MercuryPlat/release/AL36V200_SDK.a(http_post.o)
                0x6033f520                _qyy_http_reqest
 *fill*         0x6033f592        0x2 
 .text.qyy_http_recv_handle
                0x6033f594      0x214 ./SysLib/MercuryPlat/release/AL36V200_SDK.a(http_post.o)
                0x6033f594                qyy_http_recv_handle
 .text.qyy_http_process_header
                0x6033f7a8      0x18c ./SysLib/MercuryPlat/release/AL36V200_SDK.a(http_post.o)
                0x6033f7a8                qyy_http_process_header
 .text.qyy_http_reqest_range
                0x6033f934      0x194 ./SysLib/MercuryPlat/release/AL36V200_SDK.a(http_post.o)
                0x6033f934                qyy_http_reqest_range
 .text.qyy_http_post
                0x6033fac8       0x30 ./SysLib/MercuryPlat/release/AL36V200_SDK.a(http_post.o)
                0x6033fac8                qyy_http_post
 .text.qyy_http_post_auto
                0x6033faf8       0x9c ./SysLib/MercuryPlat/release/AL36V200_SDK.a(http_post.o)
                0x6033faf8                qyy_http_post_auto
 .text.qyy_http_get
                0x6033fb94       0x80 ./SysLib/MercuryPlat/release/AL36V200_SDK.a(http_post.o)
                0x6033fb94                qyy_http_get
 .text.qyy_http_get_length
                0x6033fc14      0x214 ./SysLib/MercuryPlat/release/AL36V200_SDK.a(http_post.o)
                0x6033fc14                qyy_http_get_length
 .text.qyy_http_get_range
                0x6033fe28       0x2e ./SysLib/MercuryPlat/release/AL36V200_SDK.a(http_post.o)
                0x6033fe28                qyy_http_get_range
 *fill*         0x6033fe56        0x2 
 .text.qyy_http_init
                0x6033fe58       0x14 ./SysLib/MercuryPlat/release/AL36V200_SDK.a(http_post.o)
                0x6033fe58                qyy_http_init
 .rodata._inner_qyy_http_reqest.str1.1
                0x6033fe6c       0xa6 ./SysLib/MercuryPlat/release/AL36V200_SDK.a(http_post.o)
                                0x105 (size before relaxing)
 .rodata.qyy_http_get_length.str1.1
                0x6033ff12       0x28 ./SysLib/MercuryPlat/release/AL36V200_SDK.a(http_post.o)
 .rodata.qyy_http_process_header.str1.1
                0x6033ff3a        0x6 ./SysLib/MercuryPlat/release/AL36V200_SDK.a(http_post.o)
 .rodata.qyy_http_recv_handle.str1.1
                0x6033ff3a        0xf ./SysLib/MercuryPlat/release/AL36V200_SDK.a(http_post.o)
 .rodata.qyy_http_reqest_range.str1.1
                0x6033ff3a       0x15 ./SysLib/MercuryPlat/release/AL36V200_SDK.a(http_post.o)
 .text          0x6033ff4f        0x0 ./SysLib/MercuryPlat/release/AL36V200_SDK.a(cjson.o)
 *fill*         0x6033ff4f        0x1 
 .text.parse_hex4
                0x6033ff50       0xac ./SysLib/MercuryPlat/release/AL36V200_SDK.a(cjson.o)
 .text.skip     0x6033fffc       0x12 ./SysLib/MercuryPlat/release/AL36V200_SDK.a(cjson.o)
 *fill*         0x6034000e        0x2 
 .text.parse_string
                0x60340010      0x1a4 ./SysLib/MercuryPlat/release/AL36V200_SDK.a(cjson.o)
 .text.cJSON_New_Item
                0x603401b4       0x1a ./SysLib/MercuryPlat/release/AL36V200_SDK.a(cjson.o)
 .text.cJSON_strdup
                0x603401ce       0x22 ./SysLib/MercuryPlat/release/AL36V200_SDK.a(cjson.o)
 .text.create_reference
                0x603401f0       0x28 ./SysLib/MercuryPlat/release/AL36V200_SDK.a(cjson.o)
 .text.parse_value
                0x60340218      0x260 ./SysLib/MercuryPlat/release/AL36V200_SDK.a(cjson.o)
 .text.print_string_ptr.part.1
                0x60340478       0xd0 ./SysLib/MercuryPlat/release/AL36V200_SDK.a(cjson.o)
 .text.cJSON_strcasecmp
                0x60340548       0x3a ./SysLib/MercuryPlat/release/AL36V200_SDK.a(cjson.o)
 *fill*         0x60340582        0x6 
 .text.print_value
                0x60340588      0x4f4 ./SysLib/MercuryPlat/release/AL36V200_SDK.a(cjson.o)
 .text.cJSON_GetErrorPtr
                0x60340a7c        0xc ./SysLib/MercuryPlat/release/AL36V200_SDK.a(cjson.o)
                0x60340a7c                cJSON_GetErrorPtr
 .text.cJSON_Delete
                0x60340a88       0x38 ./SysLib/MercuryPlat/release/AL36V200_SDK.a(cjson.o)
                0x60340a88                cJSON_Delete
 .text.cJSON_ParseWithOpts
                0x60340ac0       0x68 ./SysLib/MercuryPlat/release/AL36V200_SDK.a(cjson.o)
                0x60340ac0                cJSON_ParseWithOpts
 .text.cJSON_Parse
                0x60340b28        0x8 ./SysLib/MercuryPlat/release/AL36V200_SDK.a(cjson.o)
                0x60340b28                cJSON_Parse
 .text.cJSON_Print
                0x60340b30        0x8 ./SysLib/MercuryPlat/release/AL36V200_SDK.a(cjson.o)
                0x60340b30                cJSON_Print
 .text.cJSON_PrintUnformatted
                0x60340b38        0x8 ./SysLib/MercuryPlat/release/AL36V200_SDK.a(cjson.o)
                0x60340b38                cJSON_PrintUnformatted
 .text.cJSON_GetArraySize
                0x60340b40        0xe ./SysLib/MercuryPlat/release/AL36V200_SDK.a(cjson.o)
                0x60340b40                cJSON_GetArraySize
 .text.cJSON_GetArrayItem
                0x60340b4e       0x10 ./SysLib/MercuryPlat/release/AL36V200_SDK.a(cjson.o)
                0x60340b4e                cJSON_GetArrayItem
 .text.cJSON_GetObjectItem
                0x60340b5e       0x1a ./SysLib/MercuryPlat/release/AL36V200_SDK.a(cjson.o)
                0x60340b5e                cJSON_GetObjectItem
 .text.cJSON_AddItemToArray
                0x60340b78       0x18 ./SysLib/MercuryPlat/release/AL36V200_SDK.a(cjson.o)
                0x60340b78                cJSON_AddItemToArray
 .text.cJSON_AddItemToObject
                0x60340b90       0x28 ./SysLib/MercuryPlat/release/AL36V200_SDK.a(cjson.o)
                0x60340b90                cJSON_AddItemToObject
 .text.cJSON_AddItemReferenceToArray
                0x60340bb8       0x16 ./SysLib/MercuryPlat/release/AL36V200_SDK.a(cjson.o)
                0x60340bb8                cJSON_AddItemReferenceToArray
 .text.cJSON_AddItemReferenceToObject
                0x60340bce       0x1a ./SysLib/MercuryPlat/release/AL36V200_SDK.a(cjson.o)
                0x60340bce                cJSON_AddItemReferenceToObject
 .text.cJSON_DetachItemFromArray
                0x60340be8       0x30 ./SysLib/MercuryPlat/release/AL36V200_SDK.a(cjson.o)
                0x60340be8                cJSON_DetachItemFromArray
 .text.cJSON_DeleteItemFromArray
                0x60340c18        0xe ./SysLib/MercuryPlat/release/AL36V200_SDK.a(cjson.o)
                0x60340c18                cJSON_DeleteItemFromArray
 .text.cJSON_DetachItemFromObject
                0x60340c26       0x2c ./SysLib/MercuryPlat/release/AL36V200_SDK.a(cjson.o)
                0x60340c26                cJSON_DetachItemFromObject
 .text.cJSON_DeleteItemFromObject
                0x60340c52        0xe ./SysLib/MercuryPlat/release/AL36V200_SDK.a(cjson.o)
                0x60340c52                cJSON_DeleteItemFromObject
 .text.cJSON_ReplaceItemInArray
                0x60340c60       0x3a ./SysLib/MercuryPlat/release/AL36V200_SDK.a(cjson.o)
                0x60340c60                cJSON_ReplaceItemInArray
 .text.cJSON_ReplaceItemInObject
                0x60340c9a       0x3a ./SysLib/MercuryPlat/release/AL36V200_SDK.a(cjson.o)
                0x60340c9a                cJSON_ReplaceItemInObject
 .text.cJSON_CreateNull
                0x60340cd4        0xe ./SysLib/MercuryPlat/release/AL36V200_SDK.a(cjson.o)
                0x60340cd4                cJSON_CreateNull
 .text.cJSON_CreateTrue
                0x60340ce2        0xe ./SysLib/MercuryPlat/release/AL36V200_SDK.a(cjson.o)
                0x60340ce2                cJSON_CreateTrue
 .text.cJSON_CreateFalse
                0x60340cf0        0xe ./SysLib/MercuryPlat/release/AL36V200_SDK.a(cjson.o)
                0x60340cf0                cJSON_CreateFalse
 .text.cJSON_CreateBool
                0x60340cfe       0x14 ./SysLib/MercuryPlat/release/AL36V200_SDK.a(cjson.o)
                0x60340cfe                cJSON_CreateBool
 .text.cJSON_CreateNumber
                0x60340d12       0x26 ./SysLib/MercuryPlat/release/AL36V200_SDK.a(cjson.o)
                0x60340d12                cJSON_CreateNumber
 .text.cJSON_CreateString
                0x60340d38       0x1c ./SysLib/MercuryPlat/release/AL36V200_SDK.a(cjson.o)
                0x60340d38                cJSON_CreateString
 .text.cJSON_CreateArray
                0x60340d54        0xe ./SysLib/MercuryPlat/release/AL36V200_SDK.a(cjson.o)
                0x60340d54                cJSON_CreateArray
 .text.cJSON_CreateObject
                0x60340d62        0xe ./SysLib/MercuryPlat/release/AL36V200_SDK.a(cjson.o)
                0x60340d62                cJSON_CreateObject
 .text.cJSON_CreateIntArray
                0x60340d70       0x3e ./SysLib/MercuryPlat/release/AL36V200_SDK.a(cjson.o)
                0x60340d70                cJSON_CreateIntArray
 .text.cJSON_CreateFloatArray
                0x60340dae       0x3a ./SysLib/MercuryPlat/release/AL36V200_SDK.a(cjson.o)
                0x60340dae                cJSON_CreateFloatArray
 .text.cJSON_CreateDoubleArray
                0x60340de8       0x36 ./SysLib/MercuryPlat/release/AL36V200_SDK.a(cjson.o)
                0x60340de8                cJSON_CreateDoubleArray
 .text.cJSON_CreateStringArray
                0x60340e1e       0x36 ./SysLib/MercuryPlat/release/AL36V200_SDK.a(cjson.o)
                0x60340e1e                cJSON_CreateStringArray
 .text.cJSON_Duplicate
                0x60340e54       0x78 ./SysLib/MercuryPlat/release/AL36V200_SDK.a(cjson.o)
                0x60340e54                cJSON_Duplicate
 .text.cJSON_Minify
                0x60340ecc       0x90 ./SysLib/MercuryPlat/release/AL36V200_SDK.a(cjson.o)
                0x60340ecc                cJSON_Minify
 .rodata.firstByteMark
                0x60340f5c        0x7 ./SysLib/MercuryPlat/release/AL36V200_SDK.a(cjson.o)
 .rodata.parse_value.str1.1
                0x60340f63       0x10 ./SysLib/MercuryPlat/release/AL36V200_SDK.a(cjson.o)
 .rodata.print_string_ptr.part.1.str1.1
                0x60340f73        0xe ./SysLib/MercuryPlat/release/AL36V200_SDK.a(cjson.o)
 .rodata.print_value.str1.1
                0x60340f81        0xb ./SysLib/MercuryPlat/release/AL36V200_SDK.a(cjson.o)
                                 0x12 (size before relaxing)
 .text          0x60340f8c        0x0 ./SysLib/MercuryPlat/release/AL36V200_SDK.a(utf2gb.o)
 .text.GetUtf8ByteNumForWord
                0x60340f8c       0x12 ./SysLib/MercuryPlat/release/AL36V200_SDK.a(utf2gb.o)
                0x60340f8c                GetUtf8ByteNumForWord
 *fill*         0x60340f9e        0x2 
 .text.SearchCodeTable
                0x60340fa0       0x40 ./SysLib/MercuryPlat/release/AL36V200_SDK.a(utf2gb.o)
                0x60340fa0                SearchCodeTable
 .text.qyy_Utf8ToGb2312
                0x60340fe0       0xc4 ./SysLib/MercuryPlat/release/AL36V200_SDK.a(utf2gb.o)
                0x60340fe0                qyy_Utf8ToGb2312
 .text          0x603410a4        0x0 ./SysLib/MercuryPlat/release/AL36V200_SDK.a(gprs_tcp.o)
 .text.clear_socket_event_map_table
                0x603410a4       0x2c ./SysLib/MercuryPlat/release/AL36V200_SDK.a(gprs_tcp.o)
                0x603410a4                clear_socket_event_map_table
 .text.close_socket_event_map_table
                0x603410d0       0x28 ./SysLib/MercuryPlat/release/AL36V200_SDK.a(gprs_tcp.o)
                0x603410d0                close_socket_event_map_table
 .text.test_socket_map_table
                0x603410f8       0x1c ./SysLib/MercuryPlat/release/AL36V200_SDK.a(gprs_tcp.o)
                0x603410f8                test_socket_map_table
 .text.insert_socket_map_table
                0x60341114       0x34 ./SysLib/MercuryPlat/release/AL36V200_SDK.a(gprs_tcp.o)
                0x60341114                insert_socket_map_table
 .text.remove_socket_map_table
                0x60341148       0x18 ./SysLib/MercuryPlat/release/AL36V200_SDK.a(gprs_tcp.o)
                0x60341148                remove_socket_map_table
 .text.get_socket_map_table
                0x60341160       0x18 ./SysLib/MercuryPlat/release/AL36V200_SDK.a(gprs_tcp.o)
                0x60341160                get_socket_map_table
 .text.get_socket_map_table_by_handle
                0x60341178       0x20 ./SysLib/MercuryPlat/release/AL36V200_SDK.a(gprs_tcp.o)
                0x60341178                get_socket_map_table_by_handle
 .text.gprs_reset
                0x60341198       0x6c ./SysLib/MercuryPlat/release/AL36V200_SDK.a(gprs_tcp.o)
                0x60341198                gprs_reset
 .text.gprs_openpdp
                0x60341204       0x6c ./SysLib/MercuryPlat/release/AL36V200_SDK.a(gprs_tcp.o)
                0x60341204                gprs_openpdp
 .text.gprs_closepdp
                0x60341270       0x70 ./SysLib/MercuryPlat/release/AL36V200_SDK.a(gprs_tcp.o)
                0x60341270                gprs_closepdp
 .text.gprs_attach
                0x603412e0       0x64 ./SysLib/MercuryPlat/release/AL36V200_SDK.a(gprs_tcp.o)
                0x603412e0                gprs_attach
 .text.gprs_network_reconnect
                0x60341344      0x124 ./SysLib/MercuryPlat/release/AL36V200_SDK.a(gprs_tcp.o)
                0x60341344                gprs_network_reconnect
 .text.gprs_init
                0x60341468       0xd0 ./SysLib/MercuryPlat/release/AL36V200_SDK.a(gprs_tcp.o)
                0x60341468                gprs_init
 .text.qyy_get_gprs_network_status
                0x60341538       0x60 ./SysLib/MercuryPlat/release/AL36V200_SDK.a(gprs_tcp.o)
                0x60341538                qyy_get_gprs_network_status
 .text.gprs_network_check
                0x60341598       0x3c ./SysLib/MercuryPlat/release/AL36V200_SDK.a(gprs_tcp.o)
                0x60341598                gprs_network_check
 .text.gprs_socket_create
                0x603415d4       0x38 ./SysLib/MercuryPlat/release/AL36V200_SDK.a(gprs_tcp.o)
                0x603415d4                gprs_socket_create
 .text.inner_gprs_get_socket_status
                0x6034160c       0x36 ./SysLib/MercuryPlat/release/AL36V200_SDK.a(gprs_tcp.o)
                0x6034160c                inner_gprs_get_socket_status
 .text.gprs_get_socket_status
                0x60341642       0x12 ./SysLib/MercuryPlat/release/AL36V200_SDK.a(gprs_tcp.o)
                0x60341642                gprs_get_socket_status
 .text.gprs_recv
                0x60341654       0x64 ./SysLib/MercuryPlat/release/AL36V200_SDK.a(gprs_tcp.o)
                0x60341654                gprs_recv
 .text._gprs_recv_select
                0x603416b8       0x88 ./SysLib/MercuryPlat/release/AL36V200_SDK.a(gprs_tcp.o)
                0x603416b8                _gprs_recv_select
 .text.gprs_nonblock_recv
                0x60341740      0x144 ./SysLib/MercuryPlat/release/AL36V200_SDK.a(gprs_tcp.o)
                0x60341740                gprs_nonblock_recv
 .text.gprs_send
                0x60341884       0x88 ./SysLib/MercuryPlat/release/AL36V200_SDK.a(gprs_tcp.o)
                0x60341884                gprs_send
 .text.gprs_close
                0x6034190c       0x7c ./SysLib/MercuryPlat/release/AL36V200_SDK.a(gprs_tcp.o)
                0x6034190c                gprs_close
 .text.gprs_connect
                0x60341988       0xdc ./SysLib/MercuryPlat/release/AL36V200_SDK.a(gprs_tcp.o)
                0x60341988                gprs_connect
 .text.gprs_hosttoip
                0x60341a64       0x8c ./SysLib/MercuryPlat/release/AL36V200_SDK.a(gprs_tcp.o)
                0x60341a64                gprs_hosttoip
 .text.qyy_power_save
                0x60341af0       0xb0 ./SysLib/MercuryPlat/release/AL36V200_SDK.a(gprs_tcp.o)
                0x60341af0                qyy_power_save
 .rodata.gprs_init.str1.1
                0x60341ba0       0x11 ./SysLib/MercuryPlat/release/AL36V200_SDK.a(gprs_tcp.o)
                                 0x16 (size before relaxing)
 .rodata.gprs_reset.str1.1
                0x60341bb1       0x12 ./SysLib/MercuryPlat/release/AL36V200_SDK.a(gprs_tcp.o)
 .text          0x60341bc3        0x0 ./SysLib/MercuryPlat/release/AL36V200_SDK.a(tcp.o)
 *fill*         0x60341bc3        0x1 
 .text.gprs_init_thread
                0x60341bc4       0x10 ./SysLib/MercuryPlat/release/AL36V200_SDK.a(tcp.o)
                0x60341bc4                gprs_init_thread
 .text.wifi_init_thread
                0x60341bd4       0x10 ./SysLib/MercuryPlat/release/AL36V200_SDK.a(tcp.o)
                0x60341bd4                wifi_init_thread
 .text.kill_wifi_init_thread
                0x60341be4       0x1c ./SysLib/MercuryPlat/release/AL36V200_SDK.a(tcp.o)
                0x60341be4                kill_wifi_init_thread
 .text.qyy_WIFI_ENABLE
                0x60341c00        0xc ./SysLib/MercuryPlat/release/AL36V200_SDK.a(tcp.o)
                0x60341c00                qyy_WIFI_ENABLE
 .text.qyy_set_network_mode
                0x60341c0c       0x1c ./SysLib/MercuryPlat/release/AL36V200_SDK.a(tcp.o)
                0x60341c0c                qyy_set_network_mode
 .text.qyy_get_network_mode
                0x60341c28        0xc ./SysLib/MercuryPlat/release/AL36V200_SDK.a(tcp.o)
                0x60341c28                qyy_get_network_mode
 .text.network_init
                0x60341c34      0x12c ./SysLib/MercuryPlat/release/AL36V200_SDK.a(tcp.o)
                0x60341c34                network_init
 .text.qyy_network_gprs_init
                0x60341d60       0x48 ./SysLib/MercuryPlat/release/AL36V200_SDK.a(tcp.o)
                0x60341d60                qyy_network_gprs_init
 .text.qyy_network_gprs_deinit
                0x60341da8       0x18 ./SysLib/MercuryPlat/release/AL36V200_SDK.a(tcp.o)
                0x60341da8                qyy_network_gprs_deinit
 .text.qyy_network_wifi_init
                0x60341dc0       0x50 ./SysLib/MercuryPlat/release/AL36V200_SDK.a(tcp.o)
                0x60341dc0                qyy_network_wifi_init
 .text.qyy_network_wifi_deinit
                0x60341e10       0x64 ./SysLib/MercuryPlat/release/AL36V200_SDK.a(tcp.o)
                0x60341e10                qyy_network_wifi_deinit
 .text.socket   0x60341e74       0x2c ./SysLib/MercuryPlat/release/AL36V200_SDK.a(tcp.o)
                0x60341e74                socket
 .text.connect  0x60341ea0       0x34 ./SysLib/MercuryPlat/release/AL36V200_SDK.a(tcp.o)
                0x60341ea0                connect
 .text.recv     0x60341ed4       0x30 ./SysLib/MercuryPlat/release/AL36V200_SDK.a(tcp.o)
                0x60341ed4                recv
 .text.send     0x60341f04       0x30 ./SysLib/MercuryPlat/release/AL36V200_SDK.a(tcp.o)
                0x60341f04                send
 .text.close    0x60341f34       0x28 ./SysLib/MercuryPlat/release/AL36V200_SDK.a(tcp.o)
                0x60341f34                close
 .text.hosttoip
                0x60341f5c       0x24 ./SysLib/MercuryPlat/release/AL36V200_SDK.a(tcp.o)
                0x60341f5c                hosttoip
 .text.get_socket_status
                0x60341f80       0x24 ./SysLib/MercuryPlat/release/AL36V200_SDK.a(tcp.o)
                0x60341f80                get_socket_status
 .rodata.network_init.str1.1
                0x60341fa4       0x65 ./SysLib/MercuryPlat/release/AL36V200_SDK.a(tcp.o)
                                 0x77 (size before relaxing)
 .text          0x60342009        0x0 ./SysLib/MercuryPlat/release/AL36V200_SDK.a(wifi_tcp.o)
 *fill*         0x60342009        0x3 
 .text.stop_airkiss
                0x6034200c       0x4c ./SysLib/MercuryPlat/release/AL36V200_SDK.a(wifi_tcp.o)
 .text.wifi_sta_disconn_ap
                0x60342058       0x5c ./SysLib/MercuryPlat/release/AL36V200_SDK.a(wifi_tcp.o)
 .text.wifi_reagain_thread
                0x603420b4      0x184 ./SysLib/MercuryPlat/release/AL36V200_SDK.a(wifi_tcp.o)
                0x603420b4                wifi_reagain_thread
 .text.string_2_int
                0x60342238       0x26 ./SysLib/MercuryPlat/release/AL36V200_SDK.a(wifi_tcp.o)
 *fill*         0x6034225e        0x2 
 .text.S_COM_Read
                0x60342260       0x64 ./SysLib/MercuryPlat/release/AL36V200_SDK.a(wifi_tcp.o)
                0x60342260                S_COM_Read
 .text.getWifiChannel
                0x603422c4       0x34 ./SysLib/MercuryPlat/release/AL36V200_SDK.a(wifi_tcp.o)
                0x603422c4                getWifiChannel
 .text.get_dns_status
                0x603422f8       0x20 ./SysLib/MercuryPlat/release/AL36V200_SDK.a(wifi_tcp.o)
                0x603422f8                get_dns_status
 .text.set_dns_status
                0x60342318       0x24 ./SysLib/MercuryPlat/release/AL36V200_SDK.a(wifi_tcp.o)
                0x60342318                set_dns_status
 .text.get_dns_result
                0x6034233c       0x28 ./SysLib/MercuryPlat/release/AL36V200_SDK.a(wifi_tcp.o)
                0x6034233c                get_dns_result
 .text.set_dns_result
                0x60342364       0x28 ./SysLib/MercuryPlat/release/AL36V200_SDK.a(wifi_tcp.o)
                0x60342364                set_dns_result
 .text.clear_wifi_socket_status
                0x6034238c       0x40 ./SysLib/MercuryPlat/release/AL36V200_SDK.a(wifi_tcp.o)
                0x6034238c                clear_wifi_socket_status
 .text.wifi_uart_set_baud
                0x603423cc       0x1c ./SysLib/MercuryPlat/release/AL36V200_SDK.a(wifi_tcp.o)
                0x603423cc                wifi_uart_set_baud
 .text.flush_wifi_uart
                0x603423e8       0x2e ./SysLib/MercuryPlat/release/AL36V200_SDK.a(wifi_tcp.o)
                0x603423e8                flush_wifi_uart
 .text.flush_wifi_comm_buffer
                0x60342416       0x3a ./SysLib/MercuryPlat/release/AL36V200_SDK.a(wifi_tcp.o)
                0x60342416                flush_wifi_comm_buffer
 .text.wifi_response_process
                0x60342450     0x1360 ./SysLib/MercuryPlat/release/AL36V200_SDK.a(wifi_tcp.o)
                0x60342450                wifi_response_process
 .text.check_AT_ready
                0x603437b0       0x60 ./SysLib/MercuryPlat/release/AL36V200_SDK.a(wifi_tcp.o)
                0x603437b0                check_AT_ready
 .text.check_AT_OK
                0x60343810       0x56 ./SysLib/MercuryPlat/release/AL36V200_SDK.a(wifi_tcp.o)
                0x60343810                check_AT_OK
 *fill*         0x60343866        0x2 
 .text.get_wifi_Version
                0x60343868       0x94 ./SysLib/MercuryPlat/release/AL36V200_SDK.a(wifi_tcp.o)
                0x60343868                get_wifi_Version
 .text.wifi_AT_init
                0x603438fc       0x48 ./SysLib/MercuryPlat/release/AL36V200_SDK.a(wifi_tcp.o)
                0x603438fc                wifi_AT_init
 .text.wifi_set_mode
                0x60343944       0x38 ./SysLib/MercuryPlat/release/AL36V200_SDK.a(wifi_tcp.o)
                0x60343944                wifi_set_mode
 .text.wifi_set_not_autoconn
                0x6034397c       0x24 ./SysLib/MercuryPlat/release/AL36V200_SDK.a(wifi_tcp.o)
                0x6034397c                wifi_set_not_autoconn
 .text.wifi_set_trans_mode
                0x603439a0       0x24 ./SysLib/MercuryPlat/release/AL36V200_SDK.a(wifi_tcp.o)
                0x603439a0                wifi_set_trans_mode
 .text.wifi_set_mux
                0x603439c4       0x20 ./SysLib/MercuryPlat/release/AL36V200_SDK.a(wifi_tcp.o)
                0x603439c4                wifi_set_mux
 .text.wifi_esp8266_set_baud
                0x603439e4       0x20 ./SysLib/MercuryPlat/release/AL36V200_SDK.a(wifi_tcp.o)
                0x603439e4                wifi_esp8266_set_baud
 .text.qyy_abort_airkiss
                0x60343a04       0x28 ./SysLib/MercuryPlat/release/AL36V200_SDK.a(wifi_tcp.o)
                0x60343a04                qyy_abort_airkiss
 .text.qyy_start_airkiss
                0x60343a2c       0xf4 ./SysLib/MercuryPlat/release/AL36V200_SDK.a(wifi_tcp.o)
                0x60343a2c                qyy_start_airkiss
 .text.wifi_init
                0x60343b20      0x1d8 ./SysLib/MercuryPlat/release/AL36V200_SDK.a(wifi_tcp.o)
                0x60343b20                wifi_init
 .text.qyy_get_wifi_init_OK
                0x60343cf8        0xc ./SysLib/MercuryPlat/release/AL36V200_SDK.a(wifi_tcp.o)
                0x60343cf8                qyy_get_wifi_init_OK
 .text.get_wifi_init_OK
                0x60343d04        0xc ./SysLib/MercuryPlat/release/AL36V200_SDK.a(wifi_tcp.o)
                0x60343d04                get_wifi_init_OK
 .text.wifi_socket_create
                0x60343d10       0x50 ./SysLib/MercuryPlat/release/AL36V200_SDK.a(wifi_tcp.o)
                0x60343d10                wifi_socket_create
 .text.wifi_get_socket_status
                0x60343d60       0x38 ./SysLib/MercuryPlat/release/AL36V200_SDK.a(wifi_tcp.o)
                0x60343d60                wifi_get_socket_status
 .text.wifi_connect
                0x60343d98      0x13c ./SysLib/MercuryPlat/release/AL36V200_SDK.a(wifi_tcp.o)
                0x60343d98                wifi_connect
 .text.wifi_recv
                0x60343ed4      0x124 ./SysLib/MercuryPlat/release/AL36V200_SDK.a(wifi_tcp.o)
                0x60343ed4                wifi_recv
 .text.wifi_send
                0x60343ff8      0x184 ./SysLib/MercuryPlat/release/AL36V200_SDK.a(wifi_tcp.o)
                0x60343ff8                wifi_send
 .text.wifi_close
                0x6034417c      0x138 ./SysLib/MercuryPlat/release/AL36V200_SDK.a(wifi_tcp.o)
                0x6034417c                wifi_close
 .text.wifi_hosttoip
                0x603442b4       0xe8 ./SysLib/MercuryPlat/release/AL36V200_SDK.a(wifi_tcp.o)
                0x603442b4                wifi_hosttoip
 .text.qyy_start_connect
                0x6034439c      0x140 ./SysLib/MercuryPlat/release/AL36V200_SDK.a(wifi_tcp.o)
                0x6034439c                qyy_start_connect
 .text.qyy_get_wifi_singnal
                0x603444dc       0xb4 ./SysLib/MercuryPlat/release/AL36V200_SDK.a(wifi_tcp.o)
                0x603444dc                qyy_get_wifi_singnal
 .text.qyy_get_wifi_list
                0x60344590       0x94 ./SysLib/MercuryPlat/release/AL36V200_SDK.a(wifi_tcp.o)
                0x60344590                qyy_get_wifi_list
 .text.urlcode_2_ascii
                0x60344624       0x90 ./SysLib/MercuryPlat/release/AL36V200_SDK.a(wifi_tcp.o)
                0x60344624                urlcode_2_ascii
 .text.qyy_set_wifi_sleep_mode
                0x603446b4       0x94 ./SysLib/MercuryPlat/release/AL36V200_SDK.a(wifi_tcp.o)
                0x603446b4                qyy_set_wifi_sleep_mode
 .text.qyy_wifi_deep_sleep_mode
                0x60344748       0x74 ./SysLib/MercuryPlat/release/AL36V200_SDK.a(wifi_tcp.o)
                0x60344748                qyy_wifi_deep_sleep_mode
 .text.qyy_wifi_wakeup
                0x603447bc       0x48 ./SysLib/MercuryPlat/release/AL36V200_SDK.a(wifi_tcp.o)
                0x603447bc                qyy_wifi_wakeup
 .text.wifi_powersave_thread
                0x60344804       0x68 ./SysLib/MercuryPlat/release/AL36V200_SDK.a(wifi_tcp.o)
                0x60344804                wifi_powersave_thread
 .text.pack_wifi_html
                0x6034486c      0x108 ./SysLib/MercuryPlat/release/AL36V200_SDK.a(wifi_tcp.o)
                0x6034486c                pack_wifi_html
 .text.qyy_start_AP
                0x60344974      0x8f0 ./SysLib/MercuryPlat/release/AL36V200_SDK.a(wifi_tcp.o)
                0x60344974                qyy_start_AP
 .text.qyy_abort_AP
                0x60345264       0x20 ./SysLib/MercuryPlat/release/AL36V200_SDK.a(wifi_tcp.o)
                0x60345264                qyy_abort_AP
 .text.qyy_get_wifi_MAC
                0x60345284       0x80 ./SysLib/MercuryPlat/release/AL36V200_SDK.a(wifi_tcp.o)
                0x60345284                qyy_get_wifi_MAC
 .text.qyy_get_wifi_addr
                0x60345304       0x98 ./SysLib/MercuryPlat/release/AL36V200_SDK.a(wifi_tcp.o)
                0x60345304                qyy_get_wifi_addr
 .text.qyy_set_wifi_sta_disconn_ap
                0x6034539c       0x20 ./SysLib/MercuryPlat/release/AL36V200_SDK.a(wifi_tcp.o)
                0x6034539c                qyy_set_wifi_sta_disconn_ap
 .text.qyy_get_wifi_gateway
                0x603453bc       0x7c ./SysLib/MercuryPlat/release/AL36V200_SDK.a(wifi_tcp.o)
                0x603453bc                qyy_get_wifi_gateway
 .text.qyy_get_wifi_firmware_version
                0x60345438       0x80 ./SysLib/MercuryPlat/release/AL36V200_SDK.a(wifi_tcp.o)
                0x60345438                qyy_get_wifi_firmware_version
 .text.qyy_wifi_ping
                0x603454b8       0xac ./SysLib/MercuryPlat/release/AL36V200_SDK.a(wifi_tcp.o)
                0x603454b8                qyy_wifi_ping
 .text.qyy_wifi_set_dns_server
                0x60345564       0xe8 ./SysLib/MercuryPlat/release/AL36V200_SDK.a(wifi_tcp.o)
                0x60345564                qyy_wifi_set_dns_server
 .text.qyy_set_wifi_mode
                0x6034564c       0x94 ./SysLib/MercuryPlat/release/AL36V200_SDK.a(wifi_tcp.o)
                0x6034564c                qyy_set_wifi_mode
 .text.qyy_get_connected_wifi_singnal
                0x603456e0       0x8c ./SysLib/MercuryPlat/release/AL36V200_SDK.a(wifi_tcp.o)
                0x603456e0                qyy_get_connected_wifi_singnal
 .text.qyy_get_wifi_rssi
                0x6034576c       0x80 ./SysLib/MercuryPlat/release/AL36V200_SDK.a(wifi_tcp.o)
                0x6034576c                qyy_get_wifi_rssi
 .text.qyy_get_wifi_hostname
                0x603457ec       0x7c ./SysLib/MercuryPlat/release/AL36V200_SDK.a(wifi_tcp.o)
                0x603457ec                qyy_get_wifi_hostname
 .text.qyy_set_wifi_hostname
                0x60345868       0x90 ./SysLib/MercuryPlat/release/AL36V200_SDK.a(wifi_tcp.o)
                0x60345868                qyy_set_wifi_hostname
 .text.qyy_wifi_firmware_update
                0x603458f8       0x60 ./SysLib/MercuryPlat/release/AL36V200_SDK.a(wifi_tcp.o)
                0x603458f8                qyy_wifi_firmware_update
 .text.wifi_setpowersavemode
                0x60345958       0x98 ./SysLib/MercuryPlat/release/AL36V200_SDK.a(wifi_tcp.o)
                0x60345958                wifi_setpowersavemode
 .text.wifi_get_ntptime
                0x603459f0      0x15c ./SysLib/MercuryPlat/release/AL36V200_SDK.a(wifi_tcp.o)
                0x603459f0                wifi_get_ntptime
 .rodata        0x60345b4c     0x1030 ./SysLib/MercuryPlat/release/AL36V200_SDK.a(wifi_tcp.o)
 .rodata.get_wifi_Version.str1.1
                0x60346b7c       0x19 ./SysLib/MercuryPlat/release/AL36V200_SDK.a(wifi_tcp.o)
 .rodata.pack_wifi_html.str1.1
                0x60346b95       0x1d ./SysLib/MercuryPlat/release/AL36V200_SDK.a(wifi_tcp.o)
 .rodata.qyy_get_connected_wifi_singnal.str1.1
                0x60346bb2        0xc ./SysLib/MercuryPlat/release/AL36V200_SDK.a(wifi_tcp.o)
 .rodata.qyy_get_wifi_MAC.str1.1
                0x60346bbe        0xb ./SysLib/MercuryPlat/release/AL36V200_SDK.a(wifi_tcp.o)
 .rodata.qyy_get_wifi_gateway.str1.1
                0x60346bc9        0xd ./SysLib/MercuryPlat/release/AL36V200_SDK.a(wifi_tcp.o)
 .rodata.qyy_get_wifi_hostname.str1.1
                0x60346bd6       0x11 ./SysLib/MercuryPlat/release/AL36V200_SDK.a(wifi_tcp.o)
 .rodata.qyy_get_wifi_list.str1.1
                0x60346be7        0xb ./SysLib/MercuryPlat/release/AL36V200_SDK.a(wifi_tcp.o)
 .rodata.qyy_get_wifi_rssi.str1.1
                0x60346bf2       0x10 ./SysLib/MercuryPlat/release/AL36V200_SDK.a(wifi_tcp.o)
 .rodata.qyy_get_wifi_singnal.str1.1
                0x60346c02        0xa ./SysLib/MercuryPlat/release/AL36V200_SDK.a(wifi_tcp.o)
 .rodata.qyy_set_wifi_hostname.str1.1
                0x60346c0c        0xf ./SysLib/MercuryPlat/release/AL36V200_SDK.a(wifi_tcp.o)
 .rodata.qyy_set_wifi_mode.str1.1
                0x60346c1b        0xf ./SysLib/MercuryPlat/release/AL36V200_SDK.a(wifi_tcp.o)
 .rodata.qyy_set_wifi_sleep_mode.str1.1
                0x60346c2a        0xa ./SysLib/MercuryPlat/release/AL36V200_SDK.a(wifi_tcp.o)
 .rodata.qyy_start_AP.str1.1
                0x60346c34      0x17b ./SysLib/MercuryPlat/release/AL36V200_SDK.a(wifi_tcp.o)
                                0x196 (size before relaxing)
 .rodata.qyy_start_airkiss.str1.1
                0x60346daf       0x14 ./SysLib/MercuryPlat/release/AL36V200_SDK.a(wifi_tcp.o)
 .rodata.qyy_start_connect.str1.1
                0x60346dc3       0x26 ./SysLib/MercuryPlat/release/AL36V200_SDK.a(wifi_tcp.o)
 .rodata.qyy_wifi_deep_sleep_mode.str1.1
                0x60346de9       0x15 ./SysLib/MercuryPlat/release/AL36V200_SDK.a(wifi_tcp.o)
 .rodata.qyy_wifi_firmware_update.str1.1
                0x60346dfe        0xe ./SysLib/MercuryPlat/release/AL36V200_SDK.a(wifi_tcp.o)
 .rodata.qyy_wifi_ping.str1.1
                0x60346e0c        0x9 ./SysLib/MercuryPlat/release/AL36V200_SDK.a(wifi_tcp.o)
 .rodata.qyy_wifi_set_dns_server.str1.1
                0x60346e15       0x3a ./SysLib/MercuryPlat/release/AL36V200_SDK.a(wifi_tcp.o)
 .rodata.stop_airkiss.str1.1
                0x60346e4f       0x11 ./SysLib/MercuryPlat/release/AL36V200_SDK.a(wifi_tcp.o)
 .rodata.wifi_close.str1.1
                0x60346e60       0x14 ./SysLib/MercuryPlat/release/AL36V200_SDK.a(wifi_tcp.o)
 .rodata.wifi_connect.str1.1
                0x60346e74       0x35 ./SysLib/MercuryPlat/release/AL36V200_SDK.a(wifi_tcp.o)
                                 0x38 (size before relaxing)
 .rodata.wifi_esp8266_set_baud.str1.1
                0x60346ea9       0x1d ./SysLib/MercuryPlat/release/AL36V200_SDK.a(wifi_tcp.o)
 .rodata.wifi_get_ntptime.str1.1
                0x60346ec6       0x35 ./SysLib/MercuryPlat/release/AL36V200_SDK.a(wifi_tcp.o)
                                 0x3a (size before relaxing)
 .rodata.wifi_hosttoip.str1.1
                0x60346efb       0x17 ./SysLib/MercuryPlat/release/AL36V200_SDK.a(wifi_tcp.o)
                                 0x18 (size before relaxing)
 .rodata.wifi_init.str1.1
                0x60346f12       0x7e ./SysLib/MercuryPlat/release/AL36V200_SDK.a(wifi_tcp.o)
                                 0x83 (size before relaxing)
 .rodata.wifi_reagain_thread.str1.1
                0x60346f90       0x70 ./SysLib/MercuryPlat/release/AL36V200_SDK.a(wifi_tcp.o)
 .rodata.wifi_response_process.str1.1
                0x60347000      0x1f3 ./SysLib/MercuryPlat/release/AL36V200_SDK.a(wifi_tcp.o)
                                0x223 (size before relaxing)
 .rodata.wifi_send.str1.1
                0x603471f3       0x16 ./SysLib/MercuryPlat/release/AL36V200_SDK.a(wifi_tcp.o)
 .rodata.wifi_set_mode.str1.1
                0x60347209        0xe ./SysLib/MercuryPlat/release/AL36V200_SDK.a(wifi_tcp.o)
 .rodata.wifi_sta_disconn_ap.str1.1
                0x60347217        0xb ./SysLib/MercuryPlat/release/AL36V200_SDK.a(wifi_tcp.o)
 .text          0x60347222        0x0 ./SysLib/MercuryPlat/release/AL36V200_SDK.a(amoi_memory.o)
 .text.calloc   0x60347222        0x8 ./SysLib/MercuryPlat/release/AL36V200_SDK.a(amoi_memory.o)
                0x60347222                calloc
 .text.free     0x6034722a        0x4 ./SysLib/MercuryPlat/release/AL36V200_SDK.a(amoi_memory.o)
                0x6034722a                free
 .text.malloc   0x6034722e        0x8 ./SysLib/MercuryPlat/release/AL36V200_SDK.a(amoi_memory.o)
                0x6034722e                malloc
 .text.realloc  0x60347236        0x4 ./SysLib/MercuryPlat/release/AL36V200_SDK.a(amoi_memory.o)
                0x60347236                realloc
 .text          0x6034723a        0x0 ./SysLib/MercuryPlat/release/AL36V200_SDK.a(base64.o)
 *fill*         0x6034723a        0x2 
 .text.mbedtls_base64_encode
                0x6034723c      0x104 ./SysLib/MercuryPlat/release/AL36V200_SDK.a(base64.o)
                0x6034723c                mbedtls_base64_encode
 .text.mbedtls_base64_decode
                0x60347340      0x128 ./SysLib/MercuryPlat/release/AL36V200_SDK.a(base64.o)
                0x60347340                mbedtls_base64_decode
 .rodata.base64_dec_map
                0x60347468       0x80 ./SysLib/MercuryPlat/release/AL36V200_SDK.a(base64.o)
 .rodata.base64_enc_map
                0x603474e8       0x40 ./SysLib/MercuryPlat/release/AL36V200_SDK.a(base64.o)
 .text          0x60347528        0x0 ./SysLib/MercuryPlat/release/AL36V200_SDK.a(md5.o)
 .text.mbedtls_md5_init
                0x60347528        0x8 ./SysLib/MercuryPlat/release/AL36V200_SDK.a(md5.o)
                0x60347528                mbedtls_md5_init
 .text.mbedtls_md5_free
                0x60347530       0x14 ./SysLib/MercuryPlat/release/AL36V200_SDK.a(md5.o)
                0x60347530                mbedtls_md5_free
 .text.mbedtls_md5_clone
                0x60347544        0xa ./SysLib/MercuryPlat/release/AL36V200_SDK.a(md5.o)
                0x60347544                mbedtls_md5_clone
 *fill*         0x6034754e        0x2 
 .text.mbedtls_md5_starts
                0x60347550       0x2c ./SysLib/MercuryPlat/release/AL36V200_SDK.a(md5.o)
                0x60347550                mbedtls_md5_starts
 .text.mbedtls_md5_process
                0x6034757c      0x7ec ./SysLib/MercuryPlat/release/AL36V200_SDK.a(md5.o)
                0x6034757c                mbedtls_md5_process
 .text.mbedtls_md5_update.part.0
                0x60347d68       0x86 ./SysLib/MercuryPlat/release/AL36V200_SDK.a(md5.o)
 .text.mbedtls_md5_update
                0x60347dee        0x8 ./SysLib/MercuryPlat/release/AL36V200_SDK.a(md5.o)
                0x60347dee                mbedtls_md5_update
 *fill*         0x60347df6        0x2 
 .text.mbedtls_md5_finish
                0x60347df8       0xb4 ./SysLib/MercuryPlat/release/AL36V200_SDK.a(md5.o)
                0x60347df8                mbedtls_md5_finish
 .text.mbedtls_md5
                0x60347eac       0x32 ./SysLib/MercuryPlat/release/AL36V200_SDK.a(md5.o)
                0x60347eac                mbedtls_md5
 .rodata.md5_padding
                0x60347ede       0x40 ./SysLib/MercuryPlat/release/AL36V200_SDK.a(md5.o)
 .text          0x60347f1e        0x0 ./SysLib/MercuryPlat/release/AL36V200_SDK.a(sha256.o)
 .text.mbedtls_sha256_init
                0x60347f1e        0x8 ./SysLib/MercuryPlat/release/AL36V200_SDK.a(sha256.o)
                0x60347f1e                mbedtls_sha256_init
 .text.mbedtls_sha256_free
                0x60347f26       0x14 ./SysLib/MercuryPlat/release/AL36V200_SDK.a(sha256.o)
                0x60347f26                mbedtls_sha256_free
 .text.mbedtls_sha256_clone
                0x60347f3a        0xa ./SysLib/MercuryPlat/release/AL36V200_SDK.a(sha256.o)
                0x60347f3a                mbedtls_sha256_clone
 .text.mbedtls_sha256_starts
                0x60347f44       0xa4 ./SysLib/MercuryPlat/release/AL36V200_SDK.a(sha256.o)
                0x60347f44                mbedtls_sha256_starts
 .text.mbedtls_sha256_process
                0x60347fe8      0x6c8 ./SysLib/MercuryPlat/release/AL36V200_SDK.a(sha256.o)
                0x60347fe8                mbedtls_sha256_process
 .text.mbedtls_sha256_update.part.0
                0x603486b0       0x86 ./SysLib/MercuryPlat/release/AL36V200_SDK.a(sha256.o)
 .text.mbedtls_sha256_update
                0x60348736        0x8 ./SysLib/MercuryPlat/release/AL36V200_SDK.a(sha256.o)
                0x60348736                mbedtls_sha256_update
 *fill*         0x6034873e        0x2 
 .text.mbedtls_sha256_finish
                0x60348740      0x104 ./SysLib/MercuryPlat/release/AL36V200_SDK.a(sha256.o)
                0x60348740                mbedtls_sha256_finish
 .text.mbedtls_sha256
                0x60348844       0x36 ./SysLib/MercuryPlat/release/AL36V200_SDK.a(sha256.o)
                0x60348844                mbedtls_sha256
 *fill*         0x6034887a        0x2 
 .rodata.K      0x6034887c      0x100 ./SysLib/MercuryPlat/release/AL36V200_SDK.a(sha256.o)
 .rodata.sha256_padding
                0x6034897c       0x40 ./SysLib/MercuryPlat/release/AL36V200_SDK.a(sha256.o)
 .text          0x603489bc        0x0 ./SysLib/MercuryPlat/release/AL36V200_SDK.a(tls.o)
 .text.my_debug
                0x603489bc        0x2 ./SysLib/MercuryPlat/release/AL36V200_SDK.a(tls.o)
 *fill*         0x603489be        0x2 
 .text.qyy_setx509cer
                0x603489c0       0x40 ./SysLib/MercuryPlat/release/AL36V200_SDK.a(tls.o)
                0x603489c0                qyy_setx509cer
 .text.qyy_setx509_own_cer
                0x60348a00       0x40 ./SysLib/MercuryPlat/release/AL36V200_SDK.a(tls.o)
                0x60348a00                qyy_setx509_own_cer
 .text.qyy_setx509_prikey_index
                0x60348a40       0x14 ./SysLib/MercuryPlat/release/AL36V200_SDK.a(tls.o)
                0x60348a40                qyy_setx509_prikey_index
 .text.qyy_setx509_prikey
                0x60348a54       0x40 ./SysLib/MercuryPlat/release/AL36V200_SDK.a(tls.o)
                0x60348a54                qyy_setx509_prikey
 .text.tcp_is_tls
                0x60348a94       0x28 ./SysLib/MercuryPlat/release/AL36V200_SDK.a(tls.o)
                0x60348a94                tcp_is_tls
 .text.TLS_Init
                0x60348abc      0x34c ./SysLib/MercuryPlat/release/AL36V200_SDK.a(tls.o)
                0x60348abc                TLS_Init
 .text.tls_close
                0x60348e08       0x78 ./SysLib/MercuryPlat/release/AL36V200_SDK.a(tls.o)
                0x60348e08                tls_close
 .text.tls_connect
                0x60348e80       0x18 ./SysLib/MercuryPlat/release/AL36V200_SDK.a(tls.o)
                0x60348e80                tls_connect
 .text.tls_read
                0x60348e98       0x9c ./SysLib/MercuryPlat/release/AL36V200_SDK.a(tls.o)
                0x60348e98                tls_read
 .text.tls_send
                0x60348f34       0x84 ./SysLib/MercuryPlat/release/AL36V200_SDK.a(tls.o)
                0x60348f34                tls_send
 .rodata.TLS_Init.str1.1
                0x60348fb8       0x11 ./SysLib/MercuryPlat/release/AL36V200_SDK.a(tls.o)
 .text          0x60348fc9        0x0 ./SysLib/MercuryPlat/release/AL36V200_SDK.a(x509_crt.o)
 *fill*         0x60348fc9        0x1 
 .text.mbedtls_zeroize
                0x60348fca       0x10 ./SysLib/MercuryPlat/release/AL36V200_SDK.a(x509_crt.o)
 .text.x509_memcasecmp
                0x60348fda       0x30 ./SysLib/MercuryPlat/release/AL36V200_SDK.a(x509_crt.o)
 .text.x509_name_cmp
                0x6034900a       0xa2 ./SysLib/MercuryPlat/release/AL36V200_SDK.a(x509_crt.o)
 .text.x509_check_wildcard
                0x603490ac       0x5a ./SysLib/MercuryPlat/release/AL36V200_SDK.a(x509_crt.o)
 .text.unlikely.x509_get_uid
                0x60349106       0x36 ./SysLib/MercuryPlat/release/AL36V200_SDK.a(x509_crt.o)
 .text.x509_profile_check_key
                0x6034913c       0x44 ./SysLib/MercuryPlat/release/AL36V200_SDK.a(x509_crt.o)
 .text.mbedtls_x509_crt_info
                0x60349180      0x604 ./SysLib/MercuryPlat/release/AL36V200_SDK.a(x509_crt.o)
                0x60349180                mbedtls_x509_crt_info
 .text.mbedtls_x509_crt_verify_info
                0x60349784       0x2c ./SysLib/MercuryPlat/release/AL36V200_SDK.a(x509_crt.o)
                0x60349784                mbedtls_x509_crt_verify_info
 .text.mbedtls_x509_crt_check_key_usage
                0x603497b0       0x3c ./SysLib/MercuryPlat/release/AL36V200_SDK.a(x509_crt.o)
                0x603497b0                mbedtls_x509_crt_check_key_usage
 .text.x509_crt_check_parent
                0x603497ec       0x5a ./SysLib/MercuryPlat/release/AL36V200_SDK.a(x509_crt.o)
 *fill*         0x60349846        0x2 
 .text.mbedtls_x509_crt_check_extended_key_usage
                0x60349848       0x54 ./SysLib/MercuryPlat/release/AL36V200_SDK.a(x509_crt.o)
                0x60349848                mbedtls_x509_crt_check_extended_key_usage
 .text.mbedtls_x509_crt_is_revoked
                0x6034989c       0x3a ./SysLib/MercuryPlat/release/AL36V200_SDK.a(x509_crt.o)
                0x6034989c                mbedtls_x509_crt_is_revoked
 .text.x509_crt_verifycrl.part.7
                0x603498d6      0x10a ./SysLib/MercuryPlat/release/AL36V200_SDK.a(x509_crt.o)
 .text.x509_crt_verify_top
                0x603499e0      0x1b8 ./SysLib/MercuryPlat/release/AL36V200_SDK.a(x509_crt.o)
 .text.x509_crt_verify_child
                0x60349b98      0x208 ./SysLib/MercuryPlat/release/AL36V200_SDK.a(x509_crt.o)
 .text.mbedtls_x509_crt_verify_with_profile
                0x60349da0      0x1a0 ./SysLib/MercuryPlat/release/AL36V200_SDK.a(x509_crt.o)
                0x60349da0                mbedtls_x509_crt_verify_with_profile
 .text.mbedtls_x509_crt_verify
                0x60349f40       0x20 ./SysLib/MercuryPlat/release/AL36V200_SDK.a(x509_crt.o)
                0x60349f40                mbedtls_x509_crt_verify
 .text.mbedtls_x509_crt_init
                0x60349f60        0xa ./SysLib/MercuryPlat/release/AL36V200_SDK.a(x509_crt.o)
                0x60349f60                mbedtls_x509_crt_init
 .text.mbedtls_x509_crt_free
                0x60349f6a       0xba ./SysLib/MercuryPlat/release/AL36V200_SDK.a(x509_crt.o)
                0x60349f6a                mbedtls_x509_crt_free
 .text.mbedtls_x509_crt_parse_der
                0x6034a024      0x62c ./SysLib/MercuryPlat/release/AL36V200_SDK.a(x509_crt.o)
                0x6034a024                mbedtls_x509_crt_parse_der
 .text.mbedtls_x509_crt_parse
                0x6034a650       0xe4 ./SysLib/MercuryPlat/release/AL36V200_SDK.a(x509_crt.o)
                0x6034a650                mbedtls_x509_crt_parse
 .rodata        0x6034a734        0x5 ./SysLib/MercuryPlat/release/AL36V200_SDK.a(x509_crt.o)
 .rodata.mbedtls_x509_crt_info.str1.1
                0x6034a739      0x2a8 ./SysLib/MercuryPlat/release/AL36V200_SDK.a(x509_crt.o)
                                0x2bb (size before relaxing)
 .rodata.mbedtls_x509_crt_parse.str1.1
                0x6034a9e1       0x36 ./SysLib/MercuryPlat/release/AL36V200_SDK.a(x509_crt.o)
 *fill*         0x6034aa17        0x1 
 .rodata.mbedtls_x509_crt_profile_default
                0x6034aa18       0x10 ./SysLib/MercuryPlat/release/AL36V200_SDK.a(x509_crt.o)
                0x6034aa18                mbedtls_x509_crt_profile_default
 .rodata.mbedtls_x509_crt_profile_next
                0x6034aa28       0x10 ./SysLib/MercuryPlat/release/AL36V200_SDK.a(x509_crt.o)
                0x6034aa28                mbedtls_x509_crt_profile_next
 .rodata.mbedtls_x509_crt_profile_suiteb
                0x6034aa38       0x10 ./SysLib/MercuryPlat/release/AL36V200_SDK.a(x509_crt.o)
                0x6034aa38                mbedtls_x509_crt_profile_suiteb
 .rodata.mbedtls_x509_crt_verify_info.str1.1
                0x6034aa48       0x2b ./SysLib/MercuryPlat/release/AL36V200_SDK.a(x509_crt.o)
 .rodata.mbedtls_x509_crt_verify_with_profile.str1.1
                0x6034aa73        0x7 ./SysLib/MercuryPlat/release/AL36V200_SDK.a(x509_crt.o)
 .text          0x6034aa7a        0x0 ./SysLib/MercuryPlat/release/AL36V200_SDK.a(QYY_API_AUDIO.o)
 *fill*         0x6034aa7a        0x2 
 .text.audio_DeQueue
                0x6034aa7c       0xfc ./SysLib/MercuryPlat/release/AL36V200_SDK.a(QYY_API_AUDIO.o)
 .text.audio_complete_callback
                0x6034ab78       0x50 ./SysLib/MercuryPlat/release/AL36V200_SDK.a(QYY_API_AUDIO.o)
                0x6034ab78                audio_complete_callback
 .text.audio_tts_callback
                0x6034abc8       0x24 ./SysLib/MercuryPlat/release/AL36V200_SDK.a(QYY_API_AUDIO.o)
 .text.qyy_PA_ENABLE
                0x6034abec        0x2 ./SysLib/MercuryPlat/release/AL36V200_SDK.a(QYY_API_AUDIO.o)
                0x6034abec                qyy_PA_ENABLE
 .text.qyy_PA_ENABLE2
                0x6034abee        0x8 ./SysLib/MercuryPlat/release/AL36V200_SDK.a(QYY_API_AUDIO.o)
                0x6034abee                qyy_PA_ENABLE2
 .text._qyy_audio_check_full
                0x6034abf6       0x38 ./SysLib/MercuryPlat/release/AL36V200_SDK.a(QYY_API_AUDIO.o)
                0x6034abf6                _qyy_audio_check_full
 .text.audiofile_InitQueue
                0x6034ac2e       0x10 ./SysLib/MercuryPlat/release/AL36V200_SDK.a(QYY_API_AUDIO.o)
                0x6034ac2e                audiofile_InitQueue
 .text.audiofile_QueueEmpty
                0x6034ac3e       0x14 ./SysLib/MercuryPlat/release/AL36V200_SDK.a(QYY_API_AUDIO.o)
                0x6034ac3e                audiofile_QueueEmpty
 *fill*         0x6034ac52        0x2 
 .text.audiofile_EnQueue
                0x6034ac54       0x64 ./SysLib/MercuryPlat/release/AL36V200_SDK.a(QYY_API_AUDIO.o)
                0x6034ac54                audiofile_EnQueue
 .text.audiofile_DeQueue
                0x6034acb8       0x50 ./SysLib/MercuryPlat/release/AL36V200_SDK.a(QYY_API_AUDIO.o)
                0x6034acb8                audiofile_DeQueue
 .text.audio_InitQueue
                0x6034ad08       0x10 ./SysLib/MercuryPlat/release/AL36V200_SDK.a(QYY_API_AUDIO.o)
                0x6034ad08                audio_InitQueue
 .text.audio_QueueEmpty
                0x6034ad18       0x14 ./SysLib/MercuryPlat/release/AL36V200_SDK.a(QYY_API_AUDIO.o)
                0x6034ad18                audio_QueueEmpty
 .text._qyy_audio_stop_playing
                0x6034ad2c       0x64 ./SysLib/MercuryPlat/release/AL36V200_SDK.a(QYY_API_AUDIO.o)
                0x6034ad2c                _qyy_audio_stop_playing
 .text.audio_EnQueue_file
                0x6034ad90       0x48 ./SysLib/MercuryPlat/release/AL36V200_SDK.a(QYY_API_AUDIO.o)
                0x6034ad90                audio_EnQueue_file
 .text.audio_InsertQueue_file
                0x6034add8       0xa4 ./SysLib/MercuryPlat/release/AL36V200_SDK.a(QYY_API_AUDIO.o)
                0x6034add8                audio_InsertQueue_file
 .text.audio_EnQueue_data
                0x6034ae7c       0x58 ./SysLib/MercuryPlat/release/AL36V200_SDK.a(QYY_API_AUDIO.o)
                0x6034ae7c                audio_EnQueue_data
 .text.audio_EnQueue_nv
                0x6034aed4       0x48 ./SysLib/MercuryPlat/release/AL36V200_SDK.a(QYY_API_AUDIO.o)
                0x6034aed4                audio_EnQueue_nv
 .text.audio_EnQueue_tts
                0x6034af1c       0x78 ./SysLib/MercuryPlat/release/AL36V200_SDK.a(QYY_API_AUDIO.o)
                0x6034af1c                audio_EnQueue_tts
 .text.audio_EnQueue_gap
                0x6034af94       0x4c ./SysLib/MercuryPlat/release/AL36V200_SDK.a(QYY_API_AUDIO.o)
                0x6034af94                audio_EnQueue_gap
 .text._audio_get_file_handle
                0x6034afe0       0xc0 ./SysLib/MercuryPlat/release/AL36V200_SDK.a(QYY_API_AUDIO.o)
                0x6034afe0                _audio_get_file_handle
 .text.audio_file_thread
                0x6034b0a0       0x54 ./SysLib/MercuryPlat/release/AL36V200_SDK.a(QYY_API_AUDIO.o)
                0x6034b0a0                audio_file_thread
 .text._audio_play_file
                0x6034b0f4      0x214 ./SysLib/MercuryPlat/release/AL36V200_SDK.a(QYY_API_AUDIO.o)
                0x6034b0f4                _audio_play_file
 .text._audio_play_data
                0x6034b308       0x70 ./SysLib/MercuryPlat/release/AL36V200_SDK.a(QYY_API_AUDIO.o)
                0x6034b308                _audio_play_data
 .text._audio_play_tts
                0x6034b378        0x4 ./SysLib/MercuryPlat/release/AL36V200_SDK.a(QYY_API_AUDIO.o)
                0x6034b378                _audio_play_tts
 .text._audio_play_nv
                0x6034b37c       0x68 ./SysLib/MercuryPlat/release/AL36V200_SDK.a(QYY_API_AUDIO.o)
                0x6034b37c                _audio_play_nv
 .text.audio_play_thread
                0x6034b3e4       0xf4 ./SysLib/MercuryPlat/release/AL36V200_SDK.a(QYY_API_AUDIO.o)
                0x6034b3e4                audio_play_thread
 .text.qyy_audio_init
                0x6034b4d8       0xe0 ./SysLib/MercuryPlat/release/AL36V200_SDK.a(QYY_API_AUDIO.o)
                0x6034b4d8                qyy_audio_init
 .text.qyy_voiceplay
                0x6034b5b8       0x2c ./SysLib/MercuryPlat/release/AL36V200_SDK.a(QYY_API_AUDIO.o)
                0x6034b5b8                qyy_voiceplay
 .text.qyy_audio_play_file
                0x6034b5e4       0x44 ./SysLib/MercuryPlat/release/AL36V200_SDK.a(QYY_API_AUDIO.o)
                0x6034b5e4                qyy_audio_play_file
 .text.qyy_audio_play_data
                0x6034b628       0x30 ./SysLib/MercuryPlat/release/AL36V200_SDK.a(QYY_API_AUDIO.o)
                0x6034b628                qyy_audio_play_data
 .text.qyy_audio_play_nv
                0x6034b658       0x2c ./SysLib/MercuryPlat/release/AL36V200_SDK.a(QYY_API_AUDIO.o)
                0x6034b658                qyy_audio_play_nv
 .text.qyy_audio_play_gap
                0x6034b684       0x24 ./SysLib/MercuryPlat/release/AL36V200_SDK.a(QYY_API_AUDIO.o)
                0x6034b684                qyy_audio_play_gap
 .text.qyy_audio_play_stop
                0x6034b6a8       0x30 ./SysLib/MercuryPlat/release/AL36V200_SDK.a(QYY_API_AUDIO.o)
                0x6034b6a8                qyy_audio_play_stop
 .text.qyy_audio_play_file_sync
                0x6034b6d8       0x4c ./SysLib/MercuryPlat/release/AL36V200_SDK.a(QYY_API_AUDIO.o)
                0x6034b6d8                qyy_audio_play_file_sync
 .text.qyy_audio_play_data_sync
                0x6034b724       0x8c ./SysLib/MercuryPlat/release/AL36V200_SDK.a(QYY_API_AUDIO.o)
                0x6034b724                qyy_audio_play_data_sync
 .text.qyy_audio_playing
                0x6034b7b0        0xc ./SysLib/MercuryPlat/release/AL36V200_SDK.a(QYY_API_AUDIO.o)
                0x6034b7b0                qyy_audio_playing
 .text.qyy_audio_queue_count
                0x6034b7bc       0x30 ./SysLib/MercuryPlat/release/AL36V200_SDK.a(QYY_API_AUDIO.o)
                0x6034b7bc                qyy_audio_queue_count
 .text.qyy_audio_play_array
                0x6034b7ec       0x2e ./SysLib/MercuryPlat/release/AL36V200_SDK.a(QYY_API_AUDIO.o)
                0x6034b7ec                qyy_audio_play_array
 .rodata._audio_get_file_handle.str1.1
                0x6034b81a        0x7 ./SysLib/MercuryPlat/release/AL36V200_SDK.a(QYY_API_AUDIO.o)
                                 0x10 (size before relaxing)
 .rodata.qyy_audio_init.str1.1
                0x6034b81a       0x38 ./SysLib/MercuryPlat/release/AL36V200_SDK.a(QYY_API_AUDIO.o)
 .text          0x6034b852        0x0 ./SysLib/MercuryPlat/release/AL36V200_SDK.a(QYY_API_LED.o)
 .text.qyy_light_control
                0x6034b852       0x3e ./SysLib/MercuryPlat/release/AL36V200_SDK.a(QYY_API_LED.o)
                0x6034b852                qyy_light_control
 .text._blink_control_thread
                0x6034b890       0x40 ./SysLib/MercuryPlat/release/AL36V200_SDK.a(QYY_API_LED.o)
                0x6034b890                _blink_control_thread
 .text.qyy_blink_control
                0x6034b8d0       0x68 ./SysLib/MercuryPlat/release/AL36V200_SDK.a(QYY_API_LED.o)
                0x6034b8d0                qyy_blink_control
 .text          0x6034b938        0x0 ./SysLib/MercuryPlat/release/AL36V200_SDK.a(QYY_API_MQTT.o)
 .text.handle_to_client
                0x6034b938       0x30 ./SysLib/MercuryPlat/release/AL36V200_SDK.a(QYY_API_MQTT.o)
                0x6034b938                handle_to_client
 .text.qyy_MQTT_connect
                0x6034b968      0x1cc ./SysLib/MercuryPlat/release/AL36V200_SDK.a(QYY_API_MQTT.o)
                0x6034b968                qyy_MQTT_connect
 .text.MQTT_connect
                0x6034bb34       0x14 ./SysLib/MercuryPlat/release/AL36V200_SDK.a(QYY_API_MQTT.o)
                0x6034bb34                MQTT_connect
 .text.qyy_MQTT_SetDefault_handler
                0x6034bb48       0x1a ./SysLib/MercuryPlat/release/AL36V200_SDK.a(QYY_API_MQTT.o)
                0x6034bb48                qyy_MQTT_SetDefault_handler
 .text.qyy_MQTT_publish
                0x6034bb62       0x34 ./SysLib/MercuryPlat/release/AL36V200_SDK.a(QYY_API_MQTT.o)
                0x6034bb62                qyy_MQTT_publish
 *fill*         0x6034bb96        0x2 
 .text.qyy_MQTT_subcribe
                0x6034bb98       0x30 ./SysLib/MercuryPlat/release/AL36V200_SDK.a(QYY_API_MQTT.o)
                0x6034bb98                qyy_MQTT_subcribe
 .text.qyy_MQTT_unsubcribe
                0x6034bbc8       0x24 ./SysLib/MercuryPlat/release/AL36V200_SDK.a(QYY_API_MQTT.o)
                0x6034bbc8                qyy_MQTT_unsubcribe
 .text.MQTT_close
                0x6034bbec       0x48 ./SysLib/MercuryPlat/release/AL36V200_SDK.a(QYY_API_MQTT.o)
                0x6034bbec                MQTT_close
 .text.qyy_MQTT_close
                0x6034bc34       0x58 ./SysLib/MercuryPlat/release/AL36V200_SDK.a(QYY_API_MQTT.o)
                0x6034bc34                qyy_MQTT_close
 .text.MQTT_yield
                0x6034bc8c       0x34 ./SysLib/MercuryPlat/release/AL36V200_SDK.a(QYY_API_MQTT.o)
                0x6034bc8c                MQTT_yield
 .text.qyy_MQTT_yield
                0x6034bcc0        0x4 ./SysLib/MercuryPlat/release/AL36V200_SDK.a(QYY_API_MQTT.o)
                0x6034bcc0                qyy_MQTT_yield
 .text.change_mqtt_alive_interval
                0x6034bcc4       0x3c ./SysLib/MercuryPlat/release/AL36V200_SDK.a(QYY_API_MQTT.o)
                0x6034bcc4                change_mqtt_alive_interval
 .rodata        0x6034bd00       0x58 ./SysLib/MercuryPlat/release/AL36V200_SDK.a(QYY_API_MQTT.o)
 .rodata.str1.1
                0x6034bd58       0x4b ./SysLib/MercuryPlat/release/AL36V200_SDK.a(QYY_API_MQTT.o)
 .text          0x6034bda3        0x0 ./SysLib/MercuryPlat/release/AL36V200_SDK.a(QYY_API_SYS.o)
 *fill*         0x6034bda3        0x1 
 .text._qyy_ps_notify_default_cb
                0x6034bda4        0x4 ./SysLib/MercuryPlat/release/AL36V200_SDK.a(QYY_API_SYS.o)
 .text.KeyPadProc
                0x6034bda8        0x2 ./SysLib/MercuryPlat/release/AL36V200_SDK.a(QYY_API_SYS.o)
                0x6034bda8                KeyPadProc
 *fill*         0x6034bdaa        0x2 
 .text.MercuryNotifyCallback
                0x6034bdac      0x3a8 ./SysLib/MercuryPlat/release/AL36V200_SDK.a(QYY_API_SYS.o)
 .text.kbd_set_power_short_press
                0x6034c154        0xc ./SysLib/MercuryPlat/release/AL36V200_SDK.a(QYY_API_SYS.o)
                0x6034c154                kbd_set_power_short_press
 .text.kbd_set_power_long_press
                0x6034c160        0xc ./SysLib/MercuryPlat/release/AL36V200_SDK.a(QYY_API_SYS.o)
                0x6034c160                kbd_set_power_long_press
 .text.reg_charger_callback
                0x6034c16c        0xc ./SysLib/MercuryPlat/release/AL36V200_SDK.a(QYY_API_SYS.o)
                0x6034c16c                reg_charger_callback
 .text.qyy_set_log_level
                0x6034c178        0xc ./SysLib/MercuryPlat/release/AL36V200_SDK.a(QYY_API_SYS.o)
                0x6034c178                qyy_set_log_level
 .text.qyy_reg_telephone_callback
                0x6034c184        0xc ./SysLib/MercuryPlat/release/AL36V200_SDK.a(QYY_API_SYS.o)
                0x6034c184                qyy_reg_telephone_callback
 .text.qyy_reg_powerkey_shortpress_callback
                0x6034c190        0xc ./SysLib/MercuryPlat/release/AL36V200_SDK.a(QYY_API_SYS.o)
                0x6034c190                qyy_reg_powerkey_shortpress_callback
 .text.qyy_reg_poweroff_callback
                0x6034c19c        0xc ./SysLib/MercuryPlat/release/AL36V200_SDK.a(QYY_API_SYS.o)
                0x6034c19c                qyy_reg_poweroff_callback
 .text.qyy_reg_tts_complete_callback
                0x6034c1a8        0xc ./SysLib/MercuryPlat/release/AL36V200_SDK.a(QYY_API_SYS.o)
                0x6034c1a8                qyy_reg_tts_complete_callback
 .text.qyy_reg_tts_complete_callback_event
                0x6034c1b4        0xc ./SysLib/MercuryPlat/release/AL36V200_SDK.a(QYY_API_SYS.o)
                0x6034c1b4                qyy_reg_tts_complete_callback_event
 .text.qyy_reg_pcm_complete_callback
                0x6034c1c0        0xc ./SysLib/MercuryPlat/release/AL36V200_SDK.a(QYY_API_SYS.o)
                0x6034c1c0                qyy_reg_pcm_complete_callback
 .text.qyy_reg_amr_complete_callback
                0x6034c1cc        0xc ./SysLib/MercuryPlat/release/AL36V200_SDK.a(QYY_API_SYS.o)
                0x6034c1cc                qyy_reg_amr_complete_callback
 .text.qyy_reg_wav_complete_callback
                0x6034c1d8        0xc ./SysLib/MercuryPlat/release/AL36V200_SDK.a(QYY_API_SYS.o)
                0x6034c1d8                qyy_reg_wav_complete_callback
 .text.qyy_reg_mp3_complete_callback
                0x6034c1e4        0xc ./SysLib/MercuryPlat/release/AL36V200_SDK.a(QYY_API_SYS.o)
                0x6034c1e4                qyy_reg_mp3_complete_callback
 .text.qyy_reg_audio_complete_callback
                0x6034c1f0        0xc ./SysLib/MercuryPlat/release/AL36V200_SDK.a(QYY_API_SYS.o)
                0x6034c1f0                qyy_reg_audio_complete_callback
 .text.reg_dtmf_complete_callback
                0x6034c1fc        0xc ./SysLib/MercuryPlat/release/AL36V200_SDK.a(QYY_API_SYS.o)
                0x6034c1fc                reg_dtmf_complete_callback
 .text.qyy_reg_wifi_scan_callback
                0x6034c208        0xc ./SysLib/MercuryPlat/release/AL36V200_SDK.a(QYY_API_SYS.o)
                0x6034c208                qyy_reg_wifi_scan_callback
 .text.reg_scan_complete_callback
                0x6034c214        0xc ./SysLib/MercuryPlat/release/AL36V200_SDK.a(QYY_API_SYS.o)
                0x6034c214                reg_scan_complete_callback
 .text.qyy_powersave_notify_reg_cb
                0x6034c220       0x20 ./SysLib/MercuryPlat/release/AL36V200_SDK.a(QYY_API_SYS.o)
                0x6034c220                qyy_powersave_notify_reg_cb
 .text.NetInit  0x6034c240        0xa ./SysLib/MercuryPlat/release/AL36V200_SDK.a(QYY_API_SYS.o)
                0x6034c240                NetInit
 *fill*         0x6034c24a        0x2 
 .text.keypadInit
                0x6034c24c       0x24 ./SysLib/MercuryPlat/release/AL36V200_SDK.a(QYY_API_SYS.o)
                0x6034c24c                keypadInit
 .text.at_thread
                0x6034c270       0x28 ./SysLib/MercuryPlat/release/AL36V200_SDK.a(QYY_API_SYS.o)
                0x6034c270                at_thread
 .text.qyy_get_cell_ip
                0x6034c298       0x24 ./SysLib/MercuryPlat/release/AL36V200_SDK.a(QYY_API_SYS.o)
                0x6034c298                qyy_get_cell_ip
 .text.qyy_GET_SDK_VERSION
                0x6034c2bc        0x8 ./SysLib/MercuryPlat/release/AL36V200_SDK.a(QYY_API_SYS.o)
                0x6034c2bc                qyy_GET_SDK_VERSION
 .text.qyy_wifi_power_off
                0x6034c2c4       0x10 ./SysLib/MercuryPlat/release/AL36V200_SDK.a(QYY_API_SYS.o)
                0x6034c2c4                qyy_wifi_power_off
 .text.qyy_wifi_power_on
                0x6034c2d4        0x6 ./SysLib/MercuryPlat/release/AL36V200_SDK.a(QYY_API_SYS.o)
                0x6034c2d4                qyy_wifi_power_on
 *fill*         0x6034c2da        0x2 
 .text.qyy_set_amp_gpio
                0x6034c2dc       0x10 ./SysLib/MercuryPlat/release/AL36V200_SDK.a(QYY_API_SYS.o)
                0x6034c2dc                qyy_set_amp_gpio
 .text.adapt_mercury_version
                0x6034c2ec       0x1c ./SysLib/MercuryPlat/release/AL36V200_SDK.a(QYY_API_SYS.o)
                0x6034c2ec                adapt_mercury_version
 .text.qyy_System_Init
                0x6034c308       0xfc ./SysLib/MercuryPlat/release/AL36V200_SDK.a(QYY_API_SYS.o)
                0x6034c308                qyy_System_Init
 .text.qyy_read_secure_boot_rsa
                0x6034c404       0x10 ./SysLib/MercuryPlat/release/AL36V200_SDK.a(QYY_API_SYS.o)
                0x6034c404                qyy_read_secure_boot_rsa
 .text.qyy_read_secure_boot_state
                0x6034c414        0x4 ./SysLib/MercuryPlat/release/AL36V200_SDK.a(QYY_API_SYS.o)
                0x6034c414                qyy_read_secure_boot_state
 .text.qyy_gprs_set_dns_server
                0x6034c418       0x2e ./SysLib/MercuryPlat/release/AL36V200_SDK.a(QYY_API_SYS.o)
                0x6034c418                qyy_gprs_set_dns_server
 *fill*         0x6034c446        0x2 
 .text.mercury_printf
                0x6034c448       0x40 ./SysLib/MercuryPlat/release/AL36V200_SDK.a(QYY_API_SYS.o)
                0x6034c448                mercury_printf
 .rodata.adapt_mercury_version.str1.1
                0x6034c488       0x13 ./SysLib/MercuryPlat/release/AL36V200_SDK.a(QYY_API_SYS.o)
 .rodata.mercury_printf.str1.1
                0x6034c49b       0x37 ./SysLib/MercuryPlat/release/AL36V200_SDK.a(QYY_API_SYS.o)
 .rodata.qyy_GET_SDK_VERSION.str1.1
                0x6034c4d2       0x31 ./SysLib/MercuryPlat/release/AL36V200_SDK.a(QYY_API_SYS.o)
 .rodata.qyy_System_Init.str1.1
                0x6034c503       0x2d ./SysLib/MercuryPlat/release/AL36V200_SDK.a(QYY_API_SYS.o)
                                 0x48 (size before relaxing)
 .text          0x6034c530        0x0 ./SysLib/MercuryPlat/release/AL36V200_SDK.a(QYY_API_TCP.o)
 .text.qyy_tcp_connect
                0x6034c530       0x44 ./SysLib/MercuryPlat/release/AL36V200_SDK.a(QYY_API_TCP.o)
                0x6034c530                qyy_tcp_connect
 .text.qyy_tcp_recv
                0x6034c574       0x6c ./SysLib/MercuryPlat/release/AL36V200_SDK.a(QYY_API_TCP.o)
                0x6034c574                qyy_tcp_recv
 .text.qyy_tcp_send
                0x6034c5e0       0x64 ./SysLib/MercuryPlat/release/AL36V200_SDK.a(QYY_API_TCP.o)
                0x6034c5e0                qyy_tcp_send
 .text.qyy_tcp_close
                0x6034c644       0x2c ./SysLib/MercuryPlat/release/AL36V200_SDK.a(QYY_API_TCP.o)
                0x6034c644                qyy_tcp_close
 .text.qyy_hosttoip
                0x6034c670        0x4 ./SysLib/MercuryPlat/release/AL36V200_SDK.a(QYY_API_TCP.o)
                0x6034c670                qyy_hosttoip
 .text          0x6034c674        0x0 ./SysLib/MercuryPlat/release/AL36V200_SDK.a(QYY_API_URLEN.o)
 .text.GbkToUnicode
                0x6034c674       0x88 ./SysLib/MercuryPlat/release/AL36V200_SDK.a(QYY_API_URLEN.o)
                0x6034c674                GbkToUnicode
 .text.IsEscapechar
                0x6034c6fc       0x34 ./SysLib/MercuryPlat/release/AL36V200_SDK.a(QYY_API_URLEN.o)
                0x6034c6fc                IsEscapechar
 .text.URIAddEncodedOctetToBuffer
                0x6034c730       0x20 ./SysLib/MercuryPlat/release/AL36V200_SDK.a(QYY_API_URLEN.o)
                0x6034c730                URIAddEncodedOctetToBuffer
 .text.URIEncodeOctets
                0x6034c750       0x38 ./SysLib/MercuryPlat/release/AL36V200_SDK.a(QYY_API_URLEN.o)
                0x6034c750                URIEncodeOctets
 .text.URIEncodeSingle
                0x6034c788       0x4c ./SysLib/MercuryPlat/release/AL36V200_SDK.a(QYY_API_URLEN.o)
                0x6034c788                URIEncodeSingle
 .text.URIEncodePair
                0x6034c7d4       0x4e ./SysLib/MercuryPlat/release/AL36V200_SDK.a(QYY_API_URLEN.o)
                0x6034c7d4                URIEncodePair
 .text.qyy_uri_encode
                0x6034c822       0x70 ./SysLib/MercuryPlat/release/AL36V200_SDK.a(QYY_API_URLEN.o)
                0x6034c822                qyy_uri_encode
 *fill*         0x6034c892        0x2 
 .text.test_convert
                0x6034c894       0x24 ./SysLib/MercuryPlat/release/AL36V200_SDK.a(QYY_API_URLEN.o)
                0x6034c894                test_convert
 .rodata.test_convert.str1.1
                0x6034c8b8        0xd ./SysLib/MercuryPlat/release/AL36V200_SDK.a(QYY_API_URLEN.o)
 *fill*         0x6034c8c5        0x1 
 .rodata.unicodeTables
                0x6034c8c6     0xfac0 ./SysLib/MercuryPlat/release/AL36V200_SDK.a(QYY_API_URLEN.o)
                0x6034c8c6                unicodeTables
 .text          0x6035c386        0x0 ./SysLib/MercuryPlat/release/AL36V200_SDK.a(QYY_API_HMAC.o)
 .text.qyy_hmac_sha1
                0x6035c386       0xc0 ./SysLib/MercuryPlat/release/AL36V200_SDK.a(QYY_API_HMAC.o)
                0x6035c386                qyy_hmac_sha1
 .text          0x6035c446        0x0 ./SysLib/MercuryPlat/release/AL36V200_SDK.a(QYY_API_NTP.o)
 *fill*         0x6035c446        0x2 
 .text.my_localtime_r
                0x6035c448      0x14c ./SysLib/MercuryPlat/release/AL36V200_SDK.a(QYY_API_NTP.o)
                0x6035c448                my_localtime_r
 *fill*         0x6035c594        0x4 
 .text.ntptime_set
                0x6035c598       0x58 ./SysLib/MercuryPlat/release/AL36V200_SDK.a(QYY_API_NTP.o)
                0x6035c598                ntptime_set
 .text.gprs_get_ntptime
                0x6035c5f0       0xac ./SysLib/MercuryPlat/release/AL36V200_SDK.a(QYY_API_NTP.o)
                0x6035c5f0                gprs_get_ntptime
 .text.qyy_get_ntptime
                0x6035c69c       0x1e ./SysLib/MercuryPlat/release/AL36V200_SDK.a(QYY_API_NTP.o)
                0x6035c69c                qyy_get_ntptime
 *fill*         0x6035c6ba        0x2 
 .text.set_string_time
                0x6035c6bc      0x264 ./SysLib/MercuryPlat/release/AL36V200_SDK.a(QYY_API_NTP.o)
                0x6035c6bc                set_string_time
 .rodata.Days.11304
                0x6035c920        0xc ./SysLib/MercuryPlat/release/AL36V200_SDK.a(QYY_API_NTP.o)
 .rodata.gprs_get_ntptime.str1.1
                0x6035c92c       0x2c ./SysLib/MercuryPlat/release/AL36V200_SDK.a(QYY_API_NTP.o)
 .text          0x6035c958        0x0 ./SysLib/MercuryPlat/release/AL36V200_SDK.a(QYY_API_DISPLAY.o)
 .text._char2_unicode_string
                0x6035c958       0x2c ./SysLib/MercuryPlat/release/AL36V200_SDK.a(QYY_API_DISPLAY.o)
                0x6035c958                _char2_unicode_string
 .text.qyy_set_status_bar
                0x6035c984       0x14 ./SysLib/MercuryPlat/release/AL36V200_SDK.a(QYY_API_DISPLAY.o)
                0x6035c984                qyy_set_status_bar
 .text._set_default_icon_pos
                0x6035c998       0x2a ./SysLib/MercuryPlat/release/AL36V200_SDK.a(QYY_API_DISPLAY.o)
                0x6035c998                _set_default_icon_pos
 .text._lcd_draw_matrix
                0x6035c9c2       0x24 ./SysLib/MercuryPlat/release/AL36V200_SDK.a(QYY_API_DISPLAY.o)
                0x6035c9c2                _lcd_draw_matrix
 *fill*         0x6035c9e6        0x2 
 .text.qyy_disp_battery
                0x6035c9e8       0x9c ./SysLib/MercuryPlat/release/AL36V200_SDK.a(QYY_API_DISPLAY.o)
                0x6035c9e8                qyy_disp_battery
 .text.qyy_disp_mobile_signal
                0x6035ca84       0x88 ./SysLib/MercuryPlat/release/AL36V200_SDK.a(QYY_API_DISPLAY.o)
                0x6035ca84                qyy_disp_mobile_signal
 .text.qyy_disp_wifi_signal
                0x6035cb0c       0x7c ./SysLib/MercuryPlat/release/AL36V200_SDK.a(QYY_API_DISPLAY.o)
                0x6035cb0c                qyy_disp_wifi_signal
 .text.qyy_disp_set_params
                0x6035cb88       0x14 ./SysLib/MercuryPlat/release/AL36V200_SDK.a(QYY_API_DISPLAY.o)
                0x6035cb88                qyy_disp_set_params
 .text.qyy_disp_get_params
                0x6035cb9c       0x14 ./SysLib/MercuryPlat/release/AL36V200_SDK.a(QYY_API_DISPLAY.o)
                0x6035cb9c                qyy_disp_get_params
 .text.qyy_disp_set_default_params
                0x6035cbb0       0x20 ./SysLib/MercuryPlat/release/AL36V200_SDK.a(QYY_API_DISPLAY.o)
                0x6035cbb0                qyy_disp_set_default_params
 .text.qyy_disp_clear_screen
                0x6035cbd0       0x26 ./SysLib/MercuryPlat/release/AL36V200_SDK.a(QYY_API_DISPLAY.o)
                0x6035cbd0                qyy_disp_clear_screen
 *fill*         0x6035cbf6        0x2 
 .text.qyy_disp_init
                0x6035cbf8       0x54 ./SysLib/MercuryPlat/release/AL36V200_SDK.a(QYY_API_DISPLAY.o)
                0x6035cbf8                qyy_disp_init
 .text.qyy_disp_clear_area
                0x6035cc4c       0x20 ./SysLib/MercuryPlat/release/AL36V200_SDK.a(QYY_API_DISPLAY.o)
                0x6035cc4c                qyy_disp_clear_area
 .text._internal_disp_line
                0x6035cc6c       0xb8 ./SysLib/MercuryPlat/release/AL36V200_SDK.a(QYY_API_DISPLAY.o)
                0x6035cc6c                _internal_disp_line
 .text.qyy_disp_line
                0x6035cd24        0xe ./SysLib/MercuryPlat/release/AL36V200_SDK.a(QYY_API_DISPLAY.o)
                0x6035cd24                qyy_disp_line
 .text.qyy_disp_line_color
                0x6035cd32       0x10 ./SysLib/MercuryPlat/release/AL36V200_SDK.a(QYY_API_DISPLAY.o)
                0x6035cd32                qyy_disp_line_color
 *fill*         0x6035cd42        0x2 
 .text.qyy_disp_bitmap
                0x6035cd44       0x54 ./SysLib/MercuryPlat/release/AL36V200_SDK.a(QYY_API_DISPLAY.o)
                0x6035cd44                qyy_disp_bitmap
 .text.init_font_lib
                0x6035cd98       0x5c ./SysLib/MercuryPlat/release/AL36V200_SDK.a(QYY_API_DISPLAY.o)
                0x6035cd98                init_font_lib
 .text.uninit_font_lib
                0x6035cdf4       0x1c ./SysLib/MercuryPlat/release/AL36V200_SDK.a(QYY_API_DISPLAY.o)
                0x6035cdf4                uninit_font_lib
 .text._convert_font_dotmatrix
                0x6035ce10       0x5c ./SysLib/MercuryPlat/release/AL36V200_SDK.a(QYY_API_DISPLAY.o)
                0x6035ce10                _convert_font_dotmatrix
 .text._lcd_set_char
                0x6035ce6c      0x138 ./SysLib/MercuryPlat/release/AL36V200_SDK.a(QYY_API_DISPLAY.o)
                0x6035ce6c                _lcd_set_char
 .text.qyy_disp_text
                0x6035cfa4       0x94 ./SysLib/MercuryPlat/release/AL36V200_SDK.a(QYY_API_DISPLAY.o)
                0x6035cfa4                qyy_disp_text
 .text.qyy_disp_text_row
                0x6035d038       0x5c ./SysLib/MercuryPlat/release/AL36V200_SDK.a(QYY_API_DISPLAY.o)
                0x6035d038                qyy_disp_text_row
 .text.qyy_disp_qrcode
                0x6035d094      0x1dc ./SysLib/MercuryPlat/release/AL36V200_SDK.a(QYY_API_DISPLAY.o)
                0x6035d094                qyy_disp_qrcode
 .text.qyy_disp_time
                0x6035d270       0x40 ./SysLib/MercuryPlat/release/AL36V200_SDK.a(QYY_API_DISPLAY.o)
                0x6035d270                qyy_disp_time
 .rodata.battery_0_pixels
                0x6035d2b0       0x40 ./SysLib/MercuryPlat/release/AL36V200_SDK.a(QYY_API_DISPLAY.o)
                0x6035d2b0                battery_0_pixels
 .rodata.battery_1_pixels
                0x6035d2f0       0x40 ./SysLib/MercuryPlat/release/AL36V200_SDK.a(QYY_API_DISPLAY.o)
                0x6035d2f0                battery_1_pixels
 .rodata.battery_2_pixels
                0x6035d330       0x40 ./SysLib/MercuryPlat/release/AL36V200_SDK.a(QYY_API_DISPLAY.o)
                0x6035d330                battery_2_pixels
 .rodata.battery_3_pixels
                0x6035d370       0x40 ./SysLib/MercuryPlat/release/AL36V200_SDK.a(QYY_API_DISPLAY.o)
                0x6035d370                battery_3_pixels
 .rodata.battery_4_pixels
                0x6035d3b0       0x40 ./SysLib/MercuryPlat/release/AL36V200_SDK.a(QYY_API_DISPLAY.o)
                0x6035d3b0                battery_4_pixels
 .rodata.battery_c_pixels
                0x6035d3f0       0x40 ./SysLib/MercuryPlat/release/AL36V200_SDK.a(QYY_API_DISPLAY.o)
                0x6035d3f0                battery_c_pixels
 .rodata.gbkList
                0x6035d430        0xc ./SysLib/MercuryPlat/release/AL36V200_SDK.a(QYY_API_DISPLAY.o)
                0x6035d430                gbkList
 .rodata.qyy_disp_time.str1.1
                0x6035d43c       0x2c ./SysLib/MercuryPlat/release/AL36V200_SDK.a(QYY_API_DISPLAY.o)
                                  0xa (size before relaxing)
 .rodata.rssi_4g_0_pixels
                0x6035d43c       0x20 ./SysLib/MercuryPlat/release/AL36V200_SDK.a(QYY_API_DISPLAY.o)
                0x6035d43c                rssi_4g_0_pixels
 .rodata.rssi_4g_1_pixels
                0x6035d45c       0x20 ./SysLib/MercuryPlat/release/AL36V200_SDK.a(QYY_API_DISPLAY.o)
                0x6035d45c                rssi_4g_1_pixels
 .rodata.rssi_4g_2_pixels
                0x6035d47c       0x20 ./SysLib/MercuryPlat/release/AL36V200_SDK.a(QYY_API_DISPLAY.o)
                0x6035d47c                rssi_4g_2_pixels
 .rodata.rssi_4g_3_pixels
                0x6035d49c       0x20 ./SysLib/MercuryPlat/release/AL36V200_SDK.a(QYY_API_DISPLAY.o)
                0x6035d49c                rssi_4g_3_pixels
 .rodata.rssi_4g_4_pixels
                0x6035d4bc       0x20 ./SysLib/MercuryPlat/release/AL36V200_SDK.a(QYY_API_DISPLAY.o)
                0x6035d4bc                rssi_4g_4_pixels
 .rodata.rssi_wifi_0_pixels
                0x6035d4dc       0x20 ./SysLib/MercuryPlat/release/AL36V200_SDK.a(QYY_API_DISPLAY.o)
                0x6035d4dc                rssi_wifi_0_pixels
 .rodata.rssi_wifi_1_pixels
                0x6035d4fc       0x20 ./SysLib/MercuryPlat/release/AL36V200_SDK.a(QYY_API_DISPLAY.o)
                0x6035d4fc                rssi_wifi_1_pixels
 .rodata.rssi_wifi_2_pixels
                0x6035d51c       0x20 ./SysLib/MercuryPlat/release/AL36V200_SDK.a(QYY_API_DISPLAY.o)
                0x6035d51c                rssi_wifi_2_pixels
 .rodata.rssi_wifi_3_pixels
                0x6035d53c       0x20 ./SysLib/MercuryPlat/release/AL36V200_SDK.a(QYY_API_DISPLAY.o)
                0x6035d53c                rssi_wifi_3_pixels
 .text          0x6035d55c        0x0 ./SysLib/MercuryPlat/release/AL36V200_SDK.a(QYY_API_FS.o)
 .text._CharString2UnicodeString
                0x6035d55c       0x2c ./SysLib/MercuryPlat/release/AL36V200_SDK.a(QYY_API_FS.o)
                0x6035d55c                _CharString2UnicodeString
 .text.qyy_get_flash_usage
                0x6035d588       0x4a ./SysLib/MercuryPlat/release/AL36V200_SDK.a(QYY_API_FS.o)
                0x6035d588                qyy_get_flash_usage
 .text          0x6035d5d2        0x0 ./SysLib/MercuryPlat/release/AL36V200_SDK.a(atthread.o)
 .text.sdk_at_get_appVersion
                0x6035d5d2        0x4 ./SysLib/MercuryPlat/release/AL36V200_SDK.a(atthread.o)
                0x6035d5d2                sdk_at_get_appVersion
 .text.sdk_UsbWrite
                0x6035d5d6       0x1c ./SysLib/MercuryPlat/release/AL36V200_SDK.a(atthread.o)
                0x6035d5d6                sdk_UsbWrite
 *fill*         0x6035d5f2        0x2 
 .text.sdk_at_get_SN
                0x6035d5f4       0x54 ./SysLib/MercuryPlat/release/AL36V200_SDK.a(atthread.o)
                0x6035d5f4                sdk_at_get_SN
 .text.sdk_at_get_simInfo
                0x6035d648       0x88 ./SysLib/MercuryPlat/release/AL36V200_SDK.a(atthread.o)
                0x6035d648                sdk_at_get_simInfo
 .text.sdk_at_get_imei
                0x6035d6d0       0x3c ./SysLib/MercuryPlat/release/AL36V200_SDK.a(atthread.o)
                0x6035d6d0                sdk_at_get_imei
 .text.sdk_at_get_bottomBag_version
                0x6035d70c       0x44 ./SysLib/MercuryPlat/release/AL36V200_SDK.a(atthread.o)
                0x6035d70c                sdk_at_get_bottomBag_version
 .text.sdk_at_get_dev_model
                0x6035d750       0x4c ./SysLib/MercuryPlat/release/AL36V200_SDK.a(atthread.o)
                0x6035d750                sdk_at_get_dev_model
 .text.sdk_at_get_item_num
                0x6035d79c       0x4c ./SysLib/MercuryPlat/release/AL36V200_SDK.a(atthread.o)
                0x6035d79c                sdk_at_get_item_num
 .text.sdk_at_get_battery_level
                0x6035d7e8       0x48 ./SysLib/MercuryPlat/release/AL36V200_SDK.a(atthread.o)
                0x6035d7e8                sdk_at_get_battery_level
 .text.sdk_at_get_appSecureFlag
                0x6035d830       0x3c ./SysLib/MercuryPlat/release/AL36V200_SDK.a(atthread.o)
                0x6035d830                sdk_at_get_appSecureFlag
 .text.sdk_UsbRead
                0x6035d86c       0x1c ./SysLib/MercuryPlat/release/AL36V200_SDK.a(atthread.o)
                0x6035d86c                sdk_UsbRead
 .text.sdk_usb_recv_thread
                0x6035d888      0x124 ./SysLib/MercuryPlat/release/AL36V200_SDK.a(atthread.o)
                0x6035d888                sdk_usb_recv_thread
 .text._sdk_at_thread
                0x6035d9ac        0xa ./SysLib/MercuryPlat/release/AL36V200_SDK.a(atthread.o)
                0x6035d9ac                _sdk_at_thread
 .rodata.sdk_at_get_SN.str1.1
                0x6035d9b6        0x9 ./SysLib/MercuryPlat/release/AL36V200_SDK.a(atthread.o)
 .rodata.sdk_at_get_appSecureFlag.str1.1
                0x6035d9bf       0x14 ./SysLib/MercuryPlat/release/AL36V200_SDK.a(atthread.o)
 .rodata.sdk_at_get_battery_level.str1.1
                0x6035d9d3       0x14 ./SysLib/MercuryPlat/release/AL36V200_SDK.a(atthread.o)
 .rodata.sdk_at_get_bottomBag_version.str1.1
                0x6035d9e7       0x14 ./SysLib/MercuryPlat/release/AL36V200_SDK.a(atthread.o)
                                  0x6 (size before relaxing)
 .rodata.sdk_at_get_dev_model.str1.1
                0x6035d9e7       0x14 ./SysLib/MercuryPlat/release/AL36V200_SDK.a(atthread.o)
 .rodata.sdk_at_get_imei.str1.1
                0x6035d9fb        0xb ./SysLib/MercuryPlat/release/AL36V200_SDK.a(atthread.o)
 .rodata.sdk_at_get_item_num.str1.1
                0x6035da06        0xe ./SysLib/MercuryPlat/release/AL36V200_SDK.a(atthread.o)
 .rodata.sdk_at_get_simInfo.str1.1
                0x6035da14       0x16 ./SysLib/MercuryPlat/release/AL36V200_SDK.a(atthread.o)
 *fill*         0x6035da2a        0x2 
 .rodata.sdk_at_tbl
                0x6035da2c       0x50 ./SysLib/MercuryPlat/release/AL36V200_SDK.a(atthread.o)
 .rodata.sdk_usb_recv_thread.str1.1
                0x6035da7c        0xc ./SysLib/MercuryPlat/release/AL36V200_SDK.a(atthread.o)
                                 0x14 (size before relaxing)
 .rodata.str1.1
                0x6035da88       0x9f ./SysLib/MercuryPlat/release/AL36V200_SDK.a(atthread.o)
 .text          0x6035db27        0x0 ./SysLib/MercuryPlat/release/AL36V200_SDK.a(amp_ctl.o)
 *fill*         0x6035db27        0x1 
 .text.amp_vdd_en
                0x6035db28        0xe ./SysLib/MercuryPlat/release/AL36V200_SDK.a(amp_ctl.o)
                0x6035db28                amp_vdd_en
 *fill*         0x6035db36        0x2 
 .text.amp_enable
                0x6035db38       0x18 ./SysLib/MercuryPlat/release/AL36V200_SDK.a(amp_ctl.o)
                0x6035db38                amp_enable
 .text          0x6035db50        0x0 ./SysLib/MercuryPlat/release/AL36V200_SDK.a(device.o)
 .text.wifi_power_off
                0x6035db50       0x1a ./SysLib/MercuryPlat/release/AL36V200_SDK.a(device.o)
                0x6035db50                wifi_power_off
 .text.wifi_power_on
                0x6035db6a       0x1a ./SysLib/MercuryPlat/release/AL36V200_SDK.a(device.o)
                0x6035db6a                wifi_power_on
 .text.HW_ioInit
                0x6035db84      0x120 ./SysLib/MercuryPlat/release/AL36V200_SDK.a(device.o)
                0x6035db84                HW_ioInit
 .text          0x6035dca4        0x0 ./SysLib/MercuryPlat/release/AL36V200_SDK.a(se_wifi_reset.o)
 .text.se_reset
                0x6035dca4       0x1a ./SysLib/MercuryPlat/release/AL36V200_SDK.a(se_wifi_reset.o)
                0x6035dca4                se_reset
 .text.wifi_reset
                0x6035dcbe       0x1a ./SysLib/MercuryPlat/release/AL36V200_SDK.a(se_wifi_reset.o)
                0x6035dcbe                wifi_reset
 .text          0x6035dcd8        0x0 ./SysLib/MercuryPlat/release/AL36V200_SDK.a(MQTTFormat.o)
 .text.MQTTPacket_getName
                0x6035dcd8        0xc ./SysLib/MercuryPlat/release/AL36V200_SDK.a(MQTTFormat.o)
                0x6035dcd8                MQTTPacket_getName
 .text.snprintf
                0x6035dce4       0x1a ./SysLib/MercuryPlat/release/AL36V200_SDK.a(MQTTFormat.o)
                0x6035dce4                snprintf
 *fill*         0x6035dcfe        0x2 
 .text.MQTTStringFormat_connect
                0x6035dd00       0x94 ./SysLib/MercuryPlat/release/AL36V200_SDK.a(MQTTFormat.o)
                0x6035dd00                MQTTStringFormat_connect
 .text.MQTTStringFormat_connack
                0x6035dd94       0x14 ./SysLib/MercuryPlat/release/AL36V200_SDK.a(MQTTFormat.o)
                0x6035dd94                MQTTStringFormat_connack
 .text.MQTTStringFormat_publish
                0x6035dda8       0x44 ./SysLib/MercuryPlat/release/AL36V200_SDK.a(MQTTFormat.o)
                0x6035dda8                MQTTStringFormat_publish
 .text.MQTTStringFormat_ack
                0x6035ddec       0x40 ./SysLib/MercuryPlat/release/AL36V200_SDK.a(MQTTFormat.o)
                0x6035ddec                MQTTStringFormat_ack
 .text.MQTTStringFormat_subscribe
                0x6035de2c       0x2c ./SysLib/MercuryPlat/release/AL36V200_SDK.a(MQTTFormat.o)
                0x6035de2c                MQTTStringFormat_subscribe
 .text.MQTTStringFormat_suback
                0x6035de58       0x1c ./SysLib/MercuryPlat/release/AL36V200_SDK.a(MQTTFormat.o)
                0x6035de58                MQTTStringFormat_suback
 .text.MQTTStringFormat_unsubscribe
                0x6035de74       0x24 ./SysLib/MercuryPlat/release/AL36V200_SDK.a(MQTTFormat.o)
                0x6035de74                MQTTStringFormat_unsubscribe
 .rodata.MQTTStringFormat_ack.str1.1
                0x6035de98       0x1a ./SysLib/MercuryPlat/release/AL36V200_SDK.a(MQTTFormat.o)
 .rodata.MQTTStringFormat_connack.str1.1
                0x6035deb2       0x22 ./SysLib/MercuryPlat/release/AL36V200_SDK.a(MQTTFormat.o)
 .rodata.MQTTStringFormat_connect.str1.1
                0x6035ded4       0xac ./SysLib/MercuryPlat/release/AL36V200_SDK.a(MQTTFormat.o)
 .rodata.MQTTStringFormat_publish.str1.1
                0x6035df80       0x5f ./SysLib/MercuryPlat/release/AL36V200_SDK.a(MQTTFormat.o)
 .rodata.MQTTStringFormat_suback.str1.1
                0x6035dfdf       0x2c ./SysLib/MercuryPlat/release/AL36V200_SDK.a(MQTTFormat.o)
 .rodata.MQTTStringFormat_subscribe.str1.1
                0x6035e00b       0x3a ./SysLib/MercuryPlat/release/AL36V200_SDK.a(MQTTFormat.o)
 .rodata.MQTTStringFormat_unsubscribe.str1.1
                0x6035e045       0x35 ./SysLib/MercuryPlat/release/AL36V200_SDK.a(MQTTFormat.o)
 .rodata.str1.1
                0x6035e07a       0x5b ./SysLib/MercuryPlat/release/AL36V200_SDK.a(MQTTFormat.o)
                                 0x80 (size before relaxing)
 .text          0x6035e0d5        0x0 ./SysLib/MercuryPlat/release/AL36V200_SDK.a(MQTTClient.o)
 *fill*         0x6035e0d5        0x1 
 .text.sendPacket
                0x6035e0d6       0x62 ./SysLib/MercuryPlat/release/AL36V200_SDK.a(MQTTClient.o)
 .text.MQTTClientInit
                0x6035e138       0x6c ./SysLib/MercuryPlat/release/AL36V200_SDK.a(MQTTClient.o)
                0x6035e138                MQTTClientInit
 .text.deliverMessage
                0x6035e1a4       0xbc ./SysLib/MercuryPlat/release/AL36V200_SDK.a(MQTTClient.o)
                0x6035e1a4                deliverMessage
 .text.keepalive
                0x6035e260       0xec ./SysLib/MercuryPlat/release/AL36V200_SDK.a(MQTTClient.o)
                0x6035e260                keepalive
 .text.MQTTCleanSession
                0x6035e34c       0x22 ./SysLib/MercuryPlat/release/AL36V200_SDK.a(MQTTClient.o)
                0x6035e34c                MQTTCleanSession
 .text.MQTTCloseSession
                0x6035e36e       0x1c ./SysLib/MercuryPlat/release/AL36V200_SDK.a(MQTTClient.o)
                0x6035e36e                MQTTCloseSession
 .text.MercuryTraceDebugTime
                0x6035e38a       0x1a ./SysLib/MercuryPlat/release/AL36V200_SDK.a(MQTTClient.o)
                0x6035e38a                MercuryTraceDebugTime
 .text.cycle    0x6035e3a4      0x288 ./SysLib/MercuryPlat/release/AL36V200_SDK.a(MQTTClient.o)
                0x6035e3a4                cycle
 .text.MQTTYield
                0x6035e62c       0x36 ./SysLib/MercuryPlat/release/AL36V200_SDK.a(MQTTClient.o)
                0x6035e62c                MQTTYield
 .text.MQTTIsConnected
                0x6035e662        0x8 ./SysLib/MercuryPlat/release/AL36V200_SDK.a(MQTTClient.o)
                0x6035e662                MQTTIsConnected
 .text.MQTTRun  0x6035e66a       0x1e ./SysLib/MercuryPlat/release/AL36V200_SDK.a(MQTTClient.o)
                0x6035e66a                MQTTRun
 .text.waitfor  0x6035e688       0x2a ./SysLib/MercuryPlat/release/AL36V200_SDK.a(MQTTClient.o)
                0x6035e688                waitfor
 *fill*         0x6035e6b2        0x2 
 .text.MQTTConnectWithResults
                0x6035e6b4       0xdc ./SysLib/MercuryPlat/release/AL36V200_SDK.a(MQTTClient.o)
                0x6035e6b4                MQTTConnectWithResults
 .text.MQTTConnect
                0x6035e790        0xe ./SysLib/MercuryPlat/release/AL36V200_SDK.a(MQTTClient.o)
                0x6035e790                MQTTConnect
 .text.MQTTSetMessageHandler
                0x6035e79e       0x6e ./SysLib/MercuryPlat/release/AL36V200_SDK.a(MQTTClient.o)
                0x6035e79e                MQTTSetMessageHandler
 .text.MQTTSubscribeWithResults
                0x6035e80c       0xee ./SysLib/MercuryPlat/release/AL36V200_SDK.a(MQTTClient.o)
                0x6035e80c                MQTTSubscribeWithResults
 .text.MQTTSubscribe
                0x6035e8fa        0xe ./SysLib/MercuryPlat/release/AL36V200_SDK.a(MQTTClient.o)
                0x6035e8fa                MQTTSubscribe
 .text.MQTTUnsubscribe
                0x6035e908       0xbe ./SysLib/MercuryPlat/release/AL36V200_SDK.a(MQTTClient.o)
                0x6035e908                MQTTUnsubscribe
 .text.MQTTPublish
                0x6035e9c6       0xf2 ./SysLib/MercuryPlat/release/AL36V200_SDK.a(MQTTClient.o)
                0x6035e9c6                MQTTPublish
 .text.MQTTDisconnect
                0x6035eab8       0x84 ./SysLib/MercuryPlat/release/AL36V200_SDK.a(MQTTClient.o)
                0x6035eab8                MQTTDisconnect
 .rodata        0x6035eb3c       0x58 ./SysLib/MercuryPlat/release/AL36V200_SDK.a(MQTTClient.o)
 .rodata.cycle.str1.1
                0x6035eb94        0xf ./SysLib/MercuryPlat/release/AL36V200_SDK.a(MQTTClient.o)
 .text          0x6035eba3        0x0 ./SysLib/MercuryPlat/release/AL36V200_SDK.a(MQTTFreeRTOS.o)
 *fill*         0x6035eba3        0x1 
 .text.amoi_disconnect
                0x6035eba4        0x6 ./SysLib/MercuryPlat/release/AL36V200_SDK.a(MQTTFreeRTOS.o)
                0x6035eba4                amoi_disconnect
 *fill*         0x6035ebaa        0x2 
 .text.amoi_read
                0x6035ebac       0x3c ./SysLib/MercuryPlat/release/AL36V200_SDK.a(MQTTFreeRTOS.o)
                0x6035ebac                amoi_read
 .text.amoi_write
                0x6035ebe8       0x30 ./SysLib/MercuryPlat/release/AL36V200_SDK.a(MQTTFreeRTOS.o)
                0x6035ebe8                amoi_write
 .text.ThreadStart
                0x6035ec18       0x20 ./SysLib/MercuryPlat/release/AL36V200_SDK.a(MQTTFreeRTOS.o)
                0x6035ec18                ThreadStart
 .text.amoi_MutexInit
                0x6035ec38       0x10 ./SysLib/MercuryPlat/release/AL36V200_SDK.a(MQTTFreeRTOS.o)
                0x6035ec38                amoi_MutexInit
 .text.MutexInit
                0x6035ec48        0xc ./SysLib/MercuryPlat/release/AL36V200_SDK.a(MQTTFreeRTOS.o)
                0x6035ec48                MutexInit
 .text.MutexLock
                0x6035ec54        0xc ./SysLib/MercuryPlat/release/AL36V200_SDK.a(MQTTFreeRTOS.o)
                0x6035ec54                MutexLock
 .text.MutexUnlock
                0x6035ec60        0xc ./SysLib/MercuryPlat/release/AL36V200_SDK.a(MQTTFreeRTOS.o)
                0x6035ec60                MutexUnlock
 .text.TimerInit
                0x6035ec6c        0x8 ./SysLib/MercuryPlat/release/AL36V200_SDK.a(MQTTFreeRTOS.o)
                0x6035ec6c                TimerInit
 .text.TimerCountdownMS
                0x6035ec74        0x8 ./SysLib/MercuryPlat/release/AL36V200_SDK.a(MQTTFreeRTOS.o)
                0x6035ec74                TimerCountdownMS
 .text.TimerCountdown
                0x6035ec7c        0xe ./SysLib/MercuryPlat/release/AL36V200_SDK.a(MQTTFreeRTOS.o)
                0x6035ec7c                TimerCountdown
 .text.TimerLeftMS
                0x6035ec8a       0x1e ./SysLib/MercuryPlat/release/AL36V200_SDK.a(MQTTFreeRTOS.o)
                0x6035ec8a                TimerLeftMS
 .text.TimerIsExpired
                0x6035eca8       0x10 ./SysLib/MercuryPlat/release/AL36V200_SDK.a(MQTTFreeRTOS.o)
                0x6035eca8                TimerIsExpired
 .text.NetworkConnect
                0x6035ecb8        0x6 ./SysLib/MercuryPlat/release/AL36V200_SDK.a(MQTTFreeRTOS.o)
                0x6035ecb8                NetworkConnect
 *fill*         0x6035ecbe        0x2 
 .text.NetworkInit
                0x6035ecc0       0x20 ./SysLib/MercuryPlat/release/AL36V200_SDK.a(MQTTFreeRTOS.o)
                0x6035ecc0                NetworkInit
 .text          0x6035ece0        0x0 ./SysLib/MercuryPlat/release/AL36V200_SDK.a(cp936.o)
 .rodata.CODE_TABLE_SIZE
                0x6035ece0        0x4 ./SysLib/MercuryPlat/release/AL36V200_SDK.a(cp936.o)
                0x6035ece0                CODE_TABLE_SIZE
 .text          0x6035ece4        0x0 ./SysLib/MercuryPlat/release/AL36V200_SDK.a(asn1parse.o)
 .text.mbedtls_asn1_get_len
                0x6035ece4       0xa6 ./SysLib/MercuryPlat/release/AL36V200_SDK.a(asn1parse.o)
                0x6035ece4                mbedtls_asn1_get_len
 .text.mbedtls_asn1_get_tag
                0x6035ed8a       0x28 ./SysLib/MercuryPlat/release/AL36V200_SDK.a(asn1parse.o)
                0x6035ed8a                mbedtls_asn1_get_tag
 .text.mbedtls_asn1_get_bool
                0x6035edb2       0x30 ./SysLib/MercuryPlat/release/AL36V200_SDK.a(asn1parse.o)
                0x6035edb2                mbedtls_asn1_get_bool
 .text.mbedtls_asn1_get_int
                0x6035ede2       0x46 ./SysLib/MercuryPlat/release/AL36V200_SDK.a(asn1parse.o)
                0x6035ede2                mbedtls_asn1_get_int
 .text.mbedtls_asn1_get_mpi
                0x6035ee28       0x26 ./SysLib/MercuryPlat/release/AL36V200_SDK.a(asn1parse.o)
                0x6035ee28                mbedtls_asn1_get_mpi
 .text.mbedtls_asn1_get_bitstring
                0x6035ee4e       0x46 ./SysLib/MercuryPlat/release/AL36V200_SDK.a(asn1parse.o)
                0x6035ee4e                mbedtls_asn1_get_bitstring
 .text.mbedtls_asn1_get_bitstring_null
                0x6035ee94       0x28 ./SysLib/MercuryPlat/release/AL36V200_SDK.a(asn1parse.o)
                0x6035ee94                mbedtls_asn1_get_bitstring_null
 .text.mbedtls_asn1_get_sequence_of
                0x6035eebc       0x7c ./SysLib/MercuryPlat/release/AL36V200_SDK.a(asn1parse.o)
                0x6035eebc                mbedtls_asn1_get_sequence_of
 .text.mbedtls_asn1_get_alg
                0x6035ef38       0xa0 ./SysLib/MercuryPlat/release/AL36V200_SDK.a(asn1parse.o)
                0x6035ef38                mbedtls_asn1_get_alg
 .text.mbedtls_asn1_get_alg_null
                0x6035efd8       0x30 ./SysLib/MercuryPlat/release/AL36V200_SDK.a(asn1parse.o)
                0x6035efd8                mbedtls_asn1_get_alg_null
 .text.mbedtls_asn1_free_named_data
                0x6035f008       0x24 ./SysLib/MercuryPlat/release/AL36V200_SDK.a(asn1parse.o)
                0x6035f008                mbedtls_asn1_free_named_data
 .text.mbedtls_asn1_free_named_data_list
                0x6035f02c       0x1c ./SysLib/MercuryPlat/release/AL36V200_SDK.a(asn1parse.o)
                0x6035f02c                mbedtls_asn1_free_named_data_list
 .text.mbedtls_asn1_find_named_data
                0x6035f048       0x26 ./SysLib/MercuryPlat/release/AL36V200_SDK.a(asn1parse.o)
                0x6035f048                mbedtls_asn1_find_named_data
 .text          0x6035f06e        0x0 ./SysLib/MercuryPlat/release/AL36V200_SDK.a(bignum.o)
 .text.mpi_get_digit
                0x6035f06e       0x38 ./SysLib/MercuryPlat/release/AL36V200_SDK.a(bignum.o)
 .text.mpi_sub_hlp
                0x6035f0a6       0x54 ./SysLib/MercuryPlat/release/AL36V200_SDK.a(bignum.o)
 .text.mpi_mul_hlp
                0x6035f0fa      0x2e4 ./SysLib/MercuryPlat/release/AL36V200_SDK.a(bignum.o)
 .text.mbedtls_mpi_mod_int.part.3
                0x6035f3de       0x50 ./SysLib/MercuryPlat/release/AL36V200_SDK.a(bignum.o)
 .text.mbedtls_mpi_init
                0x6035f42e        0xe ./SysLib/MercuryPlat/release/AL36V200_SDK.a(bignum.o)
                0x6035f42e                mbedtls_mpi_init
 .text.mbedtls_mpi_free
                0x6035f43c       0x2e ./SysLib/MercuryPlat/release/AL36V200_SDK.a(bignum.o)
                0x6035f43c                mbedtls_mpi_free
 .text.mbedtls_mpi_grow
                0x6035f46a       0x56 ./SysLib/MercuryPlat/release/AL36V200_SDK.a(bignum.o)
                0x6035f46a                mbedtls_mpi_grow
 .text.mbedtls_mpi_shrink
                0x6035f4c0       0x74 ./SysLib/MercuryPlat/release/AL36V200_SDK.a(bignum.o)
                0x6035f4c0                mbedtls_mpi_shrink
 .text.mbedtls_mpi_copy
                0x6035f534       0x54 ./SysLib/MercuryPlat/release/AL36V200_SDK.a(bignum.o)
                0x6035f534                mbedtls_mpi_copy
 .text.mbedtls_mpi_swap
                0x6035f588       0x2a ./SysLib/MercuryPlat/release/AL36V200_SDK.a(bignum.o)
                0x6035f588                mbedtls_mpi_swap
 .text.mbedtls_mpi_safe_cond_assign
                0x6035f5b2       0x68 ./SysLib/MercuryPlat/release/AL36V200_SDK.a(bignum.o)
                0x6035f5b2                mbedtls_mpi_safe_cond_assign
 .text.mbedtls_mpi_safe_cond_swap
                0x6035f61a       0x7c ./SysLib/MercuryPlat/release/AL36V200_SDK.a(bignum.o)
                0x6035f61a                mbedtls_mpi_safe_cond_swap
 .text.mbedtls_mpi_lset
                0x6035f696       0x38 ./SysLib/MercuryPlat/release/AL36V200_SDK.a(bignum.o)
                0x6035f696                mbedtls_mpi_lset
 .text.mbedtls_mpi_get_bit
                0x6035f6ce       0x20 ./SysLib/MercuryPlat/release/AL36V200_SDK.a(bignum.o)
                0x6035f6ce                mbedtls_mpi_get_bit
 .text.mbedtls_mpi_set_bit
                0x6035f6ee       0x52 ./SysLib/MercuryPlat/release/AL36V200_SDK.a(bignum.o)
                0x6035f6ee                mbedtls_mpi_set_bit
 .text.mbedtls_mpi_lsb
                0x6035f740       0x36 ./SysLib/MercuryPlat/release/AL36V200_SDK.a(bignum.o)
                0x6035f740                mbedtls_mpi_lsb
 .text.mbedtls_mpi_bitlen
                0x6035f776       0x40 ./SysLib/MercuryPlat/release/AL36V200_SDK.a(bignum.o)
                0x6035f776                mbedtls_mpi_bitlen
 .text.mbedtls_mpi_size
                0x6035f7b6        0xc ./SysLib/MercuryPlat/release/AL36V200_SDK.a(bignum.o)
                0x6035f7b6                mbedtls_mpi_size
 .text.mbedtls_mpi_read_binary
                0x6035f7c2       0x66 ./SysLib/MercuryPlat/release/AL36V200_SDK.a(bignum.o)
                0x6035f7c2                mbedtls_mpi_read_binary
 .text.mbedtls_mpi_write_binary
                0x6035f828       0x46 ./SysLib/MercuryPlat/release/AL36V200_SDK.a(bignum.o)
                0x6035f828                mbedtls_mpi_write_binary
 .text.mbedtls_mpi_shift_l
                0x6035f86e       0x8e ./SysLib/MercuryPlat/release/AL36V200_SDK.a(bignum.o)
                0x6035f86e                mbedtls_mpi_shift_l
 .text.mbedtls_mpi_shift_r
                0x6035f8fc       0x80 ./SysLib/MercuryPlat/release/AL36V200_SDK.a(bignum.o)
                0x6035f8fc                mbedtls_mpi_shift_r
 .text.mbedtls_mpi_cmp_abs
                0x6035f97c       0x68 ./SysLib/MercuryPlat/release/AL36V200_SDK.a(bignum.o)
                0x6035f97c                mbedtls_mpi_cmp_abs
 .text.mpi_montmul
                0x6035f9e4       0xd4 ./SysLib/MercuryPlat/release/AL36V200_SDK.a(bignum.o)
 .text.mbedtls_mpi_cmp_mpi
                0x6035fab8       0x8a ./SysLib/MercuryPlat/release/AL36V200_SDK.a(bignum.o)
                0x6035fab8                mbedtls_mpi_cmp_mpi
 .text.mbedtls_mpi_cmp_int
                0x6035fb42       0x2c ./SysLib/MercuryPlat/release/AL36V200_SDK.a(bignum.o)
                0x6035fb42                mbedtls_mpi_cmp_int
 .text.mbedtls_mpi_add_abs
                0x6035fb6e       0xc2 ./SysLib/MercuryPlat/release/AL36V200_SDK.a(bignum.o)
                0x6035fb6e                mbedtls_mpi_add_abs
 .text.mbedtls_mpi_sub_abs
                0x6035fc30       0x7a ./SysLib/MercuryPlat/release/AL36V200_SDK.a(bignum.o)
                0x6035fc30                mbedtls_mpi_sub_abs
 .text.mbedtls_mpi_add_mpi
                0x6035fcaa       0x42 ./SysLib/MercuryPlat/release/AL36V200_SDK.a(bignum.o)
                0x6035fcaa                mbedtls_mpi_add_mpi
 .text.mbedtls_mpi_sub_mpi
                0x6035fcec       0x44 ./SysLib/MercuryPlat/release/AL36V200_SDK.a(bignum.o)
                0x6035fcec                mbedtls_mpi_sub_mpi
 .text.mbedtls_mpi_add_int
                0x6035fd30       0x2c ./SysLib/MercuryPlat/release/AL36V200_SDK.a(bignum.o)
                0x6035fd30                mbedtls_mpi_add_int
 .text.mbedtls_mpi_sub_int
                0x6035fd5c       0x2c ./SysLib/MercuryPlat/release/AL36V200_SDK.a(bignum.o)
                0x6035fd5c                mbedtls_mpi_sub_int
 .text.mbedtls_mpi_mul_mpi
                0x6035fd88       0xd2 ./SysLib/MercuryPlat/release/AL36V200_SDK.a(bignum.o)
                0x6035fd88                mbedtls_mpi_mul_mpi
 .text.mbedtls_mpi_mul_int
                0x6035fe5a       0x1a ./SysLib/MercuryPlat/release/AL36V200_SDK.a(bignum.o)
                0x6035fe5a                mbedtls_mpi_mul_int
 .text.mbedtls_mpi_read_string
                0x6035fe74      0x120 ./SysLib/MercuryPlat/release/AL36V200_SDK.a(bignum.o)
                0x6035fe74                mbedtls_mpi_read_string
 .text.mbedtls_mpi_div_mpi
                0x6035ff94      0x372 ./SysLib/MercuryPlat/release/AL36V200_SDK.a(bignum.o)
                0x6035ff94                mbedtls_mpi_div_mpi
 .text.mbedtls_mpi_div_int
                0x60360306       0x2a ./SysLib/MercuryPlat/release/AL36V200_SDK.a(bignum.o)
                0x60360306                mbedtls_mpi_div_int
 .text.mbedtls_mpi_mod_mpi
                0x60360330       0x64 ./SysLib/MercuryPlat/release/AL36V200_SDK.a(bignum.o)
                0x60360330                mbedtls_mpi_mod_mpi
 .text.mbedtls_mpi_mod_int
                0x60360394       0x3a ./SysLib/MercuryPlat/release/AL36V200_SDK.a(bignum.o)
                0x60360394                mbedtls_mpi_mod_int
 .text.mpi_write_hlp
                0x603603ce       0x6e ./SysLib/MercuryPlat/release/AL36V200_SDK.a(bignum.o)
 .text.mbedtls_mpi_write_string
                0x6036043c      0x10c ./SysLib/MercuryPlat/release/AL36V200_SDK.a(bignum.o)
                0x6036043c                mbedtls_mpi_write_string
 .text.mpi_check_small_factors
                0x60360548       0x4c ./SysLib/MercuryPlat/release/AL36V200_SDK.a(bignum.o)
 .text.mbedtls_mpi_exp_mod
                0x60360594      0x3e0 ./SysLib/MercuryPlat/release/AL36V200_SDK.a(bignum.o)
                0x60360594                mbedtls_mpi_exp_mod
 .text.mbedtls_mpi_gcd
                0x60360974      0x108 ./SysLib/MercuryPlat/release/AL36V200_SDK.a(bignum.o)
                0x60360974                mbedtls_mpi_gcd
 .text.mbedtls_mpi_fill_random
                0x60360a7c       0x32 ./SysLib/MercuryPlat/release/AL36V200_SDK.a(bignum.o)
                0x60360a7c                mbedtls_mpi_fill_random
 .text.mpi_miller_rabin
                0x60360aae      0x206 ./SysLib/MercuryPlat/release/AL36V200_SDK.a(bignum.o)
 .text.mbedtls_mpi_inv_mod
                0x60360cb4      0x2a6 ./SysLib/MercuryPlat/release/AL36V200_SDK.a(bignum.o)
                0x60360cb4                mbedtls_mpi_inv_mod
 .text.mbedtls_mpi_is_prime
                0x60360f5a       0x54 ./SysLib/MercuryPlat/release/AL36V200_SDK.a(bignum.o)
                0x60360f5a                mbedtls_mpi_is_prime
 .text.mbedtls_mpi_gen_prime
                0x60360fae      0x134 ./SysLib/MercuryPlat/release/AL36V200_SDK.a(bignum.o)
                0x60360fae                mbedtls_mpi_gen_prime
 .rodata.mbedtls_mpi_write_string.str1.1
                0x603610e2       0x11 ./SysLib/MercuryPlat/release/AL36V200_SDK.a(bignum.o)
 *fill*         0x603610e2        0x2 
 .rodata.small_prime
                0x603610e4      0x2a0 ./SysLib/MercuryPlat/release/AL36V200_SDK.a(bignum.o)
 .text          0x60361384        0x0 ./SysLib/MercuryPlat/release/AL36V200_SDK.a(ctr_drbg.o)
 .text.block_cipher_df
                0x60361384      0x10c ./SysLib/MercuryPlat/release/AL36V200_SDK.a(ctr_drbg.o)
 .text.ctr_drbg_update_internal
                0x60361490       0x74 ./SysLib/MercuryPlat/release/AL36V200_SDK.a(ctr_drbg.o)
 .text.mbedtls_ctr_drbg_init
                0x60361504        0xa ./SysLib/MercuryPlat/release/AL36V200_SDK.a(ctr_drbg.o)
                0x60361504                mbedtls_ctr_drbg_init
 .text.mbedtls_ctr_drbg_free
                0x6036150e       0x1e ./SysLib/MercuryPlat/release/AL36V200_SDK.a(ctr_drbg.o)
                0x6036150e                mbedtls_ctr_drbg_free
 .text.mbedtls_ctr_drbg_set_prediction_resistance
                0x6036152c        0x4 ./SysLib/MercuryPlat/release/AL36V200_SDK.a(ctr_drbg.o)
                0x6036152c                mbedtls_ctr_drbg_set_prediction_resistance
 .text.mbedtls_ctr_drbg_set_entropy_len
                0x60361530        0x4 ./SysLib/MercuryPlat/release/AL36V200_SDK.a(ctr_drbg.o)
                0x60361530                mbedtls_ctr_drbg_set_entropy_len
 .text.mbedtls_ctr_drbg_set_reseed_interval
                0x60361534        0x4 ./SysLib/MercuryPlat/release/AL36V200_SDK.a(ctr_drbg.o)
                0x60361534                mbedtls_ctr_drbg_set_reseed_interval
 .text.mbedtls_ctr_drbg_update
                0x60361538       0x24 ./SysLib/MercuryPlat/release/AL36V200_SDK.a(ctr_drbg.o)
                0x60361538                mbedtls_ctr_drbg_update
 .text.mbedtls_ctr_drbg_reseed
                0x6036155c       0x76 ./SysLib/MercuryPlat/release/AL36V200_SDK.a(ctr_drbg.o)
                0x6036155c                mbedtls_ctr_drbg_reseed
 .text.mbedtls_ctr_drbg_seed_entropy_len
                0x603615d2       0x4c ./SysLib/MercuryPlat/release/AL36V200_SDK.a(ctr_drbg.o)
                0x603615d2                mbedtls_ctr_drbg_seed_entropy_len
 .text.mbedtls_ctr_drbg_seed
                0x6036161e       0x12 ./SysLib/MercuryPlat/release/AL36V200_SDK.a(ctr_drbg.o)
                0x6036161e                mbedtls_ctr_drbg_seed
 .text.mbedtls_ctr_drbg_random_with_add
                0x60361630       0xb8 ./SysLib/MercuryPlat/release/AL36V200_SDK.a(ctr_drbg.o)
                0x60361630                mbedtls_ctr_drbg_random_with_add
 .text.mbedtls_ctr_drbg_random
                0x603616e8       0x10 ./SysLib/MercuryPlat/release/AL36V200_SDK.a(ctr_drbg.o)
                0x603616e8                mbedtls_ctr_drbg_random
 .text          0x603616f8        0x0 ./SysLib/MercuryPlat/release/AL36V200_SDK.a(entropy.o)
 .text.entropy_update
                0x603616f8       0x42 ./SysLib/MercuryPlat/release/AL36V200_SDK.a(entropy.o)
 .text.entropy_gather_internal.part.0
                0x6036173a       0x68 ./SysLib/MercuryPlat/release/AL36V200_SDK.a(entropy.o)
 *fill*         0x603617a2        0x2 
 .text.mbedtls_entropy_init
                0x603617a4       0x48 ./SysLib/MercuryPlat/release/AL36V200_SDK.a(entropy.o)
                0x603617a4                mbedtls_entropy_init
 .text.mbedtls_entropy_free
                0x603617ec       0x12 ./SysLib/MercuryPlat/release/AL36V200_SDK.a(entropy.o)
                0x603617ec                mbedtls_entropy_free
 .text.mbedtls_entropy_add_source
                0x603617fe       0x2e ./SysLib/MercuryPlat/release/AL36V200_SDK.a(entropy.o)
                0x603617fe                mbedtls_entropy_add_source
 .text.mbedtls_entropy_update_manual
                0x6036182c        0xa ./SysLib/MercuryPlat/release/AL36V200_SDK.a(entropy.o)
                0x6036182c                mbedtls_entropy_update_manual
 .text.mbedtls_entropy_gather
                0x60361836       0x10 ./SysLib/MercuryPlat/release/AL36V200_SDK.a(entropy.o)
                0x60361836                mbedtls_entropy_gather
 .text.mbedtls_entropy_func
                0x60361846       0xc4 ./SysLib/MercuryPlat/release/AL36V200_SDK.a(entropy.o)
                0x60361846                mbedtls_entropy_func
 .text          0x6036190a        0x0 ./SysLib/MercuryPlat/release/AL36V200_SDK.a(error.o)
 *fill*         0x6036190a        0x2 
 .text.mbedtls_strerror
                0x6036190c      0xf84 ./SysLib/MercuryPlat/release/AL36V200_SDK.a(error.o)
                0x6036190c                mbedtls_strerror
 .rodata.mbedtls_strerror.str1.1
                0x60362890     0x2428 ./SysLib/MercuryPlat/release/AL36V200_SDK.a(error.o)
                               0x242c (size before relaxing)
 .text          0x60364cb8        0x0 ./SysLib/MercuryPlat/release/AL36V200_SDK.a(md.o)
 .text.mbedtls_md_list
                0x60364cb8        0x8 ./SysLib/MercuryPlat/release/AL36V200_SDK.a(md.o)
                0x60364cb8                mbedtls_md_list
 .text.mbedtls_md_info_from_string
                0x60364cc0       0xb4 ./SysLib/MercuryPlat/release/AL36V200_SDK.a(md.o)
                0x60364cc0                mbedtls_md_info_from_string
 .text.mbedtls_md_info_from_type
                0x60364d74       0x18 ./SysLib/MercuryPlat/release/AL36V200_SDK.a(md.o)
                0x60364d74                mbedtls_md_info_from_type
 .text.mbedtls_md_init
                0x60364d8c        0x8 ./SysLib/MercuryPlat/release/AL36V200_SDK.a(md.o)
                0x60364d8c                mbedtls_md_init
 .text.mbedtls_md_free
                0x60364d94       0x42 ./SysLib/MercuryPlat/release/AL36V200_SDK.a(md.o)
                0x60364d94                mbedtls_md_free
 *fill*         0x60364dd6        0x2 
 .text.mbedtls_md_clone
                0x60364dd8       0x28 ./SysLib/MercuryPlat/release/AL36V200_SDK.a(md.o)
                0x60364dd8                mbedtls_md_clone
 .text.mbedtls_md_setup
                0x60364e00       0x40 ./SysLib/MercuryPlat/release/AL36V200_SDK.a(md.o)
                0x60364e00                mbedtls_md_setup
 .text.mbedtls_md_init_ctx
                0x60364e40        0x6 ./SysLib/MercuryPlat/release/AL36V200_SDK.a(md.o)
                0x60364e40                mbedtls_md_init_ctx
 *fill*         0x60364e46        0x2 
 .text.mbedtls_md_starts
                0x60364e48       0x1c ./SysLib/MercuryPlat/release/AL36V200_SDK.a(md.o)
                0x60364e48                mbedtls_md_starts
 .text.mbedtls_md_update
                0x60364e64       0x1c ./SysLib/MercuryPlat/release/AL36V200_SDK.a(md.o)
                0x60364e64                mbedtls_md_update
 .text.mbedtls_md_finish
                0x60364e80       0x1c ./SysLib/MercuryPlat/release/AL36V200_SDK.a(md.o)
                0x60364e80                mbedtls_md_finish
 .text.mbedtls_md
                0x60364e9c       0x1c ./SysLib/MercuryPlat/release/AL36V200_SDK.a(md.o)
                0x60364e9c                mbedtls_md
 .text.mbedtls_md_hmac_starts
                0x60364eb8       0xc0 ./SysLib/MercuryPlat/release/AL36V200_SDK.a(md.o)
                0x60364eb8                mbedtls_md_hmac_starts
 .text.mbedtls_md_hmac_update
                0x60364f78       0x20 ./SysLib/MercuryPlat/release/AL36V200_SDK.a(md.o)
                0x60364f78                mbedtls_md_hmac_update
 .text.mbedtls_md_hmac_finish
                0x60364f98       0x58 ./SysLib/MercuryPlat/release/AL36V200_SDK.a(md.o)
                0x60364f98                mbedtls_md_hmac_finish
 .text.mbedtls_md_hmac_reset
                0x60364ff0       0x2c ./SysLib/MercuryPlat/release/AL36V200_SDK.a(md.o)
                0x60364ff0                mbedtls_md_hmac_reset
 .text.mbedtls_md_hmac
                0x6036501c       0x54 ./SysLib/MercuryPlat/release/AL36V200_SDK.a(md.o)
                0x6036501c                mbedtls_md_hmac
 .text.mbedtls_md_process
                0x60365070       0x1c ./SysLib/MercuryPlat/release/AL36V200_SDK.a(md.o)
                0x60365070                mbedtls_md_process
 .text.mbedtls_md_get_size
                0x6036508c        0x6 ./SysLib/MercuryPlat/release/AL36V200_SDK.a(md.o)
                0x6036508c                mbedtls_md_get_size
 .text.mbedtls_md_get_type
                0x60365092        0x6 ./SysLib/MercuryPlat/release/AL36V200_SDK.a(md.o)
                0x60365092                mbedtls_md_get_type
 .text.mbedtls_md_get_name
                0x60365098        0x6 ./SysLib/MercuryPlat/release/AL36V200_SDK.a(md.o)
                0x60365098                mbedtls_md_get_name
 *fill*         0x6036509e        0x2 
 .rodata.CSWTCH.5
                0x603650a0       0x1c ./SysLib/MercuryPlat/release/AL36V200_SDK.a(md.o)
 .rodata.mbedtls_md_info_from_string.str1.1
                0x603650bc       0x18 ./SysLib/MercuryPlat/release/AL36V200_SDK.a(md.o)
                                 0x33 (size before relaxing)
 .rodata.supported_digests
                0x603650d4       0x20 ./SysLib/MercuryPlat/release/AL36V200_SDK.a(md.o)
 .text          0x603650f4        0x0 ./SysLib/MercuryPlat/release/AL36V200_SDK.a(md_wrap.o)
 .text.md5_process_wrap
                0x603650f4        0x4 ./SysLib/MercuryPlat/release/AL36V200_SDK.a(md_wrap.o)
 .text.md5_clone_wrap
                0x603650f8        0x4 ./SysLib/MercuryPlat/release/AL36V200_SDK.a(md_wrap.o)
 .text.md5_ctx_free
                0x603650fc       0x12 ./SysLib/MercuryPlat/release/AL36V200_SDK.a(md_wrap.o)
 .text.md5_ctx_alloc
                0x6036510e       0x16 ./SysLib/MercuryPlat/release/AL36V200_SDK.a(md_wrap.o)
 .text.md5_finish_wrap
                0x60365124        0x4 ./SysLib/MercuryPlat/release/AL36V200_SDK.a(md_wrap.o)
 .text.md5_update_wrap
                0x60365128        0x4 ./SysLib/MercuryPlat/release/AL36V200_SDK.a(md_wrap.o)
 .text.md5_starts_wrap
                0x6036512c        0x4 ./SysLib/MercuryPlat/release/AL36V200_SDK.a(md_wrap.o)
 .text.ripemd160_process_wrap
                0x60365130        0x4 ./SysLib/MercuryPlat/release/AL36V200_SDK.a(md_wrap.o)
 .text.ripemd160_clone_wrap
                0x60365134        0x4 ./SysLib/MercuryPlat/release/AL36V200_SDK.a(md_wrap.o)
 .text.ripemd160_ctx_free
                0x60365138       0x12 ./SysLib/MercuryPlat/release/AL36V200_SDK.a(md_wrap.o)
 .text.ripemd160_ctx_alloc
                0x6036514a       0x16 ./SysLib/MercuryPlat/release/AL36V200_SDK.a(md_wrap.o)
 .text.ripemd160_finish_wrap
                0x60365160        0x4 ./SysLib/MercuryPlat/release/AL36V200_SDK.a(md_wrap.o)
 .text.ripemd160_update_wrap
                0x60365164        0x4 ./SysLib/MercuryPlat/release/AL36V200_SDK.a(md_wrap.o)
 .text.ripemd160_starts_wrap
                0x60365168        0x4 ./SysLib/MercuryPlat/release/AL36V200_SDK.a(md_wrap.o)
 .text.sha1_process_wrap
                0x6036516c        0x4 ./SysLib/MercuryPlat/release/AL36V200_SDK.a(md_wrap.o)
 .text.sha1_clone_wrap
                0x60365170        0x4 ./SysLib/MercuryPlat/release/AL36V200_SDK.a(md_wrap.o)
 .text.sha1_ctx_free
                0x60365174       0x12 ./SysLib/MercuryPlat/release/AL36V200_SDK.a(md_wrap.o)
 .text.sha1_ctx_alloc
                0x60365186       0x16 ./SysLib/MercuryPlat/release/AL36V200_SDK.a(md_wrap.o)
 .text.sha1_finish_wrap
                0x6036519c        0x4 ./SysLib/MercuryPlat/release/AL36V200_SDK.a(md_wrap.o)
 .text.sha1_update_wrap
                0x603651a0        0x4 ./SysLib/MercuryPlat/release/AL36V200_SDK.a(md_wrap.o)
 .text.sha1_starts_wrap
                0x603651a4        0x4 ./SysLib/MercuryPlat/release/AL36V200_SDK.a(md_wrap.o)
 .text.sha224_process_wrap
                0x603651a8        0x4 ./SysLib/MercuryPlat/release/AL36V200_SDK.a(md_wrap.o)
 .text.sha224_clone_wrap
                0x603651ac        0x4 ./SysLib/MercuryPlat/release/AL36V200_SDK.a(md_wrap.o)
 .text.sha224_ctx_free
                0x603651b0       0x12 ./SysLib/MercuryPlat/release/AL36V200_SDK.a(md_wrap.o)
 .text.sha224_ctx_alloc
                0x603651c2       0x16 ./SysLib/MercuryPlat/release/AL36V200_SDK.a(md_wrap.o)
 .text.sha224_wrap
                0x603651d8        0x6 ./SysLib/MercuryPlat/release/AL36V200_SDK.a(md_wrap.o)
 .text.sha256_wrap
                0x603651de        0x6 ./SysLib/MercuryPlat/release/AL36V200_SDK.a(md_wrap.o)
 .text.sha224_finish_wrap
                0x603651e4        0x4 ./SysLib/MercuryPlat/release/AL36V200_SDK.a(md_wrap.o)
 .text.sha224_update_wrap
                0x603651e8        0x4 ./SysLib/MercuryPlat/release/AL36V200_SDK.a(md_wrap.o)
 .text.sha224_starts_wrap
                0x603651ec        0x6 ./SysLib/MercuryPlat/release/AL36V200_SDK.a(md_wrap.o)
 .text.sha256_starts_wrap
                0x603651f2        0x6 ./SysLib/MercuryPlat/release/AL36V200_SDK.a(md_wrap.o)
 .text.sha384_process_wrap
                0x603651f8        0x4 ./SysLib/MercuryPlat/release/AL36V200_SDK.a(md_wrap.o)
 .text.sha384_clone_wrap
                0x603651fc        0x4 ./SysLib/MercuryPlat/release/AL36V200_SDK.a(md_wrap.o)
 .text.sha384_ctx_free
                0x60365200       0x12 ./SysLib/MercuryPlat/release/AL36V200_SDK.a(md_wrap.o)
 .text.sha384_ctx_alloc
                0x60365212       0x16 ./SysLib/MercuryPlat/release/AL36V200_SDK.a(md_wrap.o)
 .text.sha384_wrap
                0x60365228        0x6 ./SysLib/MercuryPlat/release/AL36V200_SDK.a(md_wrap.o)
 .text.sha512_wrap
                0x6036522e        0x6 ./SysLib/MercuryPlat/release/AL36V200_SDK.a(md_wrap.o)
 .text.sha384_finish_wrap
                0x60365234        0x4 ./SysLib/MercuryPlat/release/AL36V200_SDK.a(md_wrap.o)
 .text.sha384_update_wrap
                0x60365238        0x4 ./SysLib/MercuryPlat/release/AL36V200_SDK.a(md_wrap.o)
 .text.sha384_starts_wrap
                0x6036523c        0x6 ./SysLib/MercuryPlat/release/AL36V200_SDK.a(md_wrap.o)
 .text.sha512_starts_wrap
                0x60365242        0x6 ./SysLib/MercuryPlat/release/AL36V200_SDK.a(md_wrap.o)
 .rodata.mbedtls_md5_info
                0x60365248       0x30 ./SysLib/MercuryPlat/release/AL36V200_SDK.a(md_wrap.o)
                0x60365248                mbedtls_md5_info
 .rodata.mbedtls_ripemd160_info
                0x60365278       0x30 ./SysLib/MercuryPlat/release/AL36V200_SDK.a(md_wrap.o)
                0x60365278                mbedtls_ripemd160_info
 .rodata.mbedtls_sha1_info
                0x603652a8       0x30 ./SysLib/MercuryPlat/release/AL36V200_SDK.a(md_wrap.o)
                0x603652a8                mbedtls_sha1_info
 .rodata.mbedtls_sha224_info
                0x603652d8       0x30 ./SysLib/MercuryPlat/release/AL36V200_SDK.a(md_wrap.o)
                0x603652d8                mbedtls_sha224_info
 .rodata.mbedtls_sha256_info
                0x60365308       0x30 ./SysLib/MercuryPlat/release/AL36V200_SDK.a(md_wrap.o)
                0x60365308                mbedtls_sha256_info
 .rodata.mbedtls_sha384_info
                0x60365338       0x30 ./SysLib/MercuryPlat/release/AL36V200_SDK.a(md_wrap.o)
                0x60365338                mbedtls_sha384_info
 .rodata.mbedtls_sha512_info
                0x60365368       0x30 ./SysLib/MercuryPlat/release/AL36V200_SDK.a(md_wrap.o)
                0x60365368                mbedtls_sha512_info
 .rodata.str1.1
                0x60365398       0x2f ./SysLib/MercuryPlat/release/AL36V200_SDK.a(md_wrap.o)
 .text          0x60365398        0x0 ./SysLib/MercuryPlat/release/AL36V200_SDK.a(net.o)
 .text.mbedtls_net_init
                0x60365398        0x8 ./SysLib/MercuryPlat/release/AL36V200_SDK.a(net.o)
                0x60365398                mbedtls_net_init
 .text.mbedtls_net_connect
                0x603653a0       0x40 ./SysLib/MercuryPlat/release/AL36V200_SDK.a(net.o)
                0x603653a0                mbedtls_net_connect
 .text.mbedtls_net_usleep
                0x603653e0       0x14 ./SysLib/MercuryPlat/release/AL36V200_SDK.a(net.o)
                0x603653e0                mbedtls_net_usleep
 .text.mbedtls_net_recv
                0x603653f4       0x70 ./SysLib/MercuryPlat/release/AL36V200_SDK.a(net.o)
                0x603653f4                mbedtls_net_recv
 .text.mbedtls_net_recv_timeout
                0x60365464       0x50 ./SysLib/MercuryPlat/release/AL36V200_SDK.a(net.o)
                0x60365464                mbedtls_net_recv_timeout
 .text.mbedtls_net_send
                0x603654b4       0x2a ./SysLib/MercuryPlat/release/AL36V200_SDK.a(net.o)
                0x603654b4                mbedtls_net_send
 .text.mbedtls_net_free
                0x603654de       0x16 ./SysLib/MercuryPlat/release/AL36V200_SDK.a(net.o)
                0x603654de                mbedtls_net_free
 .text          0x603654f4        0x0 ./SysLib/MercuryPlat/release/AL36V200_SDK.a(oid.o)
 .text.oid_sig_alg_from_asn1
                0x603654f4       0x30 ./SysLib/MercuryPlat/release/AL36V200_SDK.a(oid.o)
 .text.mbedtls_oid_get_attr_short_name
                0x60365524       0x34 ./SysLib/MercuryPlat/release/AL36V200_SDK.a(oid.o)
                0x60365524                mbedtls_oid_get_attr_short_name
 .text.mbedtls_oid_get_x509_ext_type
                0x60365558       0x34 ./SysLib/MercuryPlat/release/AL36V200_SDK.a(oid.o)
                0x60365558                mbedtls_oid_get_x509_ext_type
 .text.mbedtls_oid_get_extended_key_usage
                0x6036558c       0x34 ./SysLib/MercuryPlat/release/AL36V200_SDK.a(oid.o)
                0x6036558c                mbedtls_oid_get_extended_key_usage
 .text.mbedtls_oid_get_sig_alg_desc
                0x603655c0       0x18 ./SysLib/MercuryPlat/release/AL36V200_SDK.a(oid.o)
                0x603655c0                mbedtls_oid_get_sig_alg_desc
 .text.mbedtls_oid_get_sig_alg
                0x603655d8       0x1e ./SysLib/MercuryPlat/release/AL36V200_SDK.a(oid.o)
                0x603655d8                mbedtls_oid_get_sig_alg
 *fill*         0x603655f6        0x2 
 .text.mbedtls_oid_get_oid_by_sig_alg
                0x603655f8       0x2c ./SysLib/MercuryPlat/release/AL36V200_SDK.a(oid.o)
                0x603655f8                mbedtls_oid_get_oid_by_sig_alg
 .text.mbedtls_oid_get_pk_alg
                0x60365624       0x34 ./SysLib/MercuryPlat/release/AL36V200_SDK.a(oid.o)
                0x60365624                mbedtls_oid_get_pk_alg
 .text.mbedtls_oid_get_oid_by_pk_alg
                0x60365658       0x28 ./SysLib/MercuryPlat/release/AL36V200_SDK.a(oid.o)
                0x60365658                mbedtls_oid_get_oid_by_pk_alg
 .text.mbedtls_oid_get_ec_grp
                0x60365680       0x34 ./SysLib/MercuryPlat/release/AL36V200_SDK.a(oid.o)
                0x60365680                mbedtls_oid_get_ec_grp
 .text.mbedtls_oid_get_oid_by_ec_grp
                0x603656b4       0x28 ./SysLib/MercuryPlat/release/AL36V200_SDK.a(oid.o)
                0x603656b4                mbedtls_oid_get_oid_by_ec_grp
 .text.mbedtls_oid_get_cipher_alg
                0x603656dc       0x34 ./SysLib/MercuryPlat/release/AL36V200_SDK.a(oid.o)
                0x603656dc                mbedtls_oid_get_cipher_alg
 .text.mbedtls_oid_get_md_alg
                0x60365710       0x34 ./SysLib/MercuryPlat/release/AL36V200_SDK.a(oid.o)
                0x60365710                mbedtls_oid_get_md_alg
 .text.mbedtls_oid_get_oid_by_md
                0x60365744       0x28 ./SysLib/MercuryPlat/release/AL36V200_SDK.a(oid.o)
                0x60365744                mbedtls_oid_get_oid_by_md
 .text.mbedtls_oid_get_pkcs12_pbe_alg
                0x6036576c       0x38 ./SysLib/MercuryPlat/release/AL36V200_SDK.a(oid.o)
                0x6036576c                mbedtls_oid_get_pkcs12_pbe_alg
 .text.mbedtls_oid_get_numeric_string
                0x603657a4       0x98 ./SysLib/MercuryPlat/release/AL36V200_SDK.a(oid.o)
                0x603657a4                mbedtls_oid_get_numeric_string
 .rodata        0x6036583c       0x24 ./SysLib/MercuryPlat/release/AL36V200_SDK.a(oid.o)
 .rodata.mbedtls_oid_get_numeric_string.str1.1
                0x60365860       0x18 ./SysLib/MercuryPlat/release/AL36V200_SDK.a(oid.o)
                                  0xa (size before relaxing)
 .rodata.oid_cipher_alg
                0x60365860       0x3c ./SysLib/MercuryPlat/release/AL36V200_SDK.a(oid.o)
 .rodata.oid_ecp_grp
                0x6036589c       0xf0 ./SysLib/MercuryPlat/release/AL36V200_SDK.a(oid.o)
 .rodata.oid_ext_key_usage
                0x6036598c       0x70 ./SysLib/MercuryPlat/release/AL36V200_SDK.a(oid.o)
 .rodata.oid_md_alg
                0x603659fc       0xb4 ./SysLib/MercuryPlat/release/AL36V200_SDK.a(oid.o)
 .rodata.oid_pk_alg
                0x60365ab0       0x50 ./SysLib/MercuryPlat/release/AL36V200_SDK.a(oid.o)
 .rodata.oid_pkcs12_pbe_alg
                0x60365b00       0x3c ./SysLib/MercuryPlat/release/AL36V200_SDK.a(oid.o)
 .rodata.oid_sig_alg
                0x60365b3c       0xdc ./SysLib/MercuryPlat/release/AL36V200_SDK.a(oid.o)
 .rodata.oid_x509_ext
                0x60365c18       0x78 ./SysLib/MercuryPlat/release/AL36V200_SDK.a(oid.o)
 .rodata.oid_x520_attr_type
                0x60365c90      0x190 ./SysLib/MercuryPlat/release/AL36V200_SDK.a(oid.o)
 .rodata.str1.1
                0x60365e20      0x8b5 ./SysLib/MercuryPlat/release/AL36V200_SDK.a(oid.o)
                                0x979 (size before relaxing)
 .text          0x603666d5        0x0 ./SysLib/MercuryPlat/release/AL36V200_SDK.a(pem.o)
 *fill*         0x603666d5        0x1 
 .text.mbedtls_zeroize
                0x603666d6       0x10 ./SysLib/MercuryPlat/release/AL36V200_SDK.a(pem.o)
 *fill*         0x603666e6        0x2 
 .text.pem_get_iv
                0x603666e8       0x5c ./SysLib/MercuryPlat/release/AL36V200_SDK.a(pem.o)
 .text.pem_pbkdf1
                0x60366744       0xa2 ./SysLib/MercuryPlat/release/AL36V200_SDK.a(pem.o)
 .text.pem_des3_decrypt
                0x603667e6       0x4c ./SysLib/MercuryPlat/release/AL36V200_SDK.a(pem.o)
 .text.pem_aes_decrypt
                0x60366832       0x4e ./SysLib/MercuryPlat/release/AL36V200_SDK.a(pem.o)
 .text.mbedtls_pem_init
                0x60366880        0x8 ./SysLib/MercuryPlat/release/AL36V200_SDK.a(pem.o)
                0x60366880                mbedtls_pem_init
 .text.mbedtls_pem_read_buffer
                0x60366888      0x2e0 ./SysLib/MercuryPlat/release/AL36V200_SDK.a(pem.o)
                0x60366888                mbedtls_pem_read_buffer
 .text.mbedtls_pem_free
                0x60366b68       0x1c ./SysLib/MercuryPlat/release/AL36V200_SDK.a(pem.o)
                0x60366b68                mbedtls_pem_free
 .text.mbedtls_pem_write_buffer
                0x60366b84       0xf0 ./SysLib/MercuryPlat/release/AL36V200_SDK.a(pem.o)
                0x60366b84                mbedtls_pem_write_buffer
 .rodata.mbedtls_pem_read_buffer.str1.1
                0x60366c74       0x96 ./SysLib/MercuryPlat/release/AL36V200_SDK.a(pem.o)
 .text          0x60366d0a        0x0 ./SysLib/MercuryPlat/release/AL36V200_SDK.a(pk.o)
 .text.mbedtls_pk_init
                0x60366d0a        0xa ./SysLib/MercuryPlat/release/AL36V200_SDK.a(pk.o)
                0x60366d0a                mbedtls_pk_init
 .text.mbedtls_pk_free
                0x60366d14       0x22 ./SysLib/MercuryPlat/release/AL36V200_SDK.a(pk.o)
                0x60366d14                mbedtls_pk_free
 *fill*         0x60366d36        0x2 
 .text.mbedtls_pk_info_from_type
                0x60366d38       0x18 ./SysLib/MercuryPlat/release/AL36V200_SDK.a(pk.o)
                0x60366d38                mbedtls_pk_info_from_type
 .text.mbedtls_pk_setup
                0x60366d50       0x2c ./SysLib/MercuryPlat/release/AL36V200_SDK.a(pk.o)
                0x60366d50                mbedtls_pk_setup
 .text.mbedtls_pk_setup_rsa_alt
                0x60366d7c       0x44 ./SysLib/MercuryPlat/release/AL36V200_SDK.a(pk.o)
                0x60366d7c                mbedtls_pk_setup_rsa_alt
 .text.mbedtls_pk_can_do
                0x60366dc0       0x10 ./SysLib/MercuryPlat/release/AL36V200_SDK.a(pk.o)
                0x60366dc0                mbedtls_pk_can_do
 .text.mbedtls_pk_verify
                0x60366dd0       0x54 ./SysLib/MercuryPlat/release/AL36V200_SDK.a(pk.o)
                0x60366dd0                mbedtls_pk_verify
 .text.mbedtls_pk_sign
                0x60366e24       0x60 ./SysLib/MercuryPlat/release/AL36V200_SDK.a(pk.o)
                0x60366e24                mbedtls_pk_sign
 .text.mbedtls_pk_decrypt
                0x60366e84       0x2c ./SysLib/MercuryPlat/release/AL36V200_SDK.a(pk.o)
                0x60366e84                mbedtls_pk_decrypt
 .text.mbedtls_pk_encrypt
                0x60366eb0       0x2c ./SysLib/MercuryPlat/release/AL36V200_SDK.a(pk.o)
                0x60366eb0                mbedtls_pk_encrypt
 .text.mbedtls_pk_check_pair
                0x60366edc       0x40 ./SysLib/MercuryPlat/release/AL36V200_SDK.a(pk.o)
                0x60366edc                mbedtls_pk_check_pair
 .text.mbedtls_pk_get_bitlen
                0x60366f1c       0x10 ./SysLib/MercuryPlat/release/AL36V200_SDK.a(pk.o)
                0x60366f1c                mbedtls_pk_get_bitlen
 .text.mbedtls_pk_verify_ext
                0x60366f2c       0xb8 ./SysLib/MercuryPlat/release/AL36V200_SDK.a(pk.o)
                0x60366f2c                mbedtls_pk_verify_ext
 .text.mbedtls_pk_debug
                0x60366fe4       0x24 ./SysLib/MercuryPlat/release/AL36V200_SDK.a(pk.o)
                0x60366fe4                mbedtls_pk_debug
 .text.mbedtls_pk_get_name
                0x60367008       0x14 ./SysLib/MercuryPlat/release/AL36V200_SDK.a(pk.o)
                0x60367008                mbedtls_pk_get_name
 .text.mbedtls_pk_get_type
                0x6036701c        0xa ./SysLib/MercuryPlat/release/AL36V200_SDK.a(pk.o)
                0x6036701c                mbedtls_pk_get_type
 *fill*         0x60367026        0x2 
 .rodata.CSWTCH.11
                0x60367028       0x10 ./SysLib/MercuryPlat/release/AL36V200_SDK.a(pk.o)
 .rodata.mbedtls_pk_get_name.str1.1
                0x60367038        0xb ./SysLib/MercuryPlat/release/AL36V200_SDK.a(pk.o)
 .text          0x60367043        0x0 ./SysLib/MercuryPlat/release/AL36V200_SDK.a(pk_wrap.o)
 *fill*         0x60367043        0x1 
 .text.rsa_can_do
                0x60367044        0xc ./SysLib/MercuryPlat/release/AL36V200_SDK.a(pk_wrap.o)
 .text.rsa_get_bitlen
                0x60367050        0x6 ./SysLib/MercuryPlat/release/AL36V200_SDK.a(pk_wrap.o)
 *fill*         0x60367056        0x2 
 .text.rsa_debug
                0x60367058       0x24 ./SysLib/MercuryPlat/release/AL36V200_SDK.a(pk_wrap.o)
 .text.eckey_can_do
                0x6036707c        0xc ./SysLib/MercuryPlat/release/AL36V200_SDK.a(pk_wrap.o)
 .text.eckey_get_bitlen
                0x60367088        0x4 ./SysLib/MercuryPlat/release/AL36V200_SDK.a(pk_wrap.o)
 .text.eckey_debug
                0x6036708c       0x14 ./SysLib/MercuryPlat/release/AL36V200_SDK.a(pk_wrap.o)
 .text.eckeydh_can_do
                0x603670a0        0xc ./SysLib/MercuryPlat/release/AL36V200_SDK.a(pk_wrap.o)
 .text.ecdsa_can_do
                0x603670ac        0x8 ./SysLib/MercuryPlat/release/AL36V200_SDK.a(pk_wrap.o)
 .text.rsa_alt_can_do
                0x603670b4        0x8 ./SysLib/MercuryPlat/release/AL36V200_SDK.a(pk_wrap.o)
 .text.rsa_alt_get_bitlen
                0x603670bc        0xc ./SysLib/MercuryPlat/release/AL36V200_SDK.a(pk_wrap.o)
 .text.rsa_alt_sign_wrap
                0x603670c8       0x3a ./SysLib/MercuryPlat/release/AL36V200_SDK.a(pk_wrap.o)
 *fill*         0x60367102        0x2 
 .text.rsa_alt_decrypt_wrap
                0x60367104       0x3c ./SysLib/MercuryPlat/release/AL36V200_SDK.a(pk_wrap.o)
 .text.rsa_free_wrap
                0x60367140       0x12 ./SysLib/MercuryPlat/release/AL36V200_SDK.a(pk_wrap.o)
 .text.rsa_alloc_wrap
                0x60367152       0x1a ./SysLib/MercuryPlat/release/AL36V200_SDK.a(pk_wrap.o)
 .text.rsa_check_pair_wrap
                0x6036716c        0x4 ./SysLib/MercuryPlat/release/AL36V200_SDK.a(pk_wrap.o)
 .text.rsa_encrypt_wrap
                0x60367170       0x30 ./SysLib/MercuryPlat/release/AL36V200_SDK.a(pk_wrap.o)
 .text.rsa_decrypt_wrap
                0x603671a0       0x2c ./SysLib/MercuryPlat/release/AL36V200_SDK.a(pk_wrap.o)
 .text.rsa_sign_wrap
                0x603671cc       0x22 ./SysLib/MercuryPlat/release/AL36V200_SDK.a(pk_wrap.o)
 *fill*         0x603671ee        0x2 
 .text.rsa_verify_wrap
                0x603671f0       0x3c ./SysLib/MercuryPlat/release/AL36V200_SDK.a(pk_wrap.o)
 .text.eckey_free_wrap
                0x6036722c       0x12 ./SysLib/MercuryPlat/release/AL36V200_SDK.a(pk_wrap.o)
 .text.eckey_alloc_wrap
                0x6036723e       0x16 ./SysLib/MercuryPlat/release/AL36V200_SDK.a(pk_wrap.o)
 .text.eckey_check_pair
                0x60367254        0x4 ./SysLib/MercuryPlat/release/AL36V200_SDK.a(pk_wrap.o)
 .text.ecdsa_alloc_wrap
                0x60367258       0x16 ./SysLib/MercuryPlat/release/AL36V200_SDK.a(pk_wrap.o)
 .text.ecdsa_free_wrap
                0x6036726e       0x12 ./SysLib/MercuryPlat/release/AL36V200_SDK.a(pk_wrap.o)
 .text.ecdsa_sign_wrap
                0x60367280        0x4 ./SysLib/MercuryPlat/release/AL36V200_SDK.a(pk_wrap.o)
 .text.eckey_sign_wrap
                0x60367284       0x48 ./SysLib/MercuryPlat/release/AL36V200_SDK.a(pk_wrap.o)
 .text.ecdsa_verify_wrap
                0x603672cc       0x20 ./SysLib/MercuryPlat/release/AL36V200_SDK.a(pk_wrap.o)
 .text.eckey_verify_wrap
                0x603672ec       0x40 ./SysLib/MercuryPlat/release/AL36V200_SDK.a(pk_wrap.o)
 .text.rsa_alt_alloc_wrap
                0x6036732c       0x1a ./SysLib/MercuryPlat/release/AL36V200_SDK.a(pk_wrap.o)
 *fill*         0x60367346        0x2 
 .text.rsa_alt_check_pair
                0x60367348       0x6c ./SysLib/MercuryPlat/release/AL36V200_SDK.a(pk_wrap.o)
 .text.rsa_alt_free_wrap
                0x603673b4       0x16 ./SysLib/MercuryPlat/release/AL36V200_SDK.a(pk_wrap.o)
 .rodata.eckey_debug.str1.1
                0x603673ca        0x8 ./SysLib/MercuryPlat/release/AL36V200_SDK.a(pk_wrap.o)
 *fill*         0x603673d2        0x2 
 .rodata.mbedtls_ecdsa_info
                0x603673d4       0x30 ./SysLib/MercuryPlat/release/AL36V200_SDK.a(pk_wrap.o)
                0x603673d4                mbedtls_ecdsa_info
 .rodata.mbedtls_eckey_info
                0x60367404       0x30 ./SysLib/MercuryPlat/release/AL36V200_SDK.a(pk_wrap.o)
                0x60367404                mbedtls_eckey_info
 .rodata.mbedtls_eckeydh_info
                0x60367434       0x30 ./SysLib/MercuryPlat/release/AL36V200_SDK.a(pk_wrap.o)
                0x60367434                mbedtls_eckeydh_info
 .rodata.mbedtls_rsa_alt_info
                0x60367464       0x30 ./SysLib/MercuryPlat/release/AL36V200_SDK.a(pk_wrap.o)
                0x60367464                mbedtls_rsa_alt_info
 .rodata.mbedtls_rsa_info
                0x60367494       0x30 ./SysLib/MercuryPlat/release/AL36V200_SDK.a(pk_wrap.o)
                0x60367494                mbedtls_rsa_info
 .rodata.rsa_debug.str1.1
                0x603674c4        0xc ./SysLib/MercuryPlat/release/AL36V200_SDK.a(pk_wrap.o)
 .rodata.str1.1
                0x603674d0       0x14 ./SysLib/MercuryPlat/release/AL36V200_SDK.a(pk_wrap.o)
                                 0x1b (size before relaxing)
 .text          0x603674e4        0x0 ./SysLib/MercuryPlat/release/AL36V200_SDK.a(pkparse.o)
 .text.pk_use_ecparams
                0x603674e4      0x2e0 ./SysLib/MercuryPlat/release/AL36V200_SDK.a(pkparse.o)
 .text.pk_parse_key_pkcs1_der
                0x603677c4       0xfc ./SysLib/MercuryPlat/release/AL36V200_SDK.a(pkparse.o)
 .text.pk_parse_key_sec1_der
                0x603678c0      0x178 ./SysLib/MercuryPlat/release/AL36V200_SDK.a(pkparse.o)
 .text.pk_get_pk_alg
                0x60367a38       0x54 ./SysLib/MercuryPlat/release/AL36V200_SDK.a(pkparse.o)
 .text.pk_parse_key_pkcs8_unencrypted_der
                0x60367a8c       0xd8 ./SysLib/MercuryPlat/release/AL36V200_SDK.a(pkparse.o)
 .text.pk_parse_key_pkcs8_encrypted_der
                0x60367b64      0x140 ./SysLib/MercuryPlat/release/AL36V200_SDK.a(pkparse.o)
 .text.mbedtls_pk_parse_subpubkey
                0x60367ca4      0x14c ./SysLib/MercuryPlat/release/AL36V200_SDK.a(pkparse.o)
                0x60367ca4                mbedtls_pk_parse_subpubkey
 .text.mbedtls_pk_parse_key
                0x60367df0      0x228 ./SysLib/MercuryPlat/release/AL36V200_SDK.a(pkparse.o)
                0x60367df0                mbedtls_pk_parse_key
 .text.mbedtls_pk_parse_public_key
                0x60368018       0x64 ./SysLib/MercuryPlat/release/AL36V200_SDK.a(pkparse.o)
                0x60368018                mbedtls_pk_parse_public_key
 .rodata.mbedtls_pk_parse_key.str1.1
                0x6036807c       0xfa ./SysLib/MercuryPlat/release/AL36V200_SDK.a(pkparse.o)
 .rodata.mbedtls_pk_parse_public_key.str1.1
                0x60368176       0x34 ./SysLib/MercuryPlat/release/AL36V200_SDK.a(pkparse.o)
 .rodata.pk_parse_key_pkcs8_encrypted_der.str1.1
                0x603681aa       0x15 ./SysLib/MercuryPlat/release/AL36V200_SDK.a(pkparse.o)
 .rodata.pk_use_ecparams.str1.1
                0x603681bf        0x8 ./SysLib/MercuryPlat/release/AL36V200_SDK.a(pkparse.o)
 .text          0x603681c7        0x0 ./SysLib/MercuryPlat/release/AL36V200_SDK.a(ripemd160.o)
 *fill*         0x603681c7        0x1 
 .text.mbedtls_ripemd160_init
                0x603681c8        0x8 ./SysLib/MercuryPlat/release/AL36V200_SDK.a(ripemd160.o)
                0x603681c8                mbedtls_ripemd160_init
 .text.mbedtls_ripemd160_free
                0x603681d0       0x14 ./SysLib/MercuryPlat/release/AL36V200_SDK.a(ripemd160.o)
                0x603681d0                mbedtls_ripemd160_free
 .text.mbedtls_ripemd160_clone
                0x603681e4        0xa ./SysLib/MercuryPlat/release/AL36V200_SDK.a(ripemd160.o)
                0x603681e4                mbedtls_ripemd160_clone
 *fill*         0x603681ee        0x2 
 .text.mbedtls_ripemd160_starts
                0x603681f0       0x34 ./SysLib/MercuryPlat/release/AL36V200_SDK.a(ripemd160.o)
                0x603681f0                mbedtls_ripemd160_starts
 .text.mbedtls_ripemd160_process
                0x60368224     0x11f4 ./SysLib/MercuryPlat/release/AL36V200_SDK.a(ripemd160.o)
                0x60368224                mbedtls_ripemd160_process
 .text.mbedtls_ripemd160_update.part.0
                0x60369418       0x86 ./SysLib/MercuryPlat/release/AL36V200_SDK.a(ripemd160.o)
 .text.mbedtls_ripemd160_update
                0x6036949e        0x8 ./SysLib/MercuryPlat/release/AL36V200_SDK.a(ripemd160.o)
                0x6036949e                mbedtls_ripemd160_update
 *fill*         0x603694a6        0x2 
 .text.mbedtls_ripemd160_finish
                0x603694a8       0xc4 ./SysLib/MercuryPlat/release/AL36V200_SDK.a(ripemd160.o)
                0x603694a8                mbedtls_ripemd160_finish
 .text.mbedtls_ripemd160
                0x6036956c       0x32 ./SysLib/MercuryPlat/release/AL36V200_SDK.a(ripemd160.o)
                0x6036956c                mbedtls_ripemd160
 .rodata.ripemd160_padding
                0x6036959e       0x40 ./SysLib/MercuryPlat/release/AL36V200_SDK.a(ripemd160.o)
 .text          0x603695de        0x0 ./SysLib/MercuryPlat/release/AL36V200_SDK.a(rsa.o)
 .text.mgf_mask
                0x603695de       0x90 ./SysLib/MercuryPlat/release/AL36V200_SDK.a(rsa.o)
 .text.mbedtls_rsa_init
                0x6036966e       0x14 ./SysLib/MercuryPlat/release/AL36V200_SDK.a(rsa.o)
                0x6036966e                mbedtls_rsa_init
 .text.mbedtls_rsa_set_padding
                0x60369682        0x6 ./SysLib/MercuryPlat/release/AL36V200_SDK.a(rsa.o)
                0x60369682                mbedtls_rsa_set_padding
 .text.mbedtls_rsa_check_pubkey
                0x60369688       0x58 ./SysLib/MercuryPlat/release/AL36V200_SDK.a(rsa.o)
                0x60369688                mbedtls_rsa_check_pubkey
 .text.mbedtls_rsa_check_privkey
                0x603696e0      0x210 ./SysLib/MercuryPlat/release/AL36V200_SDK.a(rsa.o)
                0x603696e0                mbedtls_rsa_check_privkey
 .text.mbedtls_rsa_check_pub_priv
                0x603698f0       0x38 ./SysLib/MercuryPlat/release/AL36V200_SDK.a(rsa.o)
                0x603698f0                mbedtls_rsa_check_pub_priv
 .text.mbedtls_rsa_public
                0x60369928       0x6c ./SysLib/MercuryPlat/release/AL36V200_SDK.a(rsa.o)
                0x60369928                mbedtls_rsa_public
 .text.mbedtls_rsa_private
                0x60369994      0x234 ./SysLib/MercuryPlat/release/AL36V200_SDK.a(rsa.o)
                0x60369994                mbedtls_rsa_private
 .text.mbedtls_rsa_rsaes_oaep_encrypt
                0x60369bc8      0x120 ./SysLib/MercuryPlat/release/AL36V200_SDK.a(rsa.o)
                0x60369bc8                mbedtls_rsa_rsaes_oaep_encrypt
 .text.mbedtls_rsa_rsaes_pkcs1_v15_encrypt
                0x60369ce8       0xe4 ./SysLib/MercuryPlat/release/AL36V200_SDK.a(rsa.o)
                0x60369ce8                mbedtls_rsa_rsaes_pkcs1_v15_encrypt
 .text.mbedtls_rsa_pkcs1_encrypt
                0x60369dcc       0x3c ./SysLib/MercuryPlat/release/AL36V200_SDK.a(rsa.o)
                0x60369dcc                mbedtls_rsa_pkcs1_encrypt
 .text.mbedtls_rsa_rsaes_oaep_decrypt
                0x60369e08      0x164 ./SysLib/MercuryPlat/release/AL36V200_SDK.a(rsa.o)
                0x60369e08                mbedtls_rsa_rsaes_oaep_decrypt
 .text.mbedtls_rsa_rsaes_pkcs1_v15_decrypt
                0x60369f6c      0x114 ./SysLib/MercuryPlat/release/AL36V200_SDK.a(rsa.o)
                0x60369f6c                mbedtls_rsa_rsaes_pkcs1_v15_decrypt
 .text.mbedtls_rsa_pkcs1_decrypt
                0x6036a080       0x40 ./SysLib/MercuryPlat/release/AL36V200_SDK.a(rsa.o)
                0x6036a080                mbedtls_rsa_pkcs1_decrypt
 .text.mbedtls_rsa_rsassa_pss_sign
                0x6036a0c0      0x160 ./SysLib/MercuryPlat/release/AL36V200_SDK.a(rsa.o)
                0x6036a0c0                mbedtls_rsa_rsassa_pss_sign
 .text.mbedtls_rsa_rsassa_pkcs1_v15_sign
                0x6036a220      0x188 ./SysLib/MercuryPlat/release/AL36V200_SDK.a(rsa.o)
                0x6036a220                mbedtls_rsa_rsassa_pkcs1_v15_sign
 .text.mbedtls_rsa_pkcs1_sign
                0x6036a3a8       0x2c ./SysLib/MercuryPlat/release/AL36V200_SDK.a(rsa.o)
                0x6036a3a8                mbedtls_rsa_pkcs1_sign
 .text.mbedtls_rsa_rsassa_pss_verify_ext
                0x6036a3d4      0x1ac ./SysLib/MercuryPlat/release/AL36V200_SDK.a(rsa.o)
                0x6036a3d4                mbedtls_rsa_rsassa_pss_verify_ext
 .text.mbedtls_rsa_rsassa_pss_verify
                0x6036a580       0x32 ./SysLib/MercuryPlat/release/AL36V200_SDK.a(rsa.o)
                0x6036a580                mbedtls_rsa_rsassa_pss_verify
 *fill*         0x6036a5b2        0x2 
 .text.mbedtls_rsa_rsassa_pkcs1_v15_verify
                0x6036a5b4      0x168 ./SysLib/MercuryPlat/release/AL36V200_SDK.a(rsa.o)
                0x6036a5b4                mbedtls_rsa_rsassa_pkcs1_v15_verify
 .text.mbedtls_rsa_pkcs1_verify
                0x6036a71c       0x2c ./SysLib/MercuryPlat/release/AL36V200_SDK.a(rsa.o)
                0x6036a71c                mbedtls_rsa_pkcs1_verify
 .text.mbedtls_rsa_free
                0x6036a748       0x6e ./SysLib/MercuryPlat/release/AL36V200_SDK.a(rsa.o)
                0x6036a748                mbedtls_rsa_free
 *fill*         0x6036a7b6        0x2 
 .text.mbedtls_rsa_gen_key
                0x6036a7b8      0x198 ./SysLib/MercuryPlat/release/AL36V200_SDK.a(rsa.o)
                0x6036a7b8                mbedtls_rsa_gen_key
 .text.mbedtls_rsa_copy
                0x6036a950      0x102 ./SysLib/MercuryPlat/release/AL36V200_SDK.a(rsa.o)
                0x6036a950                mbedtls_rsa_copy
 .text          0x6036aa52        0x0 ./SysLib/MercuryPlat/release/AL36V200_SDK.a(sha1.o)
 .text.mbedtls_sha1_init
                0x6036aa52        0x8 ./SysLib/MercuryPlat/release/AL36V200_SDK.a(sha1.o)
                0x6036aa52                mbedtls_sha1_init
 .text.mbedtls_sha1_free
                0x6036aa5a       0x14 ./SysLib/MercuryPlat/release/AL36V200_SDK.a(sha1.o)
                0x6036aa5a                mbedtls_sha1_free
 .text.mbedtls_sha1_clone
                0x6036aa6e        0xa ./SysLib/MercuryPlat/release/AL36V200_SDK.a(sha1.o)
                0x6036aa6e                mbedtls_sha1_clone
 .text.mbedtls_sha1_starts
                0x6036aa78       0x34 ./SysLib/MercuryPlat/release/AL36V200_SDK.a(sha1.o)
                0x6036aa78                mbedtls_sha1_starts
 .text.mbedtls_sha1_process
                0x6036aaac      0xf64 ./SysLib/MercuryPlat/release/AL36V200_SDK.a(sha1.o)
                0x6036aaac                mbedtls_sha1_process
 .text.mbedtls_sha1_update.part.0
                0x6036ba10       0x86 ./SysLib/MercuryPlat/release/AL36V200_SDK.a(sha1.o)
 .text.mbedtls_sha1_update
                0x6036ba96        0x8 ./SysLib/MercuryPlat/release/AL36V200_SDK.a(sha1.o)
                0x6036ba96                mbedtls_sha1_update
 *fill*         0x6036ba9e        0x2 
 .text.mbedtls_sha1_finish
                0x6036baa0       0xc4 ./SysLib/MercuryPlat/release/AL36V200_SDK.a(sha1.o)
                0x6036baa0                mbedtls_sha1_finish
 .text.mbedtls_sha1
                0x6036bb64       0x32 ./SysLib/MercuryPlat/release/AL36V200_SDK.a(sha1.o)
                0x6036bb64                mbedtls_sha1
 .rodata.sha1_padding
                0x6036bb96       0x40 ./SysLib/MercuryPlat/release/AL36V200_SDK.a(sha1.o)
 .text          0x6036bbd6        0x0 ./SysLib/MercuryPlat/release/AL36V200_SDK.a(sha512.o)
 .text.mbedtls_sha512_init
                0x6036bbd6        0x8 ./SysLib/MercuryPlat/release/AL36V200_SDK.a(sha512.o)
                0x6036bbd6                mbedtls_sha512_init
 .text.mbedtls_sha512_free
                0x6036bbde       0x14 ./SysLib/MercuryPlat/release/AL36V200_SDK.a(sha512.o)
                0x6036bbde                mbedtls_sha512_free
 .text.mbedtls_sha512_clone
                0x6036bbf2        0xa ./SysLib/MercuryPlat/release/AL36V200_SDK.a(sha512.o)
                0x6036bbf2                mbedtls_sha512_clone
 *fill*         0x6036bbfc        0x4 
 .text.mbedtls_sha512_starts
                0x6036bc00      0x138 ./SysLib/MercuryPlat/release/AL36V200_SDK.a(sha512.o)
                0x6036bc00                mbedtls_sha512_starts
 .text.mbedtls_sha512_process
                0x6036bd38      0xcf8 ./SysLib/MercuryPlat/release/AL36V200_SDK.a(sha512.o)
                0x6036bd38                mbedtls_sha512_process
 .text.mbedtls_sha512_update.part.0
                0x6036ca30       0xac ./SysLib/MercuryPlat/release/AL36V200_SDK.a(sha512.o)
 .text.mbedtls_sha512_update
                0x6036cadc        0x8 ./SysLib/MercuryPlat/release/AL36V200_SDK.a(sha512.o)
                0x6036cadc                mbedtls_sha512_update
 .text.mbedtls_sha512_finish
                0x6036cae4      0x300 ./SysLib/MercuryPlat/release/AL36V200_SDK.a(sha512.o)
                0x6036cae4                mbedtls_sha512_finish
 .text.mbedtls_sha512
                0x6036cde4       0x36 ./SysLib/MercuryPlat/release/AL36V200_SDK.a(sha512.o)
                0x6036cde4                mbedtls_sha512
 *fill*         0x6036ce1a        0x6 
 .rodata.K      0x6036ce20      0x280 ./SysLib/MercuryPlat/release/AL36V200_SDK.a(sha512.o)
 .rodata.sha512_padding
                0x6036d0a0       0x80 ./SysLib/MercuryPlat/release/AL36V200_SDK.a(sha512.o)
 .text          0x6036d120        0x0 ./SysLib/MercuryPlat/release/AL36V200_SDK.a(ssl_tls.o)
 .text.mbedtls_cipher_get_cipher_mode
                0x6036d120        0xa ./SysLib/MercuryPlat/release/AL36V200_SDK.a(ssl_tls.o)
 .text.mbedtls_zeroize
                0x6036d12a       0x10 ./SysLib/MercuryPlat/release/AL36V200_SDK.a(ssl_tls.o)
 *fill*         0x6036d13a        0x2 
 .text.ssl_prepare_handshake_record
                0x6036d13c       0xa4 ./SysLib/MercuryPlat/release/AL36V200_SDK.a(ssl_tls.o)
 .text.ssl_calc_finished_tls_sha256
                0x6036d1e0       0xd8 ./SysLib/MercuryPlat/release/AL36V200_SDK.a(ssl_tls.o)
 .text.ssl_calc_verify_tls_sha256
                0x6036d2b8       0x7c ./SysLib/MercuryPlat/release/AL36V200_SDK.a(ssl_tls.o)
 .text.tls_prf_generic
                0x6036d334      0x118 ./SysLib/MercuryPlat/release/AL36V200_SDK.a(ssl_tls.o)
 .text.tls_prf_sha256
                0x6036d44c       0x20 ./SysLib/MercuryPlat/release/AL36V200_SDK.a(ssl_tls.o)
 .text.tls_prf_sha384
                0x6036d46c       0x20 ./SysLib/MercuryPlat/release/AL36V200_SDK.a(ssl_tls.o)
 .text.tls1_prf
                0x6036d48c      0x1e0 ./SysLib/MercuryPlat/release/AL36V200_SDK.a(ssl_tls.o)
 .text.ssl_calc_finished_tls_sha384
                0x6036d66c       0xd8 ./SysLib/MercuryPlat/release/AL36V200_SDK.a(ssl_tls.o)
 .text.ssl_calc_verify_tls_sha384
                0x6036d744       0x7c ./SysLib/MercuryPlat/release/AL36V200_SDK.a(ssl_tls.o)
 .text.ssl_calc_finished_tls
                0x6036d7c0      0x118 ./SysLib/MercuryPlat/release/AL36V200_SDK.a(ssl_tls.o)
 .text.ssl_calc_verify_tls
                0x6036d8d8       0x9c ./SysLib/MercuryPlat/release/AL36V200_SDK.a(ssl_tls.o)
 .text.ssl_append_key_cert
                0x6036d974       0x3c ./SysLib/MercuryPlat/release/AL36V200_SDK.a(ssl_tls.o)
 .text.ssl_update_checksum_sha256
                0x6036d9b0        0xa ./SysLib/MercuryPlat/release/AL36V200_SDK.a(ssl_tls.o)
 .text.ssl_update_checksum_sha384
                0x6036d9ba        0xa ./SysLib/MercuryPlat/release/AL36V200_SDK.a(ssl_tls.o)
 .text.ssl_update_checksum_md5sha1
                0x6036d9c4       0x24 ./SysLib/MercuryPlat/release/AL36V200_SDK.a(ssl_tls.o)
 .text.ssl_update_checksum_start
                0x6036d9e8       0x40 ./SysLib/MercuryPlat/release/AL36V200_SDK.a(ssl_tls.o)
 .text.ssl_set_timer
                0x6036da28       0x38 ./SysLib/MercuryPlat/release/AL36V200_SDK.a(ssl_tls.o)
 .text.mbedtls_ssl_derive_keys
                0x6036da60      0x58c ./SysLib/MercuryPlat/release/AL36V200_SDK.a(ssl_tls.o)
                0x6036da60                mbedtls_ssl_derive_keys
 .text.mbedtls_ssl_psk_derive_premaster
                0x6036dfec      0x188 ./SysLib/MercuryPlat/release/AL36V200_SDK.a(ssl_tls.o)
                0x6036dfec                mbedtls_ssl_psk_derive_premaster
 .text.mbedtls_ssl_fetch_input
                0x6036e174      0x148 ./SysLib/MercuryPlat/release/AL36V200_SDK.a(ssl_tls.o)
                0x6036e174                mbedtls_ssl_fetch_input
 .text.mbedtls_ssl_flush_output
                0x6036e2bc      0x118 ./SysLib/MercuryPlat/release/AL36V200_SDK.a(ssl_tls.o)
                0x6036e2bc                mbedtls_ssl_flush_output
 .text.mbedtls_ssl_write_record
                0x6036e3d4      0x648 ./SysLib/MercuryPlat/release/AL36V200_SDK.a(ssl_tls.o)
                0x6036e3d4                mbedtls_ssl_write_record
 .text.mbedtls_ssl_send_alert_message
                0x6036ea1c       0x84 ./SysLib/MercuryPlat/release/AL36V200_SDK.a(ssl_tls.o)
                0x6036ea1c                mbedtls_ssl_send_alert_message
 .text.mbedtls_ssl_send_fatal_handshake_failure
                0x6036eaa0        0x8 ./SysLib/MercuryPlat/release/AL36V200_SDK.a(ssl_tls.o)
                0x6036eaa0                mbedtls_ssl_send_fatal_handshake_failure
 .text.mbedtls_ssl_read_record
                0x6036eaa8      0x9c4 ./SysLib/MercuryPlat/release/AL36V200_SDK.a(ssl_tls.o)
                0x6036eaa8                mbedtls_ssl_read_record
 .text.mbedtls_ssl_write_certificate
                0x6036f46c      0x194 ./SysLib/MercuryPlat/release/AL36V200_SDK.a(ssl_tls.o)
                0x6036f46c                mbedtls_ssl_write_certificate
 .text.mbedtls_ssl_write_change_cipher_spec
                0x6036f600       0x70 ./SysLib/MercuryPlat/release/AL36V200_SDK.a(ssl_tls.o)
                0x6036f600                mbedtls_ssl_write_change_cipher_spec
 .text.mbedtls_ssl_parse_change_cipher_spec
                0x6036f670       0xec ./SysLib/MercuryPlat/release/AL36V200_SDK.a(ssl_tls.o)
                0x6036f670                mbedtls_ssl_parse_change_cipher_spec
 .text.mbedtls_ssl_optimize_checksum
                0x6036f75c       0x28 ./SysLib/MercuryPlat/release/AL36V200_SDK.a(ssl_tls.o)
                0x6036f75c                mbedtls_ssl_optimize_checksum
 .text.mbedtls_ssl_reset_checksum
                0x6036f784       0x34 ./SysLib/MercuryPlat/release/AL36V200_SDK.a(ssl_tls.o)
                0x6036f784                mbedtls_ssl_reset_checksum
 .text.mbedtls_ssl_write_finished
                0x6036f7b8      0x104 ./SysLib/MercuryPlat/release/AL36V200_SDK.a(ssl_tls.o)
                0x6036f7b8                mbedtls_ssl_write_finished
 .text.mbedtls_ssl_parse_finished
                0x6036f8bc      0x118 ./SysLib/MercuryPlat/release/AL36V200_SDK.a(ssl_tls.o)
                0x6036f8bc                mbedtls_ssl_parse_finished
 .text.mbedtls_ssl_session_init
                0x6036f9d4        0x8 ./SysLib/MercuryPlat/release/AL36V200_SDK.a(ssl_tls.o)
                0x6036f9d4                mbedtls_ssl_session_init
 .text.mbedtls_ssl_init
                0x6036f9dc        0x8 ./SysLib/MercuryPlat/release/AL36V200_SDK.a(ssl_tls.o)
                0x6036f9dc                mbedtls_ssl_init
 .text.mbedtls_ssl_conf_endpoint
                0x6036f9e4        0xe ./SysLib/MercuryPlat/release/AL36V200_SDK.a(ssl_tls.o)
                0x6036f9e4                mbedtls_ssl_conf_endpoint
 .text.mbedtls_ssl_conf_transport
                0x6036f9f2        0xe ./SysLib/MercuryPlat/release/AL36V200_SDK.a(ssl_tls.o)
                0x6036f9f2                mbedtls_ssl_conf_transport
 .text.mbedtls_ssl_conf_authmode
                0x6036fa00        0xe ./SysLib/MercuryPlat/release/AL36V200_SDK.a(ssl_tls.o)
                0x6036fa00                mbedtls_ssl_conf_authmode
 .text.mbedtls_ssl_conf_verify
                0x6036fa0e        0x6 ./SysLib/MercuryPlat/release/AL36V200_SDK.a(ssl_tls.o)
                0x6036fa0e                mbedtls_ssl_conf_verify
 .text.mbedtls_ssl_conf_rng
                0x6036fa14        0x6 ./SysLib/MercuryPlat/release/AL36V200_SDK.a(ssl_tls.o)
                0x6036fa14                mbedtls_ssl_conf_rng
 .text.mbedtls_ssl_conf_dbg
                0x6036fa1a        0x6 ./SysLib/MercuryPlat/release/AL36V200_SDK.a(ssl_tls.o)
                0x6036fa1a                mbedtls_ssl_conf_dbg
 .text.mbedtls_ssl_set_bio
                0x6036fa20        0xc ./SysLib/MercuryPlat/release/AL36V200_SDK.a(ssl_tls.o)
                0x6036fa20                mbedtls_ssl_set_bio
 .text.mbedtls_ssl_conf_read_timeout
                0x6036fa2c        0x6 ./SysLib/MercuryPlat/release/AL36V200_SDK.a(ssl_tls.o)
                0x6036fa2c                mbedtls_ssl_conf_read_timeout
 .text.mbedtls_ssl_set_timer_cb
                0x6036fa32       0x12 ./SysLib/MercuryPlat/release/AL36V200_SDK.a(ssl_tls.o)
                0x6036fa32                mbedtls_ssl_set_timer_cb
 .text.mbedtls_ssl_conf_ciphersuites
                0x6036fa44        0xa ./SysLib/MercuryPlat/release/AL36V200_SDK.a(ssl_tls.o)
                0x6036fa44                mbedtls_ssl_conf_ciphersuites
 .text.mbedtls_ssl_conf_ciphersuites_for_version
                0x6036fa4e        0xe ./SysLib/MercuryPlat/release/AL36V200_SDK.a(ssl_tls.o)
                0x6036fa4e                mbedtls_ssl_conf_ciphersuites_for_version
 .text.mbedtls_ssl_conf_cert_profile
                0x6036fa5c        0x4 ./SysLib/MercuryPlat/release/AL36V200_SDK.a(ssl_tls.o)
                0x6036fa5c                mbedtls_ssl_conf_cert_profile
 .text.mbedtls_ssl_conf_own_cert
                0x6036fa60        0x6 ./SysLib/MercuryPlat/release/AL36V200_SDK.a(ssl_tls.o)
                0x6036fa60                mbedtls_ssl_conf_own_cert
 .text.mbedtls_ssl_conf_ca_chain
                0x6036fa66        0x6 ./SysLib/MercuryPlat/release/AL36V200_SDK.a(ssl_tls.o)
                0x6036fa66                mbedtls_ssl_conf_ca_chain
 .text.mbedtls_ssl_set_hs_own_cert
                0x6036fa6c        0xa ./SysLib/MercuryPlat/release/AL36V200_SDK.a(ssl_tls.o)
                0x6036fa6c                mbedtls_ssl_set_hs_own_cert
 .text.mbedtls_ssl_set_hs_ca_chain
                0x6036fa76        0x8 ./SysLib/MercuryPlat/release/AL36V200_SDK.a(ssl_tls.o)
                0x6036fa76                mbedtls_ssl_set_hs_ca_chain
 .text.mbedtls_ssl_set_hs_authmode
                0x6036fa7e        0x8 ./SysLib/MercuryPlat/release/AL36V200_SDK.a(ssl_tls.o)
                0x6036fa7e                mbedtls_ssl_set_hs_authmode
 *fill*         0x6036fa86        0x2 
 .text.mbedtls_ssl_conf_psk
                0x6036fa88       0xa8 ./SysLib/MercuryPlat/release/AL36V200_SDK.a(ssl_tls.o)
                0x6036fa88                mbedtls_ssl_conf_psk
 .text.mbedtls_ssl_set_hs_psk
                0x6036fb30       0x4c ./SysLib/MercuryPlat/release/AL36V200_SDK.a(ssl_tls.o)
                0x6036fb30                mbedtls_ssl_set_hs_psk
 .text.mbedtls_ssl_conf_psk_cb
                0x6036fb7c        0x6 ./SysLib/MercuryPlat/release/AL36V200_SDK.a(ssl_tls.o)
                0x6036fb7c                mbedtls_ssl_conf_psk_cb
 .text.mbedtls_ssl_conf_dhm_min_bitlen
                0x6036fb82        0x6 ./SysLib/MercuryPlat/release/AL36V200_SDK.a(ssl_tls.o)
                0x6036fb82                mbedtls_ssl_conf_dhm_min_bitlen
 .text.mbedtls_ssl_conf_sig_hashes
                0x6036fb88        0x4 ./SysLib/MercuryPlat/release/AL36V200_SDK.a(ssl_tls.o)
                0x6036fb88                mbedtls_ssl_conf_sig_hashes
 .text.mbedtls_ssl_conf_curves
                0x6036fb8c        0x4 ./SysLib/MercuryPlat/release/AL36V200_SDK.a(ssl_tls.o)
                0x6036fb8c                mbedtls_ssl_conf_curves
 .text.mbedtls_ssl_set_hostname
                0x6036fb90       0x44 ./SysLib/MercuryPlat/release/AL36V200_SDK.a(ssl_tls.o)
                0x6036fb90                mbedtls_ssl_set_hostname
 .text.mbedtls_ssl_conf_sni
                0x6036fbd4        0x6 ./SysLib/MercuryPlat/release/AL36V200_SDK.a(ssl_tls.o)
                0x6036fbd4                mbedtls_ssl_conf_sni
 *fill*         0x6036fbda        0x2 
 .text.mbedtls_ssl_conf_alpn_protocols
                0x6036fbdc       0x30 ./SysLib/MercuryPlat/release/AL36V200_SDK.a(ssl_tls.o)
                0x6036fbdc                mbedtls_ssl_conf_alpn_protocols
 .text.mbedtls_ssl_get_alpn_protocol
                0x6036fc0c        0x6 ./SysLib/MercuryPlat/release/AL36V200_SDK.a(ssl_tls.o)
                0x6036fc0c                mbedtls_ssl_get_alpn_protocol
 .text.mbedtls_ssl_conf_max_version
                0x6036fc12        0xa ./SysLib/MercuryPlat/release/AL36V200_SDK.a(ssl_tls.o)
                0x6036fc12                mbedtls_ssl_conf_max_version
 .text.mbedtls_ssl_conf_min_version
                0x6036fc1c        0xa ./SysLib/MercuryPlat/release/AL36V200_SDK.a(ssl_tls.o)
                0x6036fc1c                mbedtls_ssl_conf_min_version
 .text.mbedtls_ssl_conf_fallback
                0x6036fc26        0xe ./SysLib/MercuryPlat/release/AL36V200_SDK.a(ssl_tls.o)
                0x6036fc26                mbedtls_ssl_conf_fallback
 .text.mbedtls_ssl_conf_encrypt_then_mac
                0x6036fc34        0xe ./SysLib/MercuryPlat/release/AL36V200_SDK.a(ssl_tls.o)
                0x6036fc34                mbedtls_ssl_conf_encrypt_then_mac
 .text.mbedtls_ssl_conf_extended_master_secret
                0x6036fc42        0xe ./SysLib/MercuryPlat/release/AL36V200_SDK.a(ssl_tls.o)
                0x6036fc42                mbedtls_ssl_conf_extended_master_secret
 .text.mbedtls_ssl_conf_arc4_support
                0x6036fc50        0xe ./SysLib/MercuryPlat/release/AL36V200_SDK.a(ssl_tls.o)
                0x6036fc50                mbedtls_ssl_conf_arc4_support
 *fill*         0x6036fc5e        0x2 
 .text.mbedtls_ssl_conf_max_frag_len
                0x6036fc60       0x2c ./SysLib/MercuryPlat/release/AL36V200_SDK.a(ssl_tls.o)
                0x6036fc60                mbedtls_ssl_conf_max_frag_len
 .text.mbedtls_ssl_conf_truncated_hmac
                0x6036fc8c        0xe ./SysLib/MercuryPlat/release/AL36V200_SDK.a(ssl_tls.o)
                0x6036fc8c                mbedtls_ssl_conf_truncated_hmac
 .text.mbedtls_ssl_conf_cbc_record_splitting
                0x6036fc9a        0xe ./SysLib/MercuryPlat/release/AL36V200_SDK.a(ssl_tls.o)
                0x6036fc9a                mbedtls_ssl_conf_cbc_record_splitting
 .text.mbedtls_ssl_conf_legacy_renegotiation
                0x6036fca8        0xe ./SysLib/MercuryPlat/release/AL36V200_SDK.a(ssl_tls.o)
                0x6036fca8                mbedtls_ssl_conf_legacy_renegotiation
 .text.mbedtls_ssl_conf_renegotiation
                0x6036fcb6        0xe ./SysLib/MercuryPlat/release/AL36V200_SDK.a(ssl_tls.o)
                0x6036fcb6                mbedtls_ssl_conf_renegotiation
 .text.mbedtls_ssl_conf_renegotiation_enforced
                0x6036fcc4        0x6 ./SysLib/MercuryPlat/release/AL36V200_SDK.a(ssl_tls.o)
                0x6036fcc4                mbedtls_ssl_conf_renegotiation_enforced
 .text.mbedtls_ssl_conf_renegotiation_period
                0x6036fcca        0x8 ./SysLib/MercuryPlat/release/AL36V200_SDK.a(ssl_tls.o)
                0x6036fcca                mbedtls_ssl_conf_renegotiation_period
 .text.mbedtls_ssl_conf_export_keys_cb
                0x6036fcd2        0x6 ./SysLib/MercuryPlat/release/AL36V200_SDK.a(ssl_tls.o)
                0x6036fcd2                mbedtls_ssl_conf_export_keys_cb
 .text.mbedtls_ssl_get_bytes_avail
                0x6036fcd8        0xc ./SysLib/MercuryPlat/release/AL36V200_SDK.a(ssl_tls.o)
                0x6036fcd8                mbedtls_ssl_get_bytes_avail
 .text.mbedtls_ssl_get_verify_result
                0x6036fce4       0x14 ./SysLib/MercuryPlat/release/AL36V200_SDK.a(ssl_tls.o)
                0x6036fce4                mbedtls_ssl_get_verify_result
 .text.mbedtls_ssl_get_ciphersuite
                0x6036fcf8       0x10 ./SysLib/MercuryPlat/release/AL36V200_SDK.a(ssl_tls.o)
                0x6036fcf8                mbedtls_ssl_get_ciphersuite
 .text.mbedtls_ssl_get_version
                0x6036fd08       0x18 ./SysLib/MercuryPlat/release/AL36V200_SDK.a(ssl_tls.o)
                0x6036fd08                mbedtls_ssl_get_version
 .text.mbedtls_ssl_get_record_expansion
                0x6036fd20       0x58 ./SysLib/MercuryPlat/release/AL36V200_SDK.a(ssl_tls.o)
                0x6036fd20                mbedtls_ssl_get_record_expansion
 .text.mbedtls_ssl_get_max_frag_len
                0x6036fd78       0x2c ./SysLib/MercuryPlat/release/AL36V200_SDK.a(ssl_tls.o)
                0x6036fd78                mbedtls_ssl_get_max_frag_len
 .text.ssl_write_real
                0x6036fda4       0x78 ./SysLib/MercuryPlat/release/AL36V200_SDK.a(ssl_tls.o)
 .text.mbedtls_ssl_get_peer_cert
                0x6036fe1c        0xa ./SysLib/MercuryPlat/release/AL36V200_SDK.a(ssl_tls.o)
                0x6036fe1c                mbedtls_ssl_get_peer_cert
 *fill*         0x6036fe26        0x2 
 .text.mbedtls_ssl_handshake_step
                0x6036fe28       0x24 ./SysLib/MercuryPlat/release/AL36V200_SDK.a(ssl_tls.o)
                0x6036fe28                mbedtls_ssl_handshake_step
 .text.mbedtls_ssl_handshake
                0x6036fe4c       0x5c ./SysLib/MercuryPlat/release/AL36V200_SDK.a(ssl_tls.o)
                0x6036fe4c                mbedtls_ssl_handshake
 .text.mbedtls_ssl_close_notify
                0x6036fea8       0x88 ./SysLib/MercuryPlat/release/AL36V200_SDK.a(ssl_tls.o)
                0x6036fea8                mbedtls_ssl_close_notify
 .text.mbedtls_ssl_transform_free
                0x6036ff30       0x32 ./SysLib/MercuryPlat/release/AL36V200_SDK.a(ssl_tls.o)
                0x6036ff30                mbedtls_ssl_transform_free
 .text.mbedtls_ssl_handshake_free
                0x6036ff62       0x74 ./SysLib/MercuryPlat/release/AL36V200_SDK.a(ssl_tls.o)
                0x6036ff62                mbedtls_ssl_handshake_free
 .text.mbedtls_ssl_session_free
                0x6036ffd6       0x22 ./SysLib/MercuryPlat/release/AL36V200_SDK.a(ssl_tls.o)
                0x6036ffd6                mbedtls_ssl_session_free
 .text.mbedtls_ssl_handshake_wrapup
                0x6036fff8       0xe8 ./SysLib/MercuryPlat/release/AL36V200_SDK.a(ssl_tls.o)
                0x6036fff8                mbedtls_ssl_handshake_wrapup
 .text.ssl_handshake_init
                0x603700e0      0x13c ./SysLib/MercuryPlat/release/AL36V200_SDK.a(ssl_tls.o)
 .text.mbedtls_ssl_setup
                0x6037021c       0x94 ./SysLib/MercuryPlat/release/AL36V200_SDK.a(ssl_tls.o)
                0x6037021c                mbedtls_ssl_setup
 .text.ssl_start_renegotiation
                0x603702b0       0x6c ./SysLib/MercuryPlat/release/AL36V200_SDK.a(ssl_tls.o)
 .text.mbedtls_ssl_renegotiate
                0x6037031c       0x64 ./SysLib/MercuryPlat/release/AL36V200_SDK.a(ssl_tls.o)
                0x6037031c                mbedtls_ssl_renegotiate
 .text.ssl_check_ctr_renegotiate
                0x60370380       0x68 ./SysLib/MercuryPlat/release/AL36V200_SDK.a(ssl_tls.o)
 .text.mbedtls_ssl_write
                0x603703e8       0xf0 ./SysLib/MercuryPlat/release/AL36V200_SDK.a(ssl_tls.o)
                0x603703e8                mbedtls_ssl_write
 .text.mbedtls_ssl_read
                0x603704d8      0x2a4 ./SysLib/MercuryPlat/release/AL36V200_SDK.a(ssl_tls.o)
                0x603704d8                mbedtls_ssl_read
 .text.ssl_session_copy
                0x6037077c       0x50 ./SysLib/MercuryPlat/release/AL36V200_SDK.a(ssl_tls.o)
 .text.mbedtls_ssl_set_session
                0x603707cc       0x30 ./SysLib/MercuryPlat/release/AL36V200_SDK.a(ssl_tls.o)
                0x603707cc                mbedtls_ssl_set_session
 .text.mbedtls_ssl_get_session
                0x603707fc       0x24 ./SysLib/MercuryPlat/release/AL36V200_SDK.a(ssl_tls.o)
                0x603707fc                mbedtls_ssl_get_session
 .text.mbedtls_ssl_session_reset
                0x60370820       0xac ./SysLib/MercuryPlat/release/AL36V200_SDK.a(ssl_tls.o)
                0x60370820                mbedtls_ssl_session_reset
 .text.mbedtls_ssl_free
                0x603708cc       0xd0 ./SysLib/MercuryPlat/release/AL36V200_SDK.a(ssl_tls.o)
                0x603708cc                mbedtls_ssl_free
 .text.mbedtls_ssl_config_init
                0x6037099c        0x8 ./SysLib/MercuryPlat/release/AL36V200_SDK.a(ssl_tls.o)
                0x6037099c                mbedtls_ssl_config_init
 .text.mbedtls_ssl_config_defaults
                0x603709a4       0xc0 ./SysLib/MercuryPlat/release/AL36V200_SDK.a(ssl_tls.o)
                0x603709a4                mbedtls_ssl_config_defaults
 .text.mbedtls_ssl_config_free
                0x60370a64       0x58 ./SysLib/MercuryPlat/release/AL36V200_SDK.a(ssl_tls.o)
                0x60370a64                mbedtls_ssl_config_free
 .text.mbedtls_ssl_sig_from_pk
                0x60370abc       0x22 ./SysLib/MercuryPlat/release/AL36V200_SDK.a(ssl_tls.o)
                0x60370abc                mbedtls_ssl_sig_from_pk
 .text.mbedtls_ssl_pk_alg_from_sig
                0x60370ade        0xe ./SysLib/MercuryPlat/release/AL36V200_SDK.a(ssl_tls.o)
                0x60370ade                mbedtls_ssl_pk_alg_from_sig
 .text.mbedtls_ssl_md_alg_from_hash
                0x60370aec       0x14 ./SysLib/MercuryPlat/release/AL36V200_SDK.a(ssl_tls.o)
                0x60370aec                mbedtls_ssl_md_alg_from_hash
 .text.mbedtls_ssl_hash_from_md_alg
                0x60370b00       0x14 ./SysLib/MercuryPlat/release/AL36V200_SDK.a(ssl_tls.o)
                0x60370b00                mbedtls_ssl_hash_from_md_alg
 .text.mbedtls_ssl_check_curve
                0x60370b14       0x1c ./SysLib/MercuryPlat/release/AL36V200_SDK.a(ssl_tls.o)
                0x60370b14                mbedtls_ssl_check_curve
 .text.mbedtls_ssl_check_sig_hash
                0x60370b30       0x1c ./SysLib/MercuryPlat/release/AL36V200_SDK.a(ssl_tls.o)
                0x60370b30                mbedtls_ssl_check_sig_hash
 .text.mbedtls_ssl_check_cert_usage
                0x60370b4c       0x80 ./SysLib/MercuryPlat/release/AL36V200_SDK.a(ssl_tls.o)
                0x60370b4c                mbedtls_ssl_check_cert_usage
 .text.mbedtls_ssl_parse_certificate
                0x60370bcc      0x324 ./SysLib/MercuryPlat/release/AL36V200_SDK.a(ssl_tls.o)
                0x60370bcc                mbedtls_ssl_parse_certificate
 .text.mbedtls_ssl_write_version
                0x60370ef0        0x6 ./SysLib/MercuryPlat/release/AL36V200_SDK.a(ssl_tls.o)
                0x60370ef0                mbedtls_ssl_write_version
 .text.mbedtls_ssl_read_version
                0x60370ef6        0xa ./SysLib/MercuryPlat/release/AL36V200_SDK.a(ssl_tls.o)
                0x60370ef6                mbedtls_ssl_read_version
 .rodata.CSWTCH.150
                0x60370f00       0x10 ./SysLib/MercuryPlat/release/AL36V200_SDK.a(ssl_tls.o)
 .rodata.CSWTCH.178
                0x60370f10        0x6 ./SysLib/MercuryPlat/release/AL36V200_SDK.a(ssl_tls.o)
 .rodata.CSWTCH.180
                0x60370f16        0x6 ./SysLib/MercuryPlat/release/AL36V200_SDK.a(ssl_tls.o)
 .rodata.mbedtls_ssl_check_cert_usage.str1.1
                0x60370f1c       0x12 ./SysLib/MercuryPlat/release/AL36V200_SDK.a(ssl_tls.o)
 .rodata.mbedtls_ssl_close_notify.str1.1
                0x60370f1c       0x4b ./SysLib/MercuryPlat/release/AL36V200_SDK.a(ssl_tls.o)
 .rodata.mbedtls_ssl_derive_keys.str1.1
                0x60370f67      0x181 ./SysLib/MercuryPlat/release/AL36V200_SDK.a(ssl_tls.o)
                                0x1b3 (size before relaxing)
 .rodata.mbedtls_ssl_fetch_input.str1.1
                0x603710e8       0xb6 ./SysLib/MercuryPlat/release/AL36V200_SDK.a(ssl_tls.o)
 .rodata.mbedtls_ssl_flush_output.str1.1
                0x6037119e       0x71 ./SysLib/MercuryPlat/release/AL36V200_SDK.a(ssl_tls.o)
 .rodata.mbedtls_ssl_free.str1.1
                0x6037120f       0x10 ./SysLib/MercuryPlat/release/AL36V200_SDK.a(ssl_tls.o)
 .rodata.mbedtls_ssl_get_version.str1.1
                0x6037121f       0x10 ./SysLib/MercuryPlat/release/AL36V200_SDK.a(ssl_tls.o)
                                  0x8 (size before relaxing)
 .rodata.mbedtls_ssl_handshake.str1.1
                0x6037121f       0x1a ./SysLib/MercuryPlat/release/AL36V200_SDK.a(ssl_tls.o)
 .rodata.mbedtls_ssl_handshake_wrapup.str1.1
                0x60371239       0x84 ./SysLib/MercuryPlat/release/AL36V200_SDK.a(ssl_tls.o)
 .rodata.mbedtls_ssl_parse_certificate.str1.1
                0x603712bd      0x13a ./SysLib/MercuryPlat/release/AL36V200_SDK.a(ssl_tls.o)
 .rodata.mbedtls_ssl_parse_change_cipher_spec.str1.1
                0x603713f7       0xa0 ./SysLib/MercuryPlat/release/AL36V200_SDK.a(ssl_tls.o)
 .rodata.mbedtls_ssl_parse_finished.str1.1
                0x60371497       0x39 ./SysLib/MercuryPlat/release/AL36V200_SDK.a(ssl_tls.o)
 .rodata.mbedtls_ssl_psk_derive_premaster.str1.1
                0x603714d0       0x41 ./SysLib/MercuryPlat/release/AL36V200_SDK.a(ssl_tls.o)
 .rodata.mbedtls_ssl_read.str1.1
                0x60371511      0x111 ./SysLib/MercuryPlat/release/AL36V200_SDK.a(ssl_tls.o)
 .rodata.mbedtls_ssl_read_record.str1.1
                0x60371622      0x343 ./SysLib/MercuryPlat/release/AL36V200_SDK.a(ssl_tls.o)
 .rodata.mbedtls_ssl_renegotiate.str1.1
                0x60371965       0x18 ./SysLib/MercuryPlat/release/AL36V200_SDK.a(ssl_tls.o)
 .rodata.mbedtls_ssl_send_alert_message.str1.1
                0x6037197d       0x45 ./SysLib/MercuryPlat/release/AL36V200_SDK.a(ssl_tls.o)
 .rodata.mbedtls_ssl_setup.str1.1
                0x603719c2       0x17 ./SysLib/MercuryPlat/release/AL36V200_SDK.a(ssl_tls.o)
 .rodata.mbedtls_ssl_write.str1.1
                0x603719d9       0x2c ./SysLib/MercuryPlat/release/AL36V200_SDK.a(ssl_tls.o)
 .rodata.mbedtls_ssl_write_certificate.str1.1
                0x60371a05       0x73 ./SysLib/MercuryPlat/release/AL36V200_SDK.a(ssl_tls.o)
 .rodata.mbedtls_ssl_write_change_cipher_spec.str1.1
                0x60371a78       0x38 ./SysLib/MercuryPlat/release/AL36V200_SDK.a(ssl_tls.o)
 .rodata.mbedtls_ssl_write_finished.str1.1
                0x60371ab0       0x56 ./SysLib/MercuryPlat/release/AL36V200_SDK.a(ssl_tls.o)
 .rodata.mbedtls_ssl_write_record.str1.1
                0x60371b06      0x207 ./SysLib/MercuryPlat/release/AL36V200_SDK.a(ssl_tls.o)
 *fill*         0x60371d0d        0x3 
 .rodata.mfl_code_to_length
                0x60371d10       0x14 ./SysLib/MercuryPlat/release/AL36V200_SDK.a(ssl_tls.o)
 .rodata.ssl_calc_finished_tls.str1.1
                0x60371d24       0x3e ./SysLib/MercuryPlat/release/AL36V200_SDK.a(ssl_tls.o)
 .rodata.ssl_calc_finished_tls_sha256.str1.1
                0x60371d62       0x78 ./SysLib/MercuryPlat/release/AL36V200_SDK.a(ssl_tls.o)
 .rodata.ssl_calc_finished_tls_sha384.str1.1
                0x60371dda       0x33 ./SysLib/MercuryPlat/release/AL36V200_SDK.a(ssl_tls.o)
 .rodata.ssl_calc_verify_tls.str1.1
                0x60371e0d       0x13 ./SysLib/MercuryPlat/release/AL36V200_SDK.a(ssl_tls.o)
 .rodata.ssl_calc_verify_tls_sha256.str1.1
                0x60371e20       0x3e ./SysLib/MercuryPlat/release/AL36V200_SDK.a(ssl_tls.o)
 .rodata.ssl_calc_verify_tls_sha384.str1.1
                0x60371e5e       0x16 ./SysLib/MercuryPlat/release/AL36V200_SDK.a(ssl_tls.o)
 .rodata.ssl_check_ctr_renegotiate.str1.1
                0x60371e74       0x2a ./SysLib/MercuryPlat/release/AL36V200_SDK.a(ssl_tls.o)
 .rodata.ssl_handshake_init.str1.1
                0x60371e9e       0x23 ./SysLib/MercuryPlat/release/AL36V200_SDK.a(ssl_tls.o)
 .rodata.ssl_prepare_handshake_record.str1.1
                0x60371ec1       0xac ./SysLib/MercuryPlat/release/AL36V200_SDK.a(ssl_tls.o)
 .rodata.ssl_set_timer.str1.1
                0x60371f6d       0x13 ./SysLib/MercuryPlat/release/AL36V200_SDK.a(ssl_tls.o)
 .rodata.ssl_start_renegotiation.str1.1
                0x60371f80       0x34 ./SysLib/MercuryPlat/release/AL36V200_SDK.a(ssl_tls.o)
 .rodata.str1.1
                0x60371fb4       0x20 ./SysLib/MercuryPlat/release/AL36V200_SDK.a(ssl_tls.o)
 .text          0x60371fd4        0x0 ./SysLib/MercuryPlat/release/AL36V200_SDK.a(x509.o)
 .text.x509_parse_int
                0x60371fd4       0x3c ./SysLib/MercuryPlat/release/AL36V200_SDK.a(x509.o)
 .text.mbedtls_x509_get_serial
                0x60372010       0x50 ./SysLib/MercuryPlat/release/AL36V200_SDK.a(x509.o)
                0x60372010                mbedtls_x509_get_serial
 .text.mbedtls_x509_get_alg_null
                0x60372060        0xe ./SysLib/MercuryPlat/release/AL36V200_SDK.a(x509.o)
                0x60372060                mbedtls_x509_get_alg_null
 .text.mbedtls_x509_get_alg
                0x6037206e        0xe ./SysLib/MercuryPlat/release/AL36V200_SDK.a(x509.o)
                0x6037206e                mbedtls_x509_get_alg
 .text.mbedtls_x509_get_rsassa_pss_params
                0x6037207c      0x1e4 ./SysLib/MercuryPlat/release/AL36V200_SDK.a(x509.o)
                0x6037207c                mbedtls_x509_get_rsassa_pss_params
 .text.mbedtls_x509_get_name
                0x60372260       0xf8 ./SysLib/MercuryPlat/release/AL36V200_SDK.a(x509.o)
                0x60372260                mbedtls_x509_get_name
 .text.mbedtls_x509_get_time
                0x60372358      0x164 ./SysLib/MercuryPlat/release/AL36V200_SDK.a(x509.o)
                0x60372358                mbedtls_x509_get_time
 .text.mbedtls_x509_get_sig
                0x603724bc       0x3c ./SysLib/MercuryPlat/release/AL36V200_SDK.a(x509.o)
                0x603724bc                mbedtls_x509_get_sig
 .text.mbedtls_x509_get_sig_alg
                0x603724f8       0x80 ./SysLib/MercuryPlat/release/AL36V200_SDK.a(x509.o)
                0x603724f8                mbedtls_x509_get_sig_alg
 .text.mbedtls_x509_get_ext
                0x60372578       0x54 ./SysLib/MercuryPlat/release/AL36V200_SDK.a(x509.o)
                0x60372578                mbedtls_x509_get_ext
 .text.mbedtls_x509_dn_gets
                0x603725cc      0x108 ./SysLib/MercuryPlat/release/AL36V200_SDK.a(x509.o)
                0x603725cc                mbedtls_x509_dn_gets
 .text.mbedtls_x509_serial_gets
                0x603726d4       0x8c ./SysLib/MercuryPlat/release/AL36V200_SDK.a(x509.o)
                0x603726d4                mbedtls_x509_serial_gets
 .text.mbedtls_x509_sig_alg_gets
                0x60372760       0xbc ./SysLib/MercuryPlat/release/AL36V200_SDK.a(x509.o)
                0x60372760                mbedtls_x509_sig_alg_gets
 .text.mbedtls_x509_key_size_helper
                0x6037281c       0x24 ./SysLib/MercuryPlat/release/AL36V200_SDK.a(x509.o)
                0x6037281c                mbedtls_x509_key_size_helper
 .text.mbedtls_x509_time_is_past
                0x60372840        0x4 ./SysLib/MercuryPlat/release/AL36V200_SDK.a(x509.o)
                0x60372840                mbedtls_x509_time_is_past
 .text.mbedtls_x509_time_is_future
                0x60372844        0x4 ./SysLib/MercuryPlat/release/AL36V200_SDK.a(x509.o)
                0x60372844                mbedtls_x509_time_is_future
 .rodata.mbedtls_x509_dn_gets.str1.1
                0x60372848        0xc ./SysLib/MercuryPlat/release/AL36V200_SDK.a(x509.o)
                                 0x12 (size before relaxing)
 .rodata.mbedtls_x509_get_rsassa_pss_params.str1.1
                0x60372854        0xa ./SysLib/MercuryPlat/release/AL36V200_SDK.a(x509.o)
 .rodata.mbedtls_x509_key_size_helper.str1.1
                0x6037285e        0xc ./SysLib/MercuryPlat/release/AL36V200_SDK.a(x509.o)
 .rodata.mbedtls_x509_serial_gets.str1.1
                0x6037286a        0xc ./SysLib/MercuryPlat/release/AL36V200_SDK.a(x509.o)
                                  0xf (size before relaxing)
 .rodata.mbedtls_x509_sig_alg_gets.str1.1
                0x60372876       0x17 ./SysLib/MercuryPlat/release/AL36V200_SDK.a(x509.o)
                                 0x1b (size before relaxing)
 .text          0x6037288d        0x0 ./SysLib/MercuryPlat/release/AL36V200_SDK.a(MQTTConnectClient.o)
 *fill*         0x6037288d        0x1 
 .text.MQTTSerialize_connectLength
                0x6037288e       0x7c ./SysLib/MercuryPlat/release/AL36V200_SDK.a(MQTTConnectClient.o)
                0x6037288e                MQTTSerialize_connectLength
 *fill*         0x6037290a        0x2 
 .text.MQTTSerialize_connect
                0x6037290c      0x108 ./SysLib/MercuryPlat/release/AL36V200_SDK.a(MQTTConnectClient.o)
                0x6037290c                MQTTSerialize_connect
 .text.MQTTDeserialize_connack
                0x60372a14       0x4c ./SysLib/MercuryPlat/release/AL36V200_SDK.a(MQTTConnectClient.o)
                0x60372a14                MQTTDeserialize_connack
 .text.MQTTSerialize_zero
                0x60372a60       0x32 ./SysLib/MercuryPlat/release/AL36V200_SDK.a(MQTTConnectClient.o)
                0x60372a60                MQTTSerialize_zero
 .text.MQTTSerialize_disconnect
                0x60372a92        0x6 ./SysLib/MercuryPlat/release/AL36V200_SDK.a(MQTTConnectClient.o)
                0x60372a92                MQTTSerialize_disconnect
 .text.MQTTSerialize_pingreq
                0x60372a98        0x6 ./SysLib/MercuryPlat/release/AL36V200_SDK.a(MQTTConnectClient.o)
                0x60372a98                MQTTSerialize_pingreq
 .rodata.MQTTSerialize_connect.str1.1
                0x60372a9e        0xc ./SysLib/MercuryPlat/release/AL36V200_SDK.a(MQTTConnectClient.o)
 .text          0x60372aaa        0x0 ./SysLib/MercuryPlat/release/AL36V200_SDK.a(MQTTDeserializePublish.o)
 .text.MQTTDeserialize_publish
                0x60372aaa       0x88 ./SysLib/MercuryPlat/release/AL36V200_SDK.a(MQTTDeserializePublish.o)
                0x60372aaa                MQTTDeserialize_publish
 .text.MQTTDeserialize_ack
                0x60372b32       0x48 ./SysLib/MercuryPlat/release/AL36V200_SDK.a(MQTTDeserializePublish.o)
                0x60372b32                MQTTDeserialize_ack
 .text          0x60372b7a        0x0 ./SysLib/MercuryPlat/release/AL36V200_SDK.a(MQTTPacket.o)
 *fill*         0x60372b7a        0x2 
 .text.bufchar  0x60372b7c       0x2c ./SysLib/MercuryPlat/release/AL36V200_SDK.a(MQTTPacket.o)
                0x60372b7c                bufchar
 .text.MQTTPacket_encode
                0x60372ba8       0x34 ./SysLib/MercuryPlat/release/AL36V200_SDK.a(MQTTPacket.o)
                0x60372ba8                MQTTPacket_encode
 .text.MQTTPacket_decode
                0x60372bdc       0x3c ./SysLib/MercuryPlat/release/AL36V200_SDK.a(MQTTPacket.o)
                0x60372bdc                MQTTPacket_decode
 .text.MQTTPacket_len
                0x60372c18       0x24 ./SysLib/MercuryPlat/release/AL36V200_SDK.a(MQTTPacket.o)
                0x60372c18                MQTTPacket_len
 .text.MQTTPacket_decodeBuf
                0x60372c3c       0x14 ./SysLib/MercuryPlat/release/AL36V200_SDK.a(MQTTPacket.o)
                0x60372c3c                MQTTPacket_decodeBuf
 .text.readInt  0x60372c50       0x10 ./SysLib/MercuryPlat/release/AL36V200_SDK.a(MQTTPacket.o)
                0x60372c50                readInt
 .text.readChar
                0x60372c60        0xc ./SysLib/MercuryPlat/release/AL36V200_SDK.a(MQTTPacket.o)
                0x60372c60                readChar
 .text.writeChar
                0x60372c6c        0xc ./SysLib/MercuryPlat/release/AL36V200_SDK.a(MQTTPacket.o)
                0x60372c6c                writeChar
 .text.writeInt
                0x60372c78       0x2a ./SysLib/MercuryPlat/release/AL36V200_SDK.a(MQTTPacket.o)
                0x60372c78                writeInt
 .text.writeCString
                0x60372ca2       0x28 ./SysLib/MercuryPlat/release/AL36V200_SDK.a(MQTTPacket.o)
                0x60372ca2                writeCString
 .text.getLenStringLen
                0x60372cca        0xa ./SysLib/MercuryPlat/release/AL36V200_SDK.a(MQTTPacket.o)
                0x60372cca                getLenStringLen
 .text.writeMQTTString
                0x60372cd4       0x44 ./SysLib/MercuryPlat/release/AL36V200_SDK.a(MQTTPacket.o)
                0x60372cd4                writeMQTTString
 .text.readMQTTLenString
                0x60372d18       0x30 ./SysLib/MercuryPlat/release/AL36V200_SDK.a(MQTTPacket.o)
                0x60372d18                readMQTTLenString
 .text.MQTTstrlen
                0x60372d48       0x18 ./SysLib/MercuryPlat/release/AL36V200_SDK.a(MQTTPacket.o)
                0x60372d48                MQTTstrlen
 .text.MQTTPacket_equals
                0x60372d60       0x36 ./SysLib/MercuryPlat/release/AL36V200_SDK.a(MQTTPacket.o)
                0x60372d60                MQTTPacket_equals
 .text.MQTTPacket_read
                0x60372d96       0x4a ./SysLib/MercuryPlat/release/AL36V200_SDK.a(MQTTPacket.o)
                0x60372d96                MQTTPacket_read
 .text.MQTTPacket_readnb
                0x60372de0       0xd4 ./SysLib/MercuryPlat/release/AL36V200_SDK.a(MQTTPacket.o)
                0x60372de0                MQTTPacket_readnb
 .text          0x60372eb4        0x0 ./SysLib/MercuryPlat/release/AL36V200_SDK.a(MQTTSerializePublish.o)
 .text.MQTTSerialize_publishLength
                0x60372eb4       0x20 ./SysLib/MercuryPlat/release/AL36V200_SDK.a(MQTTSerializePublish.o)
                0x60372eb4                MQTTSerialize_publishLength
 .text.MQTTSerialize_publish
                0x60372ed4       0x90 ./SysLib/MercuryPlat/release/AL36V200_SDK.a(MQTTSerializePublish.o)
                0x60372ed4                MQTTSerialize_publish
 .text.MQTTSerialize_ack
                0x60372f64       0x4e ./SysLib/MercuryPlat/release/AL36V200_SDK.a(MQTTSerializePublish.o)
                0x60372f64                MQTTSerialize_ack
 .text.MQTTSerialize_puback
                0x60372fb2       0x12 ./SysLib/MercuryPlat/release/AL36V200_SDK.a(MQTTSerializePublish.o)
                0x60372fb2                MQTTSerialize_puback
 .text.MQTTSerialize_pubrel
                0x60372fc4       0x12 ./SysLib/MercuryPlat/release/AL36V200_SDK.a(MQTTSerializePublish.o)
                0x60372fc4                MQTTSerialize_pubrel
 .text.MQTTSerialize_pubcomp
                0x60372fd6       0x12 ./SysLib/MercuryPlat/release/AL36V200_SDK.a(MQTTSerializePublish.o)
                0x60372fd6                MQTTSerialize_pubcomp
 .text          0x60372fe8        0x0 ./SysLib/MercuryPlat/release/AL36V200_SDK.a(MQTTSubscribeClient.o)
 .text.MQTTSerialize_subscribeLength
                0x60372fe8       0x2e ./SysLib/MercuryPlat/release/AL36V200_SDK.a(MQTTSubscribeClient.o)
                0x60372fe8                MQTTSerialize_subscribeLength
 .text.MQTTSerialize_subscribe
                0x60373016       0x8c ./SysLib/MercuryPlat/release/AL36V200_SDK.a(MQTTSubscribeClient.o)
                0x60373016                MQTTSerialize_subscribe
 .text.MQTTDeserialize_suback
                0x603730a2       0x7a ./SysLib/MercuryPlat/release/AL36V200_SDK.a(MQTTSubscribeClient.o)
                0x603730a2                MQTTDeserialize_suback
 .text          0x6037311c        0x0 ./SysLib/MercuryPlat/release/AL36V200_SDK.a(MQTTUnsubscribeClient.o)
 .text.MQTTSerialize_unsubscribeLength
                0x6037311c       0x2e ./SysLib/MercuryPlat/release/AL36V200_SDK.a(MQTTUnsubscribeClient.o)
                0x6037311c                MQTTSerialize_unsubscribeLength
 .text.MQTTSerialize_unsubscribe
                0x6037314a       0x80 ./SysLib/MercuryPlat/release/AL36V200_SDK.a(MQTTUnsubscribeClient.o)
                0x6037314a                MQTTSerialize_unsubscribe
 .text.MQTTDeserialize_unsuback
                0x603731ca       0x2c ./SysLib/MercuryPlat/release/AL36V200_SDK.a(MQTTUnsubscribeClient.o)
                0x603731ca                MQTTDeserialize_unsuback
 .text          0x603731f6        0x0 ./SysLib/MercuryPlat/release/AL36V200_SDK.a(ac35_hardware.o)
 .text.mbedtls_hardware_poll
                0x603731f6       0x12 ./SysLib/MercuryPlat/release/AL36V200_SDK.a(ac35_hardware.o)
                0x603731f6                mbedtls_hardware_poll
 .text          0x60373208        0x0 ./SysLib/MercuryPlat/release/AL36V200_SDK.a(aes.o)
 .text.aes_gen_tables
                0x60373208      0x1e8 ./SysLib/MercuryPlat/release/AL36V200_SDK.a(aes.o)
 .text.mbedtls_aes_init
                0x603733f0        0xa ./SysLib/MercuryPlat/release/AL36V200_SDK.a(aes.o)
                0x603733f0                mbedtls_aes_init
 .text.mbedtls_aes_free
                0x603733fa       0x14 ./SysLib/MercuryPlat/release/AL36V200_SDK.a(aes.o)
                0x603733fa                mbedtls_aes_free
 *fill*         0x6037340e        0x2 
 .text.mbedtls_aes_setkey_enc
                0x60373410      0x200 ./SysLib/MercuryPlat/release/AL36V200_SDK.a(aes.o)
                0x60373410                mbedtls_aes_setkey_enc
 .text.mbedtls_aes_setkey_dec
                0x60373610       0xdc ./SysLib/MercuryPlat/release/AL36V200_SDK.a(aes.o)
                0x60373610                mbedtls_aes_setkey_dec
 .text.mbedtls_aes_encrypt
                0x603736ec      0x304 ./SysLib/MercuryPlat/release/AL36V200_SDK.a(aes.o)
                0x603736ec                mbedtls_aes_encrypt
 .text.mbedtls_aes_decrypt
                0x603739f0      0x308 ./SysLib/MercuryPlat/release/AL36V200_SDK.a(aes.o)
                0x603739f0                mbedtls_aes_decrypt
 .text.mbedtls_aes_crypt_ecb
                0x60373cf8       0x1a ./SysLib/MercuryPlat/release/AL36V200_SDK.a(aes.o)
                0x60373cf8                mbedtls_aes_crypt_ecb
 .text.mbedtls_aes_crypt_cbc
                0x60373d12       0xa2 ./SysLib/MercuryPlat/release/AL36V200_SDK.a(aes.o)
                0x60373d12                mbedtls_aes_crypt_cbc
 .text.mbedtls_aes_crypt_cfb128
                0x60373db4       0x6a ./SysLib/MercuryPlat/release/AL36V200_SDK.a(aes.o)
                0x60373db4                mbedtls_aes_crypt_cfb128
 .text.mbedtls_aes_crypt_cfb8
                0x60373e1e       0x62 ./SysLib/MercuryPlat/release/AL36V200_SDK.a(aes.o)
                0x60373e1e                mbedtls_aes_crypt_cfb8
 .text.mbedtls_aes_crypt_ctr
                0x60373e80       0x58 ./SysLib/MercuryPlat/release/AL36V200_SDK.a(aes.o)
                0x60373e80                mbedtls_aes_crypt_ctr
 .text          0x60373ed8        0x0 ./SysLib/MercuryPlat/release/AL36V200_SDK.a(cipher.o)
 .text.mbedtls_cipher_get_block_size
                0x60373ed8        0xa ./SysLib/MercuryPlat/release/AL36V200_SDK.a(cipher.o)
 .text.add_pkcs_padding
                0x60373ee2       0x18 ./SysLib/MercuryPlat/release/AL36V200_SDK.a(cipher.o)
 *fill*         0x60373efa        0x2 
 .text.get_pkcs_padding
                0x60373efc       0x54 ./SysLib/MercuryPlat/release/AL36V200_SDK.a(cipher.o)
 .text.add_one_and_zeros_padding
                0x60373f50       0x1c ./SysLib/MercuryPlat/release/AL36V200_SDK.a(cipher.o)
 .text.add_zeros_and_len_padding
                0x60373f6c       0x22 ./SysLib/MercuryPlat/release/AL36V200_SDK.a(cipher.o)
 *fill*         0x60373f8e        0x2 
 .text.get_zeros_and_len_padding
                0x60373f90       0x50 ./SysLib/MercuryPlat/release/AL36V200_SDK.a(cipher.o)
 .text.add_zeros_padding
                0x60373fe0       0x14 ./SysLib/MercuryPlat/release/AL36V200_SDK.a(cipher.o)
 .text.get_no_padding
                0x60373ff4       0x14 ./SysLib/MercuryPlat/release/AL36V200_SDK.a(cipher.o)
 .text.get_one_and_zeros_padding
                0x60374008       0x5c ./SysLib/MercuryPlat/release/AL36V200_SDK.a(cipher.o)
 .text.get_zeros_padding
                0x60374064       0x3c ./SysLib/MercuryPlat/release/AL36V200_SDK.a(cipher.o)
 .text.mbedtls_cipher_list
                0x603740a0       0x34 ./SysLib/MercuryPlat/release/AL36V200_SDK.a(cipher.o)
                0x603740a0                mbedtls_cipher_list
 .text.mbedtls_cipher_info_from_type
                0x603740d4       0x1c ./SysLib/MercuryPlat/release/AL36V200_SDK.a(cipher.o)
                0x603740d4                mbedtls_cipher_info_from_type
 .text.mbedtls_cipher_info_from_string
                0x603740f0       0x28 ./SysLib/MercuryPlat/release/AL36V200_SDK.a(cipher.o)
                0x603740f0                mbedtls_cipher_info_from_string
 .text.mbedtls_cipher_info_from_values
                0x60374118       0x28 ./SysLib/MercuryPlat/release/AL36V200_SDK.a(cipher.o)
                0x60374118                mbedtls_cipher_info_from_values
 .text.mbedtls_cipher_init
                0x60374140        0x8 ./SysLib/MercuryPlat/release/AL36V200_SDK.a(cipher.o)
                0x60374140                mbedtls_cipher_init
 .text.mbedtls_cipher_free
                0x60374148       0x24 ./SysLib/MercuryPlat/release/AL36V200_SDK.a(cipher.o)
                0x60374148                mbedtls_cipher_free
 .text.mbedtls_cipher_setkey
                0x6037416c       0x44 ./SysLib/MercuryPlat/release/AL36V200_SDK.a(cipher.o)
                0x6037416c                mbedtls_cipher_setkey
 .text.mbedtls_cipher_set_iv
                0x603741b0       0x40 ./SysLib/MercuryPlat/release/AL36V200_SDK.a(cipher.o)
                0x603741b0                mbedtls_cipher_set_iv
 .text.mbedtls_cipher_reset
                0x603741f0       0x18 ./SysLib/MercuryPlat/release/AL36V200_SDK.a(cipher.o)
                0x603741f0                mbedtls_cipher_reset
 .text.mbedtls_cipher_update_ad
                0x60374208       0x34 ./SysLib/MercuryPlat/release/AL36V200_SDK.a(cipher.o)
                0x60374208                mbedtls_cipher_update_ad
 .text.mbedtls_cipher_update
                0x6037423c      0x1e0 ./SysLib/MercuryPlat/release/AL36V200_SDK.a(cipher.o)
                0x6037423c                mbedtls_cipher_update
 .text.mbedtls_cipher_finish
                0x6037441c       0xc8 ./SysLib/MercuryPlat/release/AL36V200_SDK.a(cipher.o)
                0x6037441c                mbedtls_cipher_finish
 .text.mbedtls_cipher_set_padding_mode
                0x603744e4       0x7c ./SysLib/MercuryPlat/release/AL36V200_SDK.a(cipher.o)
                0x603744e4                mbedtls_cipher_set_padding_mode
 .text.mbedtls_cipher_setup
                0x60374560       0x3c ./SysLib/MercuryPlat/release/AL36V200_SDK.a(cipher.o)
                0x60374560                mbedtls_cipher_setup
 .text.mbedtls_cipher_write_tag
                0x6037459c       0x34 ./SysLib/MercuryPlat/release/AL36V200_SDK.a(cipher.o)
                0x6037459c                mbedtls_cipher_write_tag
 .text.mbedtls_cipher_check_tag
                0x603745d0       0x58 ./SysLib/MercuryPlat/release/AL36V200_SDK.a(cipher.o)
                0x603745d0                mbedtls_cipher_check_tag
 .text.mbedtls_cipher_crypt
                0x60374628       0x44 ./SysLib/MercuryPlat/release/AL36V200_SDK.a(cipher.o)
                0x60374628                mbedtls_cipher_crypt
 .text.mbedtls_cipher_auth_encrypt
                0x6037466c       0x6c ./SysLib/MercuryPlat/release/AL36V200_SDK.a(cipher.o)
                0x6037466c                mbedtls_cipher_auth_encrypt
 .text.mbedtls_cipher_auth_decrypt
                0x603746d8       0x78 ./SysLib/MercuryPlat/release/AL36V200_SDK.a(cipher.o)
                0x603746d8                mbedtls_cipher_auth_decrypt
 .text          0x60374750        0x0 ./SysLib/MercuryPlat/release/AL36V200_SDK.a(cipher_wrap.o)
 .text.des3_ctx_free
                0x60374750       0x12 ./SysLib/MercuryPlat/release/AL36V200_SDK.a(cipher_wrap.o)
 .text.des3_ctx_alloc
                0x60374762       0x18 ./SysLib/MercuryPlat/release/AL36V200_SDK.a(cipher_wrap.o)
 .text.des3_set3key_dec_wrap
                0x6037477a        0x4 ./SysLib/MercuryPlat/release/AL36V200_SDK.a(cipher_wrap.o)
 .text.des3_set3key_enc_wrap
                0x6037477e        0x4 ./SysLib/MercuryPlat/release/AL36V200_SDK.a(cipher_wrap.o)
 .text.des3_crypt_cbc_wrap
                0x60374782        0x4 ./SysLib/MercuryPlat/release/AL36V200_SDK.a(cipher_wrap.o)
 .text.des3_crypt_ecb_wrap
                0x60374786        0x8 ./SysLib/MercuryPlat/release/AL36V200_SDK.a(cipher_wrap.o)
 .text.des3_set2key_dec_wrap
                0x6037478e        0x4 ./SysLib/MercuryPlat/release/AL36V200_SDK.a(cipher_wrap.o)
 .text.des3_set2key_enc_wrap
                0x60374792        0x4 ./SysLib/MercuryPlat/release/AL36V200_SDK.a(cipher_wrap.o)
 .text.des_ctx_free
                0x60374796       0x12 ./SysLib/MercuryPlat/release/AL36V200_SDK.a(cipher_wrap.o)
 .text.des_ctx_alloc
                0x603747a8       0x16 ./SysLib/MercuryPlat/release/AL36V200_SDK.a(cipher_wrap.o)
 .text.des_setkey_dec_wrap
                0x603747be        0x4 ./SysLib/MercuryPlat/release/AL36V200_SDK.a(cipher_wrap.o)
 .text.des_setkey_enc_wrap
                0x603747c2        0x4 ./SysLib/MercuryPlat/release/AL36V200_SDK.a(cipher_wrap.o)
 .text.des_crypt_cbc_wrap
                0x603747c6        0x4 ./SysLib/MercuryPlat/release/AL36V200_SDK.a(cipher_wrap.o)
 .text.des_crypt_ecb_wrap
                0x603747ca        0x8 ./SysLib/MercuryPlat/release/AL36V200_SDK.a(cipher_wrap.o)
 .text.ccm_ctx_free
                0x603747d2       0x12 ./SysLib/MercuryPlat/release/AL36V200_SDK.a(cipher_wrap.o)
 .text.ccm_ctx_alloc
                0x603747e4       0x16 ./SysLib/MercuryPlat/release/AL36V200_SDK.a(cipher_wrap.o)
 .text.ccm_camellia_setkey_wrap
                0x603747fa        0xa ./SysLib/MercuryPlat/release/AL36V200_SDK.a(cipher_wrap.o)
 .text.ccm_aes_setkey_wrap
                0x60374804        0xa ./SysLib/MercuryPlat/release/AL36V200_SDK.a(cipher_wrap.o)
 .text.gcm_ctx_free
                0x6037480e       0x12 ./SysLib/MercuryPlat/release/AL36V200_SDK.a(cipher_wrap.o)
 .text.gcm_ctx_alloc
                0x60374820       0x18 ./SysLib/MercuryPlat/release/AL36V200_SDK.a(cipher_wrap.o)
 .text.gcm_camellia_setkey_wrap
                0x60374838        0xa ./SysLib/MercuryPlat/release/AL36V200_SDK.a(cipher_wrap.o)
 .text.gcm_aes_setkey_wrap
                0x60374842        0xa ./SysLib/MercuryPlat/release/AL36V200_SDK.a(cipher_wrap.o)
 .text.camellia_ctx_free
                0x6037484c       0x12 ./SysLib/MercuryPlat/release/AL36V200_SDK.a(cipher_wrap.o)
 .text.camellia_ctx_alloc
                0x6037485e       0x18 ./SysLib/MercuryPlat/release/AL36V200_SDK.a(cipher_wrap.o)
 .text.camellia_setkey_dec_wrap
                0x60374876        0x4 ./SysLib/MercuryPlat/release/AL36V200_SDK.a(cipher_wrap.o)
 .text.camellia_setkey_enc_wrap
                0x6037487a        0x4 ./SysLib/MercuryPlat/release/AL36V200_SDK.a(cipher_wrap.o)
 .text.camellia_crypt_ctr_wrap
                0x6037487e        0x4 ./SysLib/MercuryPlat/release/AL36V200_SDK.a(cipher_wrap.o)
 .text.camellia_crypt_cfb128_wrap
                0x60374882        0x4 ./SysLib/MercuryPlat/release/AL36V200_SDK.a(cipher_wrap.o)
 .text.camellia_crypt_cbc_wrap
                0x60374886        0x4 ./SysLib/MercuryPlat/release/AL36V200_SDK.a(cipher_wrap.o)
 .text.camellia_crypt_ecb_wrap
                0x6037488a        0x4 ./SysLib/MercuryPlat/release/AL36V200_SDK.a(cipher_wrap.o)
 .text.arc4_ctx_free
                0x6037488e       0x12 ./SysLib/MercuryPlat/release/AL36V200_SDK.a(cipher_wrap.o)
 .text.arc4_ctx_alloc
                0x603748a0       0x18 ./SysLib/MercuryPlat/release/AL36V200_SDK.a(cipher_wrap.o)
 .text.arc4_setkey_wrap
                0x603748b8       0x1c ./SysLib/MercuryPlat/release/AL36V200_SDK.a(cipher_wrap.o)
 .text.arc4_crypt_stream_wrap
                0x603748d4        0x4 ./SysLib/MercuryPlat/release/AL36V200_SDK.a(cipher_wrap.o)
 .text.aes_ctx_free
                0x603748d8       0x12 ./SysLib/MercuryPlat/release/AL36V200_SDK.a(cipher_wrap.o)
 .text.aes_ctx_alloc
                0x603748ea       0x18 ./SysLib/MercuryPlat/release/AL36V200_SDK.a(cipher_wrap.o)
 .text.aes_setkey_dec_wrap
                0x60374902        0x4 ./SysLib/MercuryPlat/release/AL36V200_SDK.a(cipher_wrap.o)
 .text.aes_setkey_enc_wrap
                0x60374906        0x4 ./SysLib/MercuryPlat/release/AL36V200_SDK.a(cipher_wrap.o)
 .text.aes_crypt_ctr_wrap
                0x6037490a        0x4 ./SysLib/MercuryPlat/release/AL36V200_SDK.a(cipher_wrap.o)
 .text.aes_crypt_cfb128_wrap
                0x6037490e        0x4 ./SysLib/MercuryPlat/release/AL36V200_SDK.a(cipher_wrap.o)
 .text.aes_crypt_cbc_wrap
                0x60374912        0x4 ./SysLib/MercuryPlat/release/AL36V200_SDK.a(cipher_wrap.o)
 .text.aes_crypt_ecb_wrap
                0x60374916        0x4 ./SysLib/MercuryPlat/release/AL36V200_SDK.a(cipher_wrap.o)
 *fill*         0x6037491a        0x2 
 .rodata.aes_128_cbc_info
                0x6037491c       0x1c ./SysLib/MercuryPlat/release/AL36V200_SDK.a(cipher_wrap.o)
 .rodata.aes_128_ccm_info
                0x60374938       0x1c ./SysLib/MercuryPlat/release/AL36V200_SDK.a(cipher_wrap.o)
 .rodata.aes_128_cfb128_info
                0x60374954       0x1c ./SysLib/MercuryPlat/release/AL36V200_SDK.a(cipher_wrap.o)
 .rodata.aes_128_ctr_info
                0x60374970       0x1c ./SysLib/MercuryPlat/release/AL36V200_SDK.a(cipher_wrap.o)
 .rodata.aes_128_ecb_info
                0x6037498c       0x1c ./SysLib/MercuryPlat/release/AL36V200_SDK.a(cipher_wrap.o)
 .rodata.aes_128_gcm_info
                0x603749a8       0x1c ./SysLib/MercuryPlat/release/AL36V200_SDK.a(cipher_wrap.o)
 .rodata.aes_192_cbc_info
                0x603749c4       0x1c ./SysLib/MercuryPlat/release/AL36V200_SDK.a(cipher_wrap.o)
 .rodata.aes_192_ccm_info
                0x603749e0       0x1c ./SysLib/MercuryPlat/release/AL36V200_SDK.a(cipher_wrap.o)
 .rodata.aes_192_cfb128_info
                0x603749fc       0x1c ./SysLib/MercuryPlat/release/AL36V200_SDK.a(cipher_wrap.o)
 .rodata.aes_192_ctr_info
                0x60374a18       0x1c ./SysLib/MercuryPlat/release/AL36V200_SDK.a(cipher_wrap.o)
 .rodata.aes_192_ecb_info
                0x60374a34       0x1c ./SysLib/MercuryPlat/release/AL36V200_SDK.a(cipher_wrap.o)
 .rodata.aes_192_gcm_info
                0x60374a50       0x1c ./SysLib/MercuryPlat/release/AL36V200_SDK.a(cipher_wrap.o)
 .rodata.aes_256_cbc_info
                0x60374a6c       0x1c ./SysLib/MercuryPlat/release/AL36V200_SDK.a(cipher_wrap.o)
 .rodata.aes_256_ccm_info
                0x60374a88       0x1c ./SysLib/MercuryPlat/release/AL36V200_SDK.a(cipher_wrap.o)
 .rodata.aes_256_cfb128_info
                0x60374aa4       0x1c ./SysLib/MercuryPlat/release/AL36V200_SDK.a(cipher_wrap.o)
 .rodata.aes_256_ctr_info
                0x60374ac0       0x1c ./SysLib/MercuryPlat/release/AL36V200_SDK.a(cipher_wrap.o)
 .rodata.aes_256_ecb_info
                0x60374adc       0x1c ./SysLib/MercuryPlat/release/AL36V200_SDK.a(cipher_wrap.o)
 .rodata.aes_256_gcm_info
                0x60374af8       0x1c ./SysLib/MercuryPlat/release/AL36V200_SDK.a(cipher_wrap.o)
 .rodata.aes_info
                0x60374b14       0x28 ./SysLib/MercuryPlat/release/AL36V200_SDK.a(cipher_wrap.o)
 .rodata.arc4_128_info
                0x60374b3c       0x1c ./SysLib/MercuryPlat/release/AL36V200_SDK.a(cipher_wrap.o)
 .rodata.arc4_base_info
                0x60374b58       0x28 ./SysLib/MercuryPlat/release/AL36V200_SDK.a(cipher_wrap.o)
 .rodata.camellia_128_cbc_info
                0x60374b80       0x1c ./SysLib/MercuryPlat/release/AL36V200_SDK.a(cipher_wrap.o)
 .rodata.camellia_128_ccm_info
                0x60374b9c       0x1c ./SysLib/MercuryPlat/release/AL36V200_SDK.a(cipher_wrap.o)
 .rodata.camellia_128_cfb128_info
                0x60374bb8       0x1c ./SysLib/MercuryPlat/release/AL36V200_SDK.a(cipher_wrap.o)
 .rodata.camellia_128_ctr_info
                0x60374bd4       0x1c ./SysLib/MercuryPlat/release/AL36V200_SDK.a(cipher_wrap.o)
 .rodata.camellia_128_ecb_info
                0x60374bf0       0x1c ./SysLib/MercuryPlat/release/AL36V200_SDK.a(cipher_wrap.o)
 .rodata.camellia_128_gcm_info
                0x60374c0c       0x1c ./SysLib/MercuryPlat/release/AL36V200_SDK.a(cipher_wrap.o)
 .rodata.camellia_192_cbc_info
                0x60374c28       0x1c ./SysLib/MercuryPlat/release/AL36V200_SDK.a(cipher_wrap.o)
 .rodata.camellia_192_ccm_info
                0x60374c44       0x1c ./SysLib/MercuryPlat/release/AL36V200_SDK.a(cipher_wrap.o)
 .rodata.camellia_192_cfb128_info
                0x60374c60       0x1c ./SysLib/MercuryPlat/release/AL36V200_SDK.a(cipher_wrap.o)
 .rodata.camellia_192_ctr_info
                0x60374c7c       0x1c ./SysLib/MercuryPlat/release/AL36V200_SDK.a(cipher_wrap.o)
 .rodata.camellia_192_ecb_info
                0x60374c98       0x1c ./SysLib/MercuryPlat/release/AL36V200_SDK.a(cipher_wrap.o)
 .rodata.camellia_192_gcm_info
                0x60374cb4       0x1c ./SysLib/MercuryPlat/release/AL36V200_SDK.a(cipher_wrap.o)
 .rodata.camellia_256_cbc_info
                0x60374cd0       0x1c ./SysLib/MercuryPlat/release/AL36V200_SDK.a(cipher_wrap.o)
 .rodata.camellia_256_ccm_info
                0x60374cec       0x1c ./SysLib/MercuryPlat/release/AL36V200_SDK.a(cipher_wrap.o)
 .rodata.camellia_256_cfb128_info
                0x60374d08       0x1c ./SysLib/MercuryPlat/release/AL36V200_SDK.a(cipher_wrap.o)
 .rodata.camellia_256_ctr_info
                0x60374d24       0x1c ./SysLib/MercuryPlat/release/AL36V200_SDK.a(cipher_wrap.o)
 .rodata.camellia_256_ecb_info
                0x60374d40       0x1c ./SysLib/MercuryPlat/release/AL36V200_SDK.a(cipher_wrap.o)
 .rodata.camellia_256_gcm_info
                0x60374d5c       0x1c ./SysLib/MercuryPlat/release/AL36V200_SDK.a(cipher_wrap.o)
 .rodata.camellia_info
                0x60374d78       0x28 ./SysLib/MercuryPlat/release/AL36V200_SDK.a(cipher_wrap.o)
 .rodata.ccm_aes_info
                0x60374da0       0x28 ./SysLib/MercuryPlat/release/AL36V200_SDK.a(cipher_wrap.o)
 .rodata.ccm_camellia_info
                0x60374dc8       0x28 ./SysLib/MercuryPlat/release/AL36V200_SDK.a(cipher_wrap.o)
 .rodata.des_cbc_info
                0x60374df0       0x1c ./SysLib/MercuryPlat/release/AL36V200_SDK.a(cipher_wrap.o)
 .rodata.des_ecb_info
                0x60374e0c       0x1c ./SysLib/MercuryPlat/release/AL36V200_SDK.a(cipher_wrap.o)
 .rodata.des_ede3_cbc_info
                0x60374e28       0x1c ./SysLib/MercuryPlat/release/AL36V200_SDK.a(cipher_wrap.o)
 .rodata.des_ede3_ecb_info
                0x60374e44       0x1c ./SysLib/MercuryPlat/release/AL36V200_SDK.a(cipher_wrap.o)
 .rodata.des_ede3_info
                0x60374e60       0x28 ./SysLib/MercuryPlat/release/AL36V200_SDK.a(cipher_wrap.o)
 .rodata.des_ede_cbc_info
                0x60374e88       0x1c ./SysLib/MercuryPlat/release/AL36V200_SDK.a(cipher_wrap.o)
 .rodata.des_ede_ecb_info
                0x60374ea4       0x1c ./SysLib/MercuryPlat/release/AL36V200_SDK.a(cipher_wrap.o)
 .rodata.des_ede_info
                0x60374ec0       0x28 ./SysLib/MercuryPlat/release/AL36V200_SDK.a(cipher_wrap.o)
 .rodata.des_info
                0x60374ee8       0x28 ./SysLib/MercuryPlat/release/AL36V200_SDK.a(cipher_wrap.o)
 .rodata.gcm_aes_info
                0x60374f10       0x28 ./SysLib/MercuryPlat/release/AL36V200_SDK.a(cipher_wrap.o)
 .rodata.gcm_camellia_info
                0x60374f38       0x28 ./SysLib/MercuryPlat/release/AL36V200_SDK.a(cipher_wrap.o)
 .rodata.mbedtls_cipher_definitions
                0x60374f60      0x160 ./SysLib/MercuryPlat/release/AL36V200_SDK.a(cipher_wrap.o)
                0x60374f60                mbedtls_cipher_definitions
 .rodata.str1.1
                0x603750c0      0x23a ./SysLib/MercuryPlat/release/AL36V200_SDK.a(cipher_wrap.o)
                                0x267 (size before relaxing)
 .text          0x603752fa        0x0 ./SysLib/MercuryPlat/release/AL36V200_SDK.a(debug.o)
 .text.debug_send_line.isra.0
                0x603752fa        0xe ./SysLib/MercuryPlat/release/AL36V200_SDK.a(debug.o)
 .text.mbedtls_debug_print_mpi.part.1
                0x60375308      0x140 ./SysLib/MercuryPlat/release/AL36V200_SDK.a(debug.o)
 .text.mbedtls_debug_set_threshold
                0x60375448        0xc ./SysLib/MercuryPlat/release/AL36V200_SDK.a(debug.o)
                0x60375448                mbedtls_debug_set_threshold
 .text.mbedtls_debug_print_msg
                0x60375454       0x4a ./SysLib/MercuryPlat/release/AL36V200_SDK.a(debug.o)
                0x60375454                mbedtls_debug_print_msg
 *fill*         0x6037549e        0x2 
 .text.mbedtls_debug_print_ret
                0x603754a0       0x48 ./SysLib/MercuryPlat/release/AL36V200_SDK.a(debug.o)
                0x603754a0                mbedtls_debug_print_ret
 .text.mbedtls_debug_print_buf
                0x603754e8      0x128 ./SysLib/MercuryPlat/release/AL36V200_SDK.a(debug.o)
                0x603754e8                mbedtls_debug_print_buf
 .text.mbedtls_debug_print_mpi
                0x60375610       0x24 ./SysLib/MercuryPlat/release/AL36V200_SDK.a(debug.o)
                0x60375610                mbedtls_debug_print_mpi
 .text.mbedtls_debug_print_ecp
                0x60375634       0x64 ./SysLib/MercuryPlat/release/AL36V200_SDK.a(debug.o)
                0x60375634                mbedtls_debug_print_ecp
 .text.mbedtls_debug_print_crt
                0x60375698      0x184 ./SysLib/MercuryPlat/release/AL36V200_SDK.a(debug.o)
                0x60375698                mbedtls_debug_print_crt
 .rodata.mbedtls_debug_print_buf.str1.1
                0x6037581c       0x2a ./SysLib/MercuryPlat/release/AL36V200_SDK.a(debug.o)
 .rodata.mbedtls_debug_print_crt.str1.1
                0x60375846       0x36 ./SysLib/MercuryPlat/release/AL36V200_SDK.a(debug.o)
                                 0x3c (size before relaxing)
 .rodata.mbedtls_debug_print_ecp.str1.1
                0x6037587c        0xc ./SysLib/MercuryPlat/release/AL36V200_SDK.a(debug.o)
 .rodata.mbedtls_debug_print_mpi.part.1.str1.1
                0x60375888       0x27 ./SysLib/MercuryPlat/release/AL36V200_SDK.a(debug.o)
                                 0x29 (size before relaxing)
 .rodata.mbedtls_debug_print_ret.str1.1
                0x603758af       0x1c ./SysLib/MercuryPlat/release/AL36V200_SDK.a(debug.o)
 .text          0x603758cb        0x0 ./SysLib/MercuryPlat/release/AL36V200_SDK.a(des.o)
 *fill*         0x603758cb        0x1 
 .text.mbedtls_zeroize
                0x603758cc       0x10 ./SysLib/MercuryPlat/release/AL36V200_SDK.a(des.o)
 .text.mbedtls_des_init
                0x603758dc        0x8 ./SysLib/MercuryPlat/release/AL36V200_SDK.a(des.o)
                0x603758dc                mbedtls_des_init
 .text.mbedtls_des_free
                0x603758e4        0xa ./SysLib/MercuryPlat/release/AL36V200_SDK.a(des.o)
                0x603758e4                mbedtls_des_free
 .text.mbedtls_des3_init
                0x603758ee        0xa ./SysLib/MercuryPlat/release/AL36V200_SDK.a(des.o)
                0x603758ee                mbedtls_des3_init
 .text.mbedtls_des3_free
                0x603758f8        0xc ./SysLib/MercuryPlat/release/AL36V200_SDK.a(des.o)
                0x603758f8                mbedtls_des3_free
 .text.mbedtls_des_key_set_parity
                0x60375904       0x1c ./SysLib/MercuryPlat/release/AL36V200_SDK.a(des.o)
                0x60375904                mbedtls_des_key_set_parity
 .text.mbedtls_des_key_check_key_parity
                0x60375920       0x24 ./SysLib/MercuryPlat/release/AL36V200_SDK.a(des.o)
                0x60375920                mbedtls_des_key_check_key_parity
 .text.mbedtls_des_key_check_weak
                0x60375944       0x28 ./SysLib/MercuryPlat/release/AL36V200_SDK.a(des.o)
                0x60375944                mbedtls_des_key_check_weak
 .text.mbedtls_des_setkey
                0x6037596c      0x318 ./SysLib/MercuryPlat/release/AL36V200_SDK.a(des.o)
                0x6037596c                mbedtls_des_setkey
 .text.des3_set2key
                0x60375c84       0x72 ./SysLib/MercuryPlat/release/AL36V200_SDK.a(des.o)
 .text.des3_set3key
                0x60375cf6       0x68 ./SysLib/MercuryPlat/release/AL36V200_SDK.a(des.o)
 .text.mbedtls_des_setkey_enc
                0x60375d5e        0xa ./SysLib/MercuryPlat/release/AL36V200_SDK.a(des.o)
                0x60375d5e                mbedtls_des_setkey_enc
 .text.mbedtls_des_setkey_dec
                0x60375d68       0x38 ./SysLib/MercuryPlat/release/AL36V200_SDK.a(des.o)
                0x60375d68                mbedtls_des_setkey_dec
 .text.mbedtls_des3_set2key_enc
                0x60375da0       0x1e ./SysLib/MercuryPlat/release/AL36V200_SDK.a(des.o)
                0x60375da0                mbedtls_des3_set2key_enc
 .text.mbedtls_des3_set2key_dec
                0x60375dbe       0x20 ./SysLib/MercuryPlat/release/AL36V200_SDK.a(des.o)
                0x60375dbe                mbedtls_des3_set2key_dec
 .text.mbedtls_des3_set3key_enc
                0x60375dde       0x1e ./SysLib/MercuryPlat/release/AL36V200_SDK.a(des.o)
                0x60375dde                mbedtls_des3_set3key_enc
 .text.mbedtls_des3_set3key_dec
                0x60375dfc       0x20 ./SysLib/MercuryPlat/release/AL36V200_SDK.a(des.o)
                0x60375dfc                mbedtls_des3_set3key_dec
 .text.mbedtls_des_crypt_ecb
                0x60375e1c      0x208 ./SysLib/MercuryPlat/release/AL36V200_SDK.a(des.o)
                0x60375e1c                mbedtls_des_crypt_ecb
 .text.mbedtls_des_crypt_cbc
                0x60376024       0xa0 ./SysLib/MercuryPlat/release/AL36V200_SDK.a(des.o)
                0x60376024                mbedtls_des_crypt_cbc
 .text.mbedtls_des3_crypt_ecb
                0x603760c4      0x434 ./SysLib/MercuryPlat/release/AL36V200_SDK.a(des.o)
                0x603760c4                mbedtls_des3_crypt_ecb
 .text.mbedtls_des3_crypt_cbc
                0x603764f8       0xa0 ./SysLib/MercuryPlat/release/AL36V200_SDK.a(des.o)
                0x603764f8                mbedtls_des3_crypt_cbc
 .rodata.LHs    0x60376598       0x40 ./SysLib/MercuryPlat/release/AL36V200_SDK.a(des.o)
 .rodata.RHs    0x603765d8       0x40 ./SysLib/MercuryPlat/release/AL36V200_SDK.a(des.o)
 .rodata.SB1    0x60376618      0x100 ./SysLib/MercuryPlat/release/AL36V200_SDK.a(des.o)
 .rodata.SB2    0x60376718      0x100 ./SysLib/MercuryPlat/release/AL36V200_SDK.a(des.o)
 .rodata.SB3    0x60376818      0x100 ./SysLib/MercuryPlat/release/AL36V200_SDK.a(des.o)
 .rodata.SB4    0x60376918      0x100 ./SysLib/MercuryPlat/release/AL36V200_SDK.a(des.o)
 .rodata.SB5    0x60376a18      0x100 ./SysLib/MercuryPlat/release/AL36V200_SDK.a(des.o)
 .rodata.SB6    0x60376b18      0x100 ./SysLib/MercuryPlat/release/AL36V200_SDK.a(des.o)
 .rodata.SB7    0x60376c18      0x100 ./SysLib/MercuryPlat/release/AL36V200_SDK.a(des.o)
 .rodata.SB8    0x60376d18      0x100 ./SysLib/MercuryPlat/release/AL36V200_SDK.a(des.o)
 .rodata.odd_parity_table
                0x60376e18       0x80 ./SysLib/MercuryPlat/release/AL36V200_SDK.a(des.o)
 .rodata.weak_key_table
                0x60376e98       0x80 ./SysLib/MercuryPlat/release/AL36V200_SDK.a(des.o)
 .text          0x60376f18        0x0 ./SysLib/MercuryPlat/release/AL36V200_SDK.a(dhm.o)
 .text.dhm_read_bignum
                0x60376f18       0x40 ./SysLib/MercuryPlat/release/AL36V200_SDK.a(dhm.o)
 .text.dhm_check_range
                0x60376f58       0x54 ./SysLib/MercuryPlat/release/AL36V200_SDK.a(dhm.o)
 .text.mbedtls_dhm_init
                0x60376fac        0x8 ./SysLib/MercuryPlat/release/AL36V200_SDK.a(dhm.o)
                0x60376fac                mbedtls_dhm_init
 .text.mbedtls_dhm_read_params
                0x60376fb4       0x52 ./SysLib/MercuryPlat/release/AL36V200_SDK.a(dhm.o)
                0x60376fb4                mbedtls_dhm_read_params
 *fill*         0x60377006        0x2 
 .text.mbedtls_dhm_make_params
                0x60377008      0x11c ./SysLib/MercuryPlat/release/AL36V200_SDK.a(dhm.o)
                0x60377008                mbedtls_dhm_make_params
 .text.mbedtls_dhm_read_public
                0x60377124       0x24 ./SysLib/MercuryPlat/release/AL36V200_SDK.a(dhm.o)
                0x60377124                mbedtls_dhm_read_public
 .text.mbedtls_dhm_make_public
                0x60377148       0xb0 ./SysLib/MercuryPlat/release/AL36V200_SDK.a(dhm.o)
                0x60377148                mbedtls_dhm_make_public
 .text.mbedtls_dhm_calc_secret
                0x603771f8      0x1f0 ./SysLib/MercuryPlat/release/AL36V200_SDK.a(dhm.o)
                0x603771f8                mbedtls_dhm_calc_secret
 .text.mbedtls_dhm_free
                0x603773e8       0x62 ./SysLib/MercuryPlat/release/AL36V200_SDK.a(dhm.o)
                0x603773e8                mbedtls_dhm_free
 *fill*         0x6037744a        0x2 
 .text.mbedtls_dhm_parse_dhm
                0x6037744c       0xe8 ./SysLib/MercuryPlat/release/AL36V200_SDK.a(dhm.o)
                0x6037744c                mbedtls_dhm_parse_dhm
 .rodata.mbedtls_dhm_parse_dhm.str1.1
                0x60377534       0x3a ./SysLib/MercuryPlat/release/AL36V200_SDK.a(dhm.o)
 .text          0x6037756e        0x0 ./SysLib/MercuryPlat/release/AL36V200_SDK.a(ecdh.o)
 .text.mbedtls_ecdh_gen_public
                0x6037756e        0x4 ./SysLib/MercuryPlat/release/AL36V200_SDK.a(ecdh.o)
                0x6037756e                mbedtls_ecdh_gen_public
 *fill*         0x60377572        0x2 
 .text.mbedtls_ecdh_compute_shared
                0x60377574       0x60 ./SysLib/MercuryPlat/release/AL36V200_SDK.a(ecdh.o)
                0x60377574                mbedtls_ecdh_compute_shared
 .text.mbedtls_ecdh_init
                0x603775d4        0xa ./SysLib/MercuryPlat/release/AL36V200_SDK.a(ecdh.o)
                0x603775d4                mbedtls_ecdh_init
 .text.mbedtls_ecdh_free
                0x603775de       0x48 ./SysLib/MercuryPlat/release/AL36V200_SDK.a(ecdh.o)
                0x603775de                mbedtls_ecdh_free
 *fill*         0x60377626        0x2 
 .text.mbedtls_ecdh_make_params
                0x60377628       0x68 ./SysLib/MercuryPlat/release/AL36V200_SDK.a(ecdh.o)
                0x60377628                mbedtls_ecdh_make_params
 .text.mbedtls_ecdh_read_params
                0x60377690       0x28 ./SysLib/MercuryPlat/release/AL36V200_SDK.a(ecdh.o)
                0x60377690                mbedtls_ecdh_read_params
 .text.mbedtls_ecdh_get_params
                0x603776b8       0x4c ./SysLib/MercuryPlat/release/AL36V200_SDK.a(ecdh.o)
                0x603776b8                mbedtls_ecdh_get_params
 .text.mbedtls_ecdh_make_public
                0x60377704       0x4c ./SysLib/MercuryPlat/release/AL36V200_SDK.a(ecdh.o)
                0x60377704                mbedtls_ecdh_make_public
 .text.mbedtls_ecdh_read_public
                0x60377750       0x30 ./SysLib/MercuryPlat/release/AL36V200_SDK.a(ecdh.o)
                0x60377750                mbedtls_ecdh_read_public
 .text.mbedtls_ecdh_calc_secret
                0x60377780       0x60 ./SysLib/MercuryPlat/release/AL36V200_SDK.a(ecdh.o)
                0x60377780                mbedtls_ecdh_calc_secret
 .text          0x603777e0        0x0 ./SysLib/MercuryPlat/release/AL36V200_SDK.a(ecdsa.o)
 .text.derive_mpi
                0x603777e0       0x58 ./SysLib/MercuryPlat/release/AL36V200_SDK.a(ecdsa.o)
 .text.mbedtls_ecdsa_sign
                0x60377838      0x180 ./SysLib/MercuryPlat/release/AL36V200_SDK.a(ecdsa.o)
                0x60377838                mbedtls_ecdsa_sign
 .text.mbedtls_ecdsa_sign_det
                0x603779b8       0xa8 ./SysLib/MercuryPlat/release/AL36V200_SDK.a(ecdsa.o)
                0x603779b8                mbedtls_ecdsa_sign_det
 .text.mbedtls_ecdsa_verify
                0x60377a60      0x13c ./SysLib/MercuryPlat/release/AL36V200_SDK.a(ecdsa.o)
                0x60377a60                mbedtls_ecdsa_verify
 .text.mbedtls_ecdsa_write_signature
                0x60377b9c       0xa2 ./SysLib/MercuryPlat/release/AL36V200_SDK.a(ecdsa.o)
                0x60377b9c                mbedtls_ecdsa_write_signature
 .text.mbedtls_ecdsa_write_signature_det
                0x60377c3e       0x1e ./SysLib/MercuryPlat/release/AL36V200_SDK.a(ecdsa.o)
                0x60377c3e                mbedtls_ecdsa_write_signature_det
 .text.mbedtls_ecdsa_read_signature
                0x60377c5c       0xa0 ./SysLib/MercuryPlat/release/AL36V200_SDK.a(ecdsa.o)
                0x60377c5c                mbedtls_ecdsa_read_signature
 .text.mbedtls_ecdsa_genkey
                0x60377cfc       0x2e ./SysLib/MercuryPlat/release/AL36V200_SDK.a(ecdsa.o)
                0x60377cfc                mbedtls_ecdsa_genkey
 .text.mbedtls_ecdsa_from_keypair
                0x60377d2a       0x38 ./SysLib/MercuryPlat/release/AL36V200_SDK.a(ecdsa.o)
                0x60377d2a                mbedtls_ecdsa_from_keypair
 .text.mbedtls_ecdsa_init
                0x60377d62        0x4 ./SysLib/MercuryPlat/release/AL36V200_SDK.a(ecdsa.o)
                0x60377d62                mbedtls_ecdsa_init
 .text.mbedtls_ecdsa_free
                0x60377d66        0x4 ./SysLib/MercuryPlat/release/AL36V200_SDK.a(ecdsa.o)
                0x60377d66                mbedtls_ecdsa_free
 .text          0x60377d6a        0x0 ./SysLib/MercuryPlat/release/AL36V200_SDK.a(ecp.o)
 .text.ecp_get_type
                0x60377d6a       0x14 ./SysLib/MercuryPlat/release/AL36V200_SDK.a(ecp.o)
 .text.ecp_safe_invert_jac
                0x60377d7e       0x46 ./SysLib/MercuryPlat/release/AL36V200_SDK.a(ecp.o)
 .text.ecp_modp
                0x60377dc4       0x8c ./SysLib/MercuryPlat/release/AL36V200_SDK.a(ecp.o)
 .text.ecp_normalize_jac
                0x60377e50       0xba ./SysLib/MercuryPlat/release/AL36V200_SDK.a(ecp.o)
 .text.ecp_double_jac
                0x60377f0a      0x47a ./SysLib/MercuryPlat/release/AL36V200_SDK.a(ecp.o)
 .text.ecp_select_comb
                0x60378384       0x64 ./SysLib/MercuryPlat/release/AL36V200_SDK.a(ecp.o)
 .text.ecp_normalize_jac_many.part.3
                0x603783e8      0x1f8 ./SysLib/MercuryPlat/release/AL36V200_SDK.a(ecp.o)
 .text.mbedtls_ecp_point_init.part.4
                0x603785e0       0x1c ./SysLib/MercuryPlat/release/AL36V200_SDK.a(ecp.o)
 .text.mbedtls_ecp_point_free.part.6
                0x603785fc       0x1c ./SysLib/MercuryPlat/release/AL36V200_SDK.a(ecp.o)
 .text.mbedtls_ecp_curve_list
                0x60378618        0x8 ./SysLib/MercuryPlat/release/AL36V200_SDK.a(ecp.o)
                0x60378618                mbedtls_ecp_curve_list
 .text.mbedtls_ecp_grp_id_list
                0x60378620       0x34 ./SysLib/MercuryPlat/release/AL36V200_SDK.a(ecp.o)
                0x60378620                mbedtls_ecp_grp_id_list
 .text.mbedtls_ecp_curve_info_from_grp_id
                0x60378654       0x20 ./SysLib/MercuryPlat/release/AL36V200_SDK.a(ecp.o)
                0x60378654                mbedtls_ecp_curve_info_from_grp_id
 .text.mbedtls_ecp_curve_info_from_tls_id
                0x60378674       0x1c ./SysLib/MercuryPlat/release/AL36V200_SDK.a(ecp.o)
                0x60378674                mbedtls_ecp_curve_info_from_tls_id
 .text.mbedtls_ecp_curve_info_from_name
                0x60378690       0x24 ./SysLib/MercuryPlat/release/AL36V200_SDK.a(ecp.o)
                0x60378690                mbedtls_ecp_curve_info_from_name
 .text.mbedtls_ecp_point_init
                0x603786b4        0x8 ./SysLib/MercuryPlat/release/AL36V200_SDK.a(ecp.o)
                0x603786b4                mbedtls_ecp_point_init
 .text.mbedtls_ecp_group_init
                0x603786bc        0xc ./SysLib/MercuryPlat/release/AL36V200_SDK.a(ecp.o)
                0x603786bc                mbedtls_ecp_group_init
 .text.mbedtls_ecp_keypair_init
                0x603786c8       0x20 ./SysLib/MercuryPlat/release/AL36V200_SDK.a(ecp.o)
                0x603786c8                mbedtls_ecp_keypair_init
 .text.mbedtls_ecp_point_free
                0x603786e8        0x8 ./SysLib/MercuryPlat/release/AL36V200_SDK.a(ecp.o)
                0x603786e8                mbedtls_ecp_point_free
 .text.mbedtls_ecp_group_free
                0x603786f0       0x66 ./SysLib/MercuryPlat/release/AL36V200_SDK.a(ecp.o)
                0x603786f0                mbedtls_ecp_group_free
 .text.mbedtls_ecp_keypair_free
                0x60378756       0x20 ./SysLib/MercuryPlat/release/AL36V200_SDK.a(ecp.o)
                0x60378756                mbedtls_ecp_keypair_free
 .text.mbedtls_ecp_copy
                0x60378776       0x2c ./SysLib/MercuryPlat/release/AL36V200_SDK.a(ecp.o)
                0x60378776                mbedtls_ecp_copy
 .text.mbedtls_ecp_group_copy
                0x603787a2        0x6 ./SysLib/MercuryPlat/release/AL36V200_SDK.a(ecp.o)
                0x603787a2                mbedtls_ecp_group_copy
 .text.mbedtls_ecp_set_zero
                0x603787a8       0x28 ./SysLib/MercuryPlat/release/AL36V200_SDK.a(ecp.o)
                0x603787a8                mbedtls_ecp_set_zero
 .text.ecp_add_mixed
                0x603787d0      0x3f4 ./SysLib/MercuryPlat/release/AL36V200_SDK.a(ecp.o)
 .text.ecp_mul_comb
                0x60378bc4      0x4c0 ./SysLib/MercuryPlat/release/AL36V200_SDK.a(ecp.o)
 .text.mbedtls_ecp_is_zero
                0x60379084       0x12 ./SysLib/MercuryPlat/release/AL36V200_SDK.a(ecp.o)
                0x60379084                mbedtls_ecp_is_zero
 *fill*         0x60379096        0x2 
 .text.mbedtls_ecp_point_cmp
                0x60379098       0x30 ./SysLib/MercuryPlat/release/AL36V200_SDK.a(ecp.o)
                0x60379098                mbedtls_ecp_point_cmp
 .text.mbedtls_ecp_point_read_string
                0x603790c8       0x2c ./SysLib/MercuryPlat/release/AL36V200_SDK.a(ecp.o)
                0x603790c8                mbedtls_ecp_point_read_string
 .text.mbedtls_ecp_point_write_binary
                0x603790f4       0xa0 ./SysLib/MercuryPlat/release/AL36V200_SDK.a(ecp.o)
                0x603790f4                mbedtls_ecp_point_write_binary
 .text.mbedtls_ecp_point_read_binary
                0x60379194       0x70 ./SysLib/MercuryPlat/release/AL36V200_SDK.a(ecp.o)
                0x60379194                mbedtls_ecp_point_read_binary
 .text.mbedtls_ecp_tls_read_point
                0x60379204       0x30 ./SysLib/MercuryPlat/release/AL36V200_SDK.a(ecp.o)
                0x60379204                mbedtls_ecp_tls_read_point
 .text.mbedtls_ecp_tls_write_point
                0x60379234       0x30 ./SysLib/MercuryPlat/release/AL36V200_SDK.a(ecp.o)
                0x60379234                mbedtls_ecp_tls_write_point
 .text.mbedtls_ecp_tls_read_group
                0x60379264       0x48 ./SysLib/MercuryPlat/release/AL36V200_SDK.a(ecp.o)
                0x60379264                mbedtls_ecp_tls_read_group
 .text.mbedtls_ecp_tls_write_group
                0x603792ac       0x38 ./SysLib/MercuryPlat/release/AL36V200_SDK.a(ecp.o)
                0x603792ac                mbedtls_ecp_tls_write_group
 .text.mbedtls_ecp_check_pubkey
                0x603792e4      0x188 ./SysLib/MercuryPlat/release/AL36V200_SDK.a(ecp.o)
                0x603792e4                mbedtls_ecp_check_pubkey
 .text.mbedtls_ecp_check_privkey
                0x6037946c       0x70 ./SysLib/MercuryPlat/release/AL36V200_SDK.a(ecp.o)
                0x6037946c                mbedtls_ecp_check_privkey
 .text.mbedtls_ecp_mul
                0x603794dc      0x544 ./SysLib/MercuryPlat/release/AL36V200_SDK.a(ecp.o)
                0x603794dc                mbedtls_ecp_mul
 .text.mbedtls_ecp_mul_shortcuts
                0x60379a20       0x6a ./SysLib/MercuryPlat/release/AL36V200_SDK.a(ecp.o)
 *fill*         0x60379a8a        0x2 
 .text.mbedtls_ecp_muladd
                0x60379a8c       0x68 ./SysLib/MercuryPlat/release/AL36V200_SDK.a(ecp.o)
                0x60379a8c                mbedtls_ecp_muladd
 .text.mbedtls_ecp_gen_keypair_base
                0x60379af4      0x100 ./SysLib/MercuryPlat/release/AL36V200_SDK.a(ecp.o)
                0x60379af4                mbedtls_ecp_gen_keypair_base
 .text.mbedtls_ecp_gen_keypair
                0x60379bf4       0x18 ./SysLib/MercuryPlat/release/AL36V200_SDK.a(ecp.o)
                0x60379bf4                mbedtls_ecp_gen_keypair
 .text.mbedtls_ecp_gen_key
                0x60379c0c       0x28 ./SysLib/MercuryPlat/release/AL36V200_SDK.a(ecp.o)
                0x60379c0c                mbedtls_ecp_gen_key
 .text.mbedtls_ecp_check_pub_priv
                0x60379c34       0xb8 ./SysLib/MercuryPlat/release/AL36V200_SDK.a(ecp.o)
                0x60379c34                mbedtls_ecp_check_pub_priv
 .rodata.ecp_supported_curves
                0x60379cec       0x90 ./SysLib/MercuryPlat/release/AL36V200_SDK.a(ecp.o)
 .rodata.str1.1
                0x60379d7c       0x80 ./SysLib/MercuryPlat/release/AL36V200_SDK.a(ecp.o)
 .text          0x60379d7c        0x0 ./SysLib/MercuryPlat/release/AL36V200_SDK.a(ecp_curves.o)
 .text.add64    0x60379d7c       0x38 ./SysLib/MercuryPlat/release/AL36V200_SDK.a(ecp_curves.o)
 .text.add32    0x60379db4       0x18 ./SysLib/MercuryPlat/release/AL36V200_SDK.a(ecp_curves.o)
 .text.sub32    0x60379dcc       0x16 ./SysLib/MercuryPlat/release/AL36V200_SDK.a(ecp_curves.o)
 .text.ecp_mod_p255
                0x60379de2       0x80 ./SysLib/MercuryPlat/release/AL36V200_SDK.a(ecp_curves.o)
 .text.ecp_mod_p521
                0x60379e62       0x60 ./SysLib/MercuryPlat/release/AL36V200_SDK.a(ecp_curves.o)
 .text.fix_negative.isra.0
                0x60379ec2       0x28 ./SysLib/MercuryPlat/release/AL36V200_SDK.a(ecp_curves.o)
 .text.ecp_mod_p384
                0x60379eea      0x5fc ./SysLib/MercuryPlat/release/AL36V200_SDK.a(ecp_curves.o)
 .text.ecp_mod_p256
                0x6037a4e6      0x4aa ./SysLib/MercuryPlat/release/AL36V200_SDK.a(ecp_curves.o)
 .text.ecp_mod_p224
                0x6037a990      0x266 ./SysLib/MercuryPlat/release/AL36V200_SDK.a(ecp_curves.o)
 .text.ecp_mod_koblitz.constprop.1
                0x6037abf6       0xe4 ./SysLib/MercuryPlat/release/AL36V200_SDK.a(ecp_curves.o)
 *fill*         0x6037acda        0x2 
 .text.ecp_mod_p192k1
                0x6037acdc        0xc ./SysLib/MercuryPlat/release/AL36V200_SDK.a(ecp_curves.o)
 .text.ecp_mod_p224k1
                0x6037ace8        0xc ./SysLib/MercuryPlat/release/AL36V200_SDK.a(ecp_curves.o)
 .text.ecp_mod_p256k1
                0x6037acf4        0xc ./SysLib/MercuryPlat/release/AL36V200_SDK.a(ecp_curves.o)
 .text.ecp_mod_p192
                0x6037ad00       0xcc ./SysLib/MercuryPlat/release/AL36V200_SDK.a(ecp_curves.o)
 .text.mbedtls_ecp_group_load
                0x6037adcc      0x430 ./SysLib/MercuryPlat/release/AL36V200_SDK.a(ecp_curves.o)
                0x6037adcc                mbedtls_ecp_group_load
 .rodata.brainpoolP256r1_a
                0x6037b1fc       0x20 ./SysLib/MercuryPlat/release/AL36V200_SDK.a(ecp_curves.o)
 .rodata.brainpoolP256r1_b
                0x6037b21c       0x20 ./SysLib/MercuryPlat/release/AL36V200_SDK.a(ecp_curves.o)
 .rodata.brainpoolP256r1_gx
                0x6037b23c       0x20 ./SysLib/MercuryPlat/release/AL36V200_SDK.a(ecp_curves.o)
 .rodata.brainpoolP256r1_gy
                0x6037b25c       0x20 ./SysLib/MercuryPlat/release/AL36V200_SDK.a(ecp_curves.o)
 .rodata.brainpoolP256r1_n
                0x6037b27c       0x20 ./SysLib/MercuryPlat/release/AL36V200_SDK.a(ecp_curves.o)
 .rodata.brainpoolP256r1_p
                0x6037b29c       0x20 ./SysLib/MercuryPlat/release/AL36V200_SDK.a(ecp_curves.o)
 .rodata.brainpoolP384r1_a
                0x6037b2bc       0x30 ./SysLib/MercuryPlat/release/AL36V200_SDK.a(ecp_curves.o)
 .rodata.brainpoolP384r1_b
                0x6037b2ec       0x30 ./SysLib/MercuryPlat/release/AL36V200_SDK.a(ecp_curves.o)
 .rodata.brainpoolP384r1_gx
                0x6037b31c       0x30 ./SysLib/MercuryPlat/release/AL36V200_SDK.a(ecp_curves.o)
 .rodata.brainpoolP384r1_gy
                0x6037b34c       0x30 ./SysLib/MercuryPlat/release/AL36V200_SDK.a(ecp_curves.o)
 .rodata.brainpoolP384r1_n
                0x6037b37c       0x30 ./SysLib/MercuryPlat/release/AL36V200_SDK.a(ecp_curves.o)
 .rodata.brainpoolP384r1_p
                0x6037b3ac       0x30 ./SysLib/MercuryPlat/release/AL36V200_SDK.a(ecp_curves.o)
 .rodata.brainpoolP512r1_a
                0x6037b3dc       0x40 ./SysLib/MercuryPlat/release/AL36V200_SDK.a(ecp_curves.o)
 .rodata.brainpoolP512r1_b
                0x6037b41c       0x40 ./SysLib/MercuryPlat/release/AL36V200_SDK.a(ecp_curves.o)
 .rodata.brainpoolP512r1_gx
                0x6037b45c       0x40 ./SysLib/MercuryPlat/release/AL36V200_SDK.a(ecp_curves.o)
 .rodata.brainpoolP512r1_gy
                0x6037b49c       0x40 ./SysLib/MercuryPlat/release/AL36V200_SDK.a(ecp_curves.o)
 .rodata.brainpoolP512r1_n
                0x6037b4dc       0x40 ./SysLib/MercuryPlat/release/AL36V200_SDK.a(ecp_curves.o)
 .rodata.brainpoolP512r1_p
                0x6037b51c       0x40 ./SysLib/MercuryPlat/release/AL36V200_SDK.a(ecp_curves.o)
 .rodata.mbedtls_ecp_group_load.str1.1
                0x6037b55c        0x7 ./SysLib/MercuryPlat/release/AL36V200_SDK.a(ecp_curves.o)
 *fill*         0x6037b563        0x1 
 .rodata.secp192k1_a
                0x6037b564        0x4 ./SysLib/MercuryPlat/release/AL36V200_SDK.a(ecp_curves.o)
 .rodata.secp192k1_b
                0x6037b568        0x4 ./SysLib/MercuryPlat/release/AL36V200_SDK.a(ecp_curves.o)
 .rodata.secp192k1_gx
                0x6037b56c       0x18 ./SysLib/MercuryPlat/release/AL36V200_SDK.a(ecp_curves.o)
 .rodata.secp192k1_gy
                0x6037b584       0x18 ./SysLib/MercuryPlat/release/AL36V200_SDK.a(ecp_curves.o)
 .rodata.secp192k1_n
                0x6037b59c       0x18 ./SysLib/MercuryPlat/release/AL36V200_SDK.a(ecp_curves.o)
 .rodata.secp192k1_p
                0x6037b5b4       0x18 ./SysLib/MercuryPlat/release/AL36V200_SDK.a(ecp_curves.o)
 .rodata.secp192r1_b
                0x6037b5cc       0x18 ./SysLib/MercuryPlat/release/AL36V200_SDK.a(ecp_curves.o)
 .rodata.secp192r1_gx
                0x6037b5e4       0x18 ./SysLib/MercuryPlat/release/AL36V200_SDK.a(ecp_curves.o)
 .rodata.secp192r1_gy
                0x6037b5fc       0x18 ./SysLib/MercuryPlat/release/AL36V200_SDK.a(ecp_curves.o)
 .rodata.secp192r1_n
                0x6037b614       0x18 ./SysLib/MercuryPlat/release/AL36V200_SDK.a(ecp_curves.o)
 .rodata.secp192r1_p
                0x6037b62c       0x18 ./SysLib/MercuryPlat/release/AL36V200_SDK.a(ecp_curves.o)
 .rodata.secp224k1_a
                0x6037b644        0x4 ./SysLib/MercuryPlat/release/AL36V200_SDK.a(ecp_curves.o)
 .rodata.secp224k1_b
                0x6037b648        0x4 ./SysLib/MercuryPlat/release/AL36V200_SDK.a(ecp_curves.o)
 .rodata.secp224k1_gx
                0x6037b64c       0x1c ./SysLib/MercuryPlat/release/AL36V200_SDK.a(ecp_curves.o)
 .rodata.secp224k1_gy
                0x6037b668       0x1c ./SysLib/MercuryPlat/release/AL36V200_SDK.a(ecp_curves.o)
 .rodata.secp224k1_n
                0x6037b684       0x20 ./SysLib/MercuryPlat/release/AL36V200_SDK.a(ecp_curves.o)
 .rodata.secp224k1_p
                0x6037b6a4       0x1c ./SysLib/MercuryPlat/release/AL36V200_SDK.a(ecp_curves.o)
 .rodata.secp224r1_b
                0x6037b6c0       0x1c ./SysLib/MercuryPlat/release/AL36V200_SDK.a(ecp_curves.o)
 .rodata.secp224r1_gx
                0x6037b6dc       0x1c ./SysLib/MercuryPlat/release/AL36V200_SDK.a(ecp_curves.o)
 .rodata.secp224r1_gy
                0x6037b6f8       0x1c ./SysLib/MercuryPlat/release/AL36V200_SDK.a(ecp_curves.o)
 .rodata.secp224r1_n
                0x6037b714       0x1c ./SysLib/MercuryPlat/release/AL36V200_SDK.a(ecp_curves.o)
 .rodata.secp224r1_p
                0x6037b730       0x20 ./SysLib/MercuryPlat/release/AL36V200_SDK.a(ecp_curves.o)
 .rodata.secp256k1_a
                0x6037b750        0x4 ./SysLib/MercuryPlat/release/AL36V200_SDK.a(ecp_curves.o)
 .rodata.secp256k1_b
                0x6037b754        0x4 ./SysLib/MercuryPlat/release/AL36V200_SDK.a(ecp_curves.o)
 .rodata.secp256k1_gx
                0x6037b758       0x20 ./SysLib/MercuryPlat/release/AL36V200_SDK.a(ecp_curves.o)
 .rodata.secp256k1_gy
                0x6037b778       0x20 ./SysLib/MercuryPlat/release/AL36V200_SDK.a(ecp_curves.o)
 .rodata.secp256k1_n
                0x6037b798       0x20 ./SysLib/MercuryPlat/release/AL36V200_SDK.a(ecp_curves.o)
 .rodata.secp256k1_p
                0x6037b7b8       0x20 ./SysLib/MercuryPlat/release/AL36V200_SDK.a(ecp_curves.o)
 .rodata.secp256r1_b
                0x6037b7d8       0x20 ./SysLib/MercuryPlat/release/AL36V200_SDK.a(ecp_curves.o)
 .rodata.secp256r1_gx
                0x6037b7f8       0x20 ./SysLib/MercuryPlat/release/AL36V200_SDK.a(ecp_curves.o)
 .rodata.secp256r1_gy
                0x6037b818       0x20 ./SysLib/MercuryPlat/release/AL36V200_SDK.a(ecp_curves.o)
 .rodata.secp256r1_n
                0x6037b838       0x20 ./SysLib/MercuryPlat/release/AL36V200_SDK.a(ecp_curves.o)
 .rodata.secp256r1_p
                0x6037b858       0x20 ./SysLib/MercuryPlat/release/AL36V200_SDK.a(ecp_curves.o)
 .rodata.secp384r1_b
                0x6037b878       0x30 ./SysLib/MercuryPlat/release/AL36V200_SDK.a(ecp_curves.o)
 .rodata.secp384r1_gx
                0x6037b8a8       0x30 ./SysLib/MercuryPlat/release/AL36V200_SDK.a(ecp_curves.o)
 .rodata.secp384r1_gy
                0x6037b8d8       0x30 ./SysLib/MercuryPlat/release/AL36V200_SDK.a(ecp_curves.o)
 .rodata.secp384r1_n
                0x6037b908       0x30 ./SysLib/MercuryPlat/release/AL36V200_SDK.a(ecp_curves.o)
 .rodata.secp384r1_p
                0x6037b938       0x30 ./SysLib/MercuryPlat/release/AL36V200_SDK.a(ecp_curves.o)
 .rodata.secp521r1_b
                0x6037b968       0x44 ./SysLib/MercuryPlat/release/AL36V200_SDK.a(ecp_curves.o)
 .rodata.secp521r1_gx
                0x6037b9ac       0x44 ./SysLib/MercuryPlat/release/AL36V200_SDK.a(ecp_curves.o)
 .rodata.secp521r1_gy
                0x6037b9f0       0x44 ./SysLib/MercuryPlat/release/AL36V200_SDK.a(ecp_curves.o)
 .rodata.secp521r1_n
                0x6037ba34       0x44 ./SysLib/MercuryPlat/release/AL36V200_SDK.a(ecp_curves.o)
 .rodata.secp521r1_p
                0x6037ba78       0x44 ./SysLib/MercuryPlat/release/AL36V200_SDK.a(ecp_curves.o)
 .text          0x6037babc        0x0 ./SysLib/MercuryPlat/release/AL36V200_SDK.a(gcm.o)
 .text.gcm_mult
                0x6037babc      0x188 ./SysLib/MercuryPlat/release/AL36V200_SDK.a(gcm.o)
 .text.mbedtls_gcm_init
                0x6037bc44        0xa ./SysLib/MercuryPlat/release/AL36V200_SDK.a(gcm.o)
                0x6037bc44                mbedtls_gcm_init
 .text.mbedtls_gcm_setkey
                0x6037bc4e      0x18e ./SysLib/MercuryPlat/release/AL36V200_SDK.a(gcm.o)
                0x6037bc4e                mbedtls_gcm_setkey
 .text.mbedtls_gcm_starts
                0x6037bddc      0x12a ./SysLib/MercuryPlat/release/AL36V200_SDK.a(gcm.o)
                0x6037bddc                mbedtls_gcm_starts
 .text.mbedtls_gcm_update
                0x6037bf06      0x106 ./SysLib/MercuryPlat/release/AL36V200_SDK.a(gcm.o)
                0x6037bf06                mbedtls_gcm_update
 .text.mbedtls_gcm_finish
                0x6037c00c       0xf6 ./SysLib/MercuryPlat/release/AL36V200_SDK.a(gcm.o)
                0x6037c00c                mbedtls_gcm_finish
 .text.mbedtls_gcm_crypt_and_tag
                0x6037c102       0x46 ./SysLib/MercuryPlat/release/AL36V200_SDK.a(gcm.o)
                0x6037c102                mbedtls_gcm_crypt_and_tag
 .text.mbedtls_gcm_auth_decrypt
                0x6037c148       0x58 ./SysLib/MercuryPlat/release/AL36V200_SDK.a(gcm.o)
                0x6037c148                mbedtls_gcm_auth_decrypt
 .text.mbedtls_gcm_free
                0x6037c1a0       0x1a ./SysLib/MercuryPlat/release/AL36V200_SDK.a(gcm.o)
                0x6037c1a0                mbedtls_gcm_free
 *fill*         0x6037c1ba        0x6 
 .rodata.last4  0x6037c1c0       0x80 ./SysLib/MercuryPlat/release/AL36V200_SDK.a(gcm.o)
 .text          0x6037c240        0x0 ./SysLib/MercuryPlat/release/AL36V200_SDK.a(hmac_drbg.o)
 .text.mbedtls_hmac_drbg_init
                0x6037c240        0x8 ./SysLib/MercuryPlat/release/AL36V200_SDK.a(hmac_drbg.o)
                0x6037c240                mbedtls_hmac_drbg_init
 .text.mbedtls_hmac_drbg_update
                0x6037c248       0x9c ./SysLib/MercuryPlat/release/AL36V200_SDK.a(hmac_drbg.o)
                0x6037c248                mbedtls_hmac_drbg_update
 .text.mbedtls_hmac_drbg_seed_buf
                0x6037c2e4       0x4a ./SysLib/MercuryPlat/release/AL36V200_SDK.a(hmac_drbg.o)
                0x6037c2e4                mbedtls_hmac_drbg_seed_buf
 .text.mbedtls_hmac_drbg_reseed
                0x6037c32e       0x70 ./SysLib/MercuryPlat/release/AL36V200_SDK.a(hmac_drbg.o)
                0x6037c32e                mbedtls_hmac_drbg_reseed
 .text.mbedtls_hmac_drbg_seed
                0x6037c39e       0x68 ./SysLib/MercuryPlat/release/AL36V200_SDK.a(hmac_drbg.o)
                0x6037c39e                mbedtls_hmac_drbg_seed
 .text.mbedtls_hmac_drbg_set_prediction_resistance
                0x6037c406        0x4 ./SysLib/MercuryPlat/release/AL36V200_SDK.a(hmac_drbg.o)
                0x6037c406                mbedtls_hmac_drbg_set_prediction_resistance
 .text.mbedtls_hmac_drbg_set_entropy_len
                0x6037c40a        0x4 ./SysLib/MercuryPlat/release/AL36V200_SDK.a(hmac_drbg.o)
                0x6037c40a                mbedtls_hmac_drbg_set_entropy_len
 .text.mbedtls_hmac_drbg_set_reseed_interval
                0x6037c40e        0x4 ./SysLib/MercuryPlat/release/AL36V200_SDK.a(hmac_drbg.o)
                0x6037c40e                mbedtls_hmac_drbg_set_reseed_interval
 .text.mbedtls_hmac_drbg_random_with_add
                0x6037c412       0xb0 ./SysLib/MercuryPlat/release/AL36V200_SDK.a(hmac_drbg.o)
                0x6037c412                mbedtls_hmac_drbg_random_with_add
 .text.mbedtls_hmac_drbg_random
                0x6037c4c2       0x10 ./SysLib/MercuryPlat/release/AL36V200_SDK.a(hmac_drbg.o)
                0x6037c4c2                mbedtls_hmac_drbg_random
 .text.mbedtls_hmac_drbg_free
                0x6037c4d2       0x1c ./SysLib/MercuryPlat/release/AL36V200_SDK.a(hmac_drbg.o)
                0x6037c4d2                mbedtls_hmac_drbg_free
 .text          0x6037c4ee        0x0 ./SysLib/MercuryPlat/release/AL36V200_SDK.a(pkcs5.o)
 .text.mbedtls_pkcs5_pbkdf2_hmac
                0x6037c4ee       0xea ./SysLib/MercuryPlat/release/AL36V200_SDK.a(pkcs5.o)
                0x6037c4ee                mbedtls_pkcs5_pbkdf2_hmac
 .text.mbedtls_pkcs5_pbes2
                0x6037c5d8      0x1f8 ./SysLib/MercuryPlat/release/AL36V200_SDK.a(pkcs5.o)
                0x6037c5d8                mbedtls_pkcs5_pbes2
 .rodata.mbedtls_pkcs5_pbes2.str1.1
                0x6037c7d0       0x13 ./SysLib/MercuryPlat/release/AL36V200_SDK.a(pkcs5.o)
 .text          0x6037c7e3        0x0 ./SysLib/MercuryPlat/release/AL36V200_SDK.a(pkcs12.o)
 *fill*         0x6037c7e3        0x1 
 .text.mbedtls_zeroize
                0x6037c7e4       0x10 ./SysLib/MercuryPlat/release/AL36V200_SDK.a(pkcs12.o)
 .text.mbedtls_pkcs12_derivation
                0x6037c7f4      0x1e8 ./SysLib/MercuryPlat/release/AL36V200_SDK.a(pkcs12.o)
                0x6037c7f4                mbedtls_pkcs12_derivation
 .text.pkcs12_pbe_derive_key_iv
                0x6037c9dc       0xec ./SysLib/MercuryPlat/release/AL36V200_SDK.a(pkcs12.o)
 .text.mbedtls_pkcs12_pbe_sha1_rc4_128
                0x6037cac8       0x60 ./SysLib/MercuryPlat/release/AL36V200_SDK.a(pkcs12.o)
                0x6037cac8                mbedtls_pkcs12_pbe_sha1_rc4_128
 .text.mbedtls_pkcs12_pbe
                0x6037cb28       0xd4 ./SysLib/MercuryPlat/release/AL36V200_SDK.a(pkcs12.o)
                0x6037cb28                mbedtls_pkcs12_pbe
 .text          0x6037cbfc        0x0 ./SysLib/MercuryPlat/release/AL36V200_SDK.a(ssl_ciphersuites.o)
 .text.mbedtls_ssl_ciphersuite_from_string
                0x6037cbfc       0x2c ./SysLib/MercuryPlat/release/AL36V200_SDK.a(ssl_ciphersuites.o)
                0x6037cbfc                mbedtls_ssl_ciphersuite_from_string
 .text.mbedtls_ssl_ciphersuite_from_id
                0x6037cc28       0x20 ./SysLib/MercuryPlat/release/AL36V200_SDK.a(ssl_ciphersuites.o)
                0x6037cc28                mbedtls_ssl_ciphersuite_from_id
 .text.mbedtls_ssl_list_ciphersuites
                0x6037cc48       0x4c ./SysLib/MercuryPlat/release/AL36V200_SDK.a(ssl_ciphersuites.o)
                0x6037cc48                mbedtls_ssl_list_ciphersuites
 .text.mbedtls_ssl_get_ciphersuite_name
                0x6037cc94       0x14 ./SysLib/MercuryPlat/release/AL36V200_SDK.a(ssl_ciphersuites.o)
                0x6037cc94                mbedtls_ssl_get_ciphersuite_name
 .text.mbedtls_ssl_get_ciphersuite_id
                0x6037cca8        0xc ./SysLib/MercuryPlat/release/AL36V200_SDK.a(ssl_ciphersuites.o)
                0x6037cca8                mbedtls_ssl_get_ciphersuite_id
 .text.mbedtls_ssl_get_ciphersuite_sig_pk_alg
                0x6037ccb4       0x2c ./SysLib/MercuryPlat/release/AL36V200_SDK.a(ssl_ciphersuites.o)
                0x6037ccb4                mbedtls_ssl_get_ciphersuite_sig_pk_alg
 .text.mbedtls_ssl_ciphersuite_uses_ec
                0x6037cce0       0x1a ./SysLib/MercuryPlat/release/AL36V200_SDK.a(ssl_ciphersuites.o)
                0x6037cce0                mbedtls_ssl_ciphersuite_uses_ec
 .text.mbedtls_ssl_ciphersuite_uses_psk
                0x6037ccfa        0xe ./SysLib/MercuryPlat/release/AL36V200_SDK.a(ssl_ciphersuites.o)
                0x6037ccfa                mbedtls_ssl_ciphersuite_uses_psk
 .rodata.ciphersuite_definitions
                0x6037cd08     0x11a0 ./SysLib/MercuryPlat/release/AL36V200_SDK.a(ssl_ciphersuites.o)
 .rodata.ciphersuite_preference
                0x6037dea8      0x28c ./SysLib/MercuryPlat/release/AL36V200_SDK.a(ssl_ciphersuites.o)
 .rodata.mbedtls_ssl_get_ciphersuite_name.str1.1
                0x6037e134        0x8 ./SysLib/MercuryPlat/release/AL36V200_SDK.a(ssl_ciphersuites.o)
 .rodata.str1.1
                0x6037e134     0x1374 ./SysLib/MercuryPlat/release/AL36V200_SDK.a(ssl_ciphersuites.o)
                               0x1375 (size before relaxing)
 .text          0x6037f4a8        0x0 ./SysLib/MercuryPlat/release/AL36V200_SDK.a(ssl_cli.o)
 .text.mbedtls_ssl_own_key
                0x6037f4a8       0x18 ./SysLib/MercuryPlat/release/AL36V200_SDK.a(ssl_cli.o)
 .text.ssl_write_encrypted_pms
                0x6037f4c0      0x150 ./SysLib/MercuryPlat/release/AL36V200_SDK.a(ssl_cli.o)
 .text.ssl_check_server_ecdh_params
                0x6037f610       0x88 ./SysLib/MercuryPlat/release/AL36V200_SDK.a(ssl_cli.o)
 .text.ssl_parse_server_key_exchange
                0x6037f698      0x658 ./SysLib/MercuryPlat/release/AL36V200_SDK.a(ssl_cli.o)
 .text.mbedtls_ssl_handshake_client_step
                0x6037fcf0     0x19c8 ./SysLib/MercuryPlat/release/AL36V200_SDK.a(ssl_cli.o)
                0x6037fcf0                mbedtls_ssl_handshake_client_step
 .rodata.mbedtls_ssl_handshake_client_step.str1.1
                0x603816b8      0xb75 ./SysLib/MercuryPlat/release/AL36V200_SDK.a(ssl_cli.o)
                                0xbe2 (size before relaxing)
 .rodata.ssl_check_server_ecdh_params.str1.1
                0x6038222d       0x18 ./SysLib/MercuryPlat/release/AL36V200_SDK.a(ssl_cli.o)
                                 0x2c (size before relaxing)
 .rodata.ssl_parse_server_key_exchange.str1.1
                0x60382245      0x2b2 ./SysLib/MercuryPlat/release/AL36V200_SDK.a(ssl_cli.o)
                                0x2ef (size before relaxing)
 .rodata.ssl_write_encrypted_pms.str1.1
                0x603824f7       0xa2 ./SysLib/MercuryPlat/release/AL36V200_SDK.a(ssl_cli.o)
 .text          0x60382599        0x0 ./SysLib/MercuryPlat/release/AL36V200_SDK.a(arc4.o)
 *fill*         0x60382599        0x1 
 .text.mbedtls_arc4_init
                0x6038259a        0xa ./SysLib/MercuryPlat/release/AL36V200_SDK.a(arc4.o)
                0x6038259a                mbedtls_arc4_init
 .text.mbedtls_arc4_free
                0x603825a4       0x14 ./SysLib/MercuryPlat/release/AL36V200_SDK.a(arc4.o)
                0x603825a4                mbedtls_arc4_free
 .text.mbedtls_arc4_setup
                0x603825b8       0x42 ./SysLib/MercuryPlat/release/AL36V200_SDK.a(arc4.o)
                0x603825b8                mbedtls_arc4_setup
 .text.mbedtls_arc4_crypt
                0x603825fa       0x46 ./SysLib/MercuryPlat/release/AL36V200_SDK.a(arc4.o)
                0x603825fa                mbedtls_arc4_crypt
 .text          0x60382640        0x0 ./SysLib/MercuryPlat/release/AL36V200_SDK.a(asn1write.o)
 .text.mbedtls_asn1_write_len
                0x60382640       0x68 ./SysLib/MercuryPlat/release/AL36V200_SDK.a(asn1write.o)
                0x60382640                mbedtls_asn1_write_len
 .text.mbedtls_asn1_write_tag
                0x603826a8       0x1c ./SysLib/MercuryPlat/release/AL36V200_SDK.a(asn1write.o)
                0x603826a8                mbedtls_asn1_write_tag
 .text.mbedtls_asn1_write_raw_buffer
                0x603826c4       0x2a ./SysLib/MercuryPlat/release/AL36V200_SDK.a(asn1write.o)
                0x603826c4                mbedtls_asn1_write_raw_buffer
 .text.mbedtls_asn1_write_mpi
                0x603826ee       0x80 ./SysLib/MercuryPlat/release/AL36V200_SDK.a(asn1write.o)
                0x603826ee                mbedtls_asn1_write_mpi
 .text.mbedtls_asn1_write_null
                0x6038276e       0x26 ./SysLib/MercuryPlat/release/AL36V200_SDK.a(asn1write.o)
                0x6038276e                mbedtls_asn1_write_null
 .text.mbedtls_asn1_write_oid
                0x60382794       0x36 ./SysLib/MercuryPlat/release/AL36V200_SDK.a(asn1write.o)
                0x60382794                mbedtls_asn1_write_oid
 .text.mbedtls_asn1_write_algorithm_identifier
                0x603827ca       0x54 ./SysLib/MercuryPlat/release/AL36V200_SDK.a(asn1write.o)
                0x603827ca                mbedtls_asn1_write_algorithm_identifier
 .text.mbedtls_asn1_write_bool
                0x6038281e       0x48 ./SysLib/MercuryPlat/release/AL36V200_SDK.a(asn1write.o)
                0x6038281e                mbedtls_asn1_write_bool
 .text.mbedtls_asn1_write_int
                0x60382866       0x66 ./SysLib/MercuryPlat/release/AL36V200_SDK.a(asn1write.o)
                0x60382866                mbedtls_asn1_write_int
 .text.mbedtls_asn1_write_printable_string
                0x603828cc       0x36 ./SysLib/MercuryPlat/release/AL36V200_SDK.a(asn1write.o)
                0x603828cc                mbedtls_asn1_write_printable_string
 .text.mbedtls_asn1_write_ia5_string
                0x60382902       0x36 ./SysLib/MercuryPlat/release/AL36V200_SDK.a(asn1write.o)
                0x60382902                mbedtls_asn1_write_ia5_string
 .text.mbedtls_asn1_write_bitstring
                0x60382938       0x70 ./SysLib/MercuryPlat/release/AL36V200_SDK.a(asn1write.o)
                0x60382938                mbedtls_asn1_write_bitstring
 .text.mbedtls_asn1_write_octet_string
                0x603829a8       0x36 ./SysLib/MercuryPlat/release/AL36V200_SDK.a(asn1write.o)
                0x603829a8                mbedtls_asn1_write_octet_string
 .text.mbedtls_asn1_store_named_data
                0x603829de       0x9e ./SysLib/MercuryPlat/release/AL36V200_SDK.a(asn1write.o)
                0x603829de                mbedtls_asn1_store_named_data
 .text          0x60382a7c        0x0 ./SysLib/MercuryPlat/release/AL36V200_SDK.a(camellia.o)
 .text.camellia_feistel
                0x60382a7c       0x88 ./SysLib/MercuryPlat/release/AL36V200_SDK.a(camellia.o)
 .text.mbedtls_camellia_init
                0x60382b04        0xa ./SysLib/MercuryPlat/release/AL36V200_SDK.a(camellia.o)
                0x60382b04                mbedtls_camellia_init
 .text.mbedtls_camellia_free
                0x60382b0e       0x14 ./SysLib/MercuryPlat/release/AL36V200_SDK.a(camellia.o)
                0x60382b0e                mbedtls_camellia_free
 *fill*         0x60382b22        0x2 
 .text.mbedtls_camellia_setkey_enc
                0x60382b24      0x43c ./SysLib/MercuryPlat/release/AL36V200_SDK.a(camellia.o)
                0x60382b24                mbedtls_camellia_setkey_enc
 .text.mbedtls_camellia_setkey_dec
                0x60382f60       0xa2 ./SysLib/MercuryPlat/release/AL36V200_SDK.a(camellia.o)
                0x60382f60                mbedtls_camellia_setkey_dec
 .text.mbedtls_camellia_crypt_ecb
                0x60383002      0x154 ./SysLib/MercuryPlat/release/AL36V200_SDK.a(camellia.o)
                0x60383002                mbedtls_camellia_crypt_ecb
 .text.mbedtls_camellia_crypt_cbc
                0x60383156       0xa4 ./SysLib/MercuryPlat/release/AL36V200_SDK.a(camellia.o)
                0x60383156                mbedtls_camellia_crypt_cbc
 .text.mbedtls_camellia_crypt_cfb128
                0x603831fa       0x6e ./SysLib/MercuryPlat/release/AL36V200_SDK.a(camellia.o)
                0x603831fa                mbedtls_camellia_crypt_cfb128
 .text.mbedtls_camellia_crypt_ctr
                0x60383268       0x5a ./SysLib/MercuryPlat/release/AL36V200_SDK.a(camellia.o)
                0x60383268                mbedtls_camellia_crypt_ctr
 .rodata.FSb    0x603832c2      0x100 ./SysLib/MercuryPlat/release/AL36V200_SDK.a(camellia.o)
 .rodata.FSb2   0x603833c2      0x100 ./SysLib/MercuryPlat/release/AL36V200_SDK.a(camellia.o)
 .rodata.FSb3   0x603834c2      0x100 ./SysLib/MercuryPlat/release/AL36V200_SDK.a(camellia.o)
 .rodata.FSb4   0x603835c2      0x100 ./SysLib/MercuryPlat/release/AL36V200_SDK.a(camellia.o)
 .rodata.SIGMA_CHARS
                0x603836c2       0x30 ./SysLib/MercuryPlat/release/AL36V200_SDK.a(camellia.o)
 .rodata.indexes
                0x603836f2       0xa0 ./SysLib/MercuryPlat/release/AL36V200_SDK.a(camellia.o)
 .rodata.shifts
                0x60383792       0x20 ./SysLib/MercuryPlat/release/AL36V200_SDK.a(camellia.o)
 .rodata.transposes
                0x603837b2       0x28 ./SysLib/MercuryPlat/release/AL36V200_SDK.a(camellia.o)
 .text          0x603837da        0x0 ./SysLib/MercuryPlat/release/AL36V200_SDK.a(ccm.o)
 .text.ccm_auth_crypt
                0x603837da      0x2f0 ./SysLib/MercuryPlat/release/AL36V200_SDK.a(ccm.o)
 .text.mbedtls_ccm_init
                0x60383aca        0x8 ./SysLib/MercuryPlat/release/AL36V200_SDK.a(ccm.o)
                0x60383aca                mbedtls_ccm_init
 .text.mbedtls_ccm_setkey
                0x60383ad2       0x46 ./SysLib/MercuryPlat/release/AL36V200_SDK.a(ccm.o)
                0x60383ad2                mbedtls_ccm_setkey
 .text.mbedtls_ccm_free
                0x60383b18       0x1a ./SysLib/MercuryPlat/release/AL36V200_SDK.a(ccm.o)
                0x60383b18                mbedtls_ccm_free
 .text.mbedtls_ccm_encrypt_and_tag
                0x60383b32       0x2c ./SysLib/MercuryPlat/release/AL36V200_SDK.a(ccm.o)
                0x60383b32                mbedtls_ccm_encrypt_and_tag
 .text.mbedtls_ccm_auth_decrypt
                0x60383b5e       0x62 ./SysLib/MercuryPlat/release/AL36V200_SDK.a(ccm.o)
                0x60383b5e                mbedtls_ccm_auth_decrypt
 .text          0x60383bc0      0x278 .//prebuilts/win32/gcc-arm-none-eabi/lib/gcc/arm-none-eabi/7.2.1\libgcc.a(_udivsi3.o)
                0x60383bc0                __aeabi_uidiv
                0x60383bc0                __udivsi3
                0x60383e1c                __aeabi_uidivmod
 .text          0x60383e38       0xa0 .//prebuilts/win32/gcc-arm-none-eabi/lib/gcc/arm-none-eabi/7.2.1\libgcc.a(_aeabi_ldivmod.o)
                0x60383e38                __aeabi_ldivmod
 .text          0x60383ed8       0x30 .//prebuilts/win32/gcc-arm-none-eabi/lib/gcc/arm-none-eabi/7.2.1\libgcc.a(_aeabi_uldivmod.o)
                0x60383ed8                __aeabi_uldivmod
 .text          0x60383f08      0x144 .//prebuilts/win32/gcc-arm-none-eabi/lib/gcc/arm-none-eabi/7.2.1\libgcc.a(_udivmoddi4.o)
                0x60383f08                __udivmoddi4
 .text          0x6038404c        0x0 ./SysLib/MercuryPlat/release/libsystem.a(MercuryBarScan.o)
 .text.Cam_Init
                0x6038404c       0x28 ./SysLib/MercuryPlat/release/libsystem.a(MercuryBarScan.o)
                0x6038404c                Cam_Init
 .text.Cam_DeInit
                0x60384074       0x24 ./SysLib/MercuryPlat/release/libsystem.a(MercuryBarScan.o)
                0x60384074                Cam_DeInit
 .text.Cam_StartScan
                0x60384098       0x1c ./SysLib/MercuryPlat/release/libsystem.a(MercuryBarScan.o)
                0x60384098                Cam_StartScan
 .text.Cam_AbortScan
                0x603840b4       0x1c ./SysLib/MercuryPlat/release/libsystem.a(MercuryBarScan.o)
                0x603840b4                Cam_AbortScan
 .text.Cam_Suspend
                0x603840d0        0xc ./SysLib/MercuryPlat/release/libsystem.a(MercuryBarScan.o)
                0x603840d0                Cam_Suspend
 .text.Cam_Resume
                0x603840dc        0xc ./SysLib/MercuryPlat/release/libsystem.a(MercuryBarScan.o)
                0x603840dc                Cam_Resume
 .text.Cam_Suspend_LP
                0x603840e8        0xc ./SysLib/MercuryPlat/release/libsystem.a(MercuryBarScan.o)
                0x603840e8                Cam_Suspend_LP
 .text.Cam_Resume_LP
                0x603840f4        0xc ./SysLib/MercuryPlat/release/libsystem.a(MercuryBarScan.o)
                0x603840f4                Cam_Resume_LP
 .text.Cam_FeatureConfig
                0x60384100        0xc ./SysLib/MercuryPlat/release/libsystem.a(MercuryBarScan.o)
                0x60384100                Cam_FeatureConfig
 .text.Cam_InitWithPara
                0x6038410c       0x24 ./SysLib/MercuryPlat/release/libsystem.a(MercuryBarScan.o)
                0x6038410c                Cam_InitWithPara
 .text.Cam_QR_Enc
                0x60384130       0x14 ./SysLib/MercuryPlat/release/libsystem.a(MercuryBarScan.o)
                0x60384130                Cam_QR_Enc
 .text.Cam_QR_SetEncLEVEL
                0x60384144        0xc ./SysLib/MercuryPlat/release/libsystem.a(MercuryBarScan.o)
                0x60384144                Cam_QR_SetEncLEVEL
 .text.Cam_QR_SetScanDensity
                0x60384150        0xc ./SysLib/MercuryPlat/release/libsystem.a(MercuryBarScan.o)
                0x60384150                Cam_QR_SetScanDensity
 .text.Cam_QR_GetScanDensity
                0x6038415c        0xc ./SysLib/MercuryPlat/release/libsystem.a(MercuryBarScan.o)
                0x6038415c                Cam_QR_GetScanDensity
 .text.Cam_CfgSymbolEnable
                0x60384168        0xc ./SysLib/MercuryPlat/release/libsystem.a(MercuryBarScan.o)
                0x60384168                Cam_CfgSymbolEnable
 .text.Cam_GetBarLibVersion
                0x60384174        0xc ./SysLib/MercuryPlat/release/libsystem.a(MercuryBarScan.o)
                0x60384174                Cam_GetBarLibVersion
 .text.Cam_SetPrescanLine
                0x60384180       0x18 ./SysLib/MercuryPlat/release/libsystem.a(MercuryBarScan.o)
                0x60384180                Cam_SetPrescanLine
 .text.CAM_EnablePreviewFunc
                0x60384198       0x20 ./SysLib/MercuryPlat/release/libsystem.a(MercuryBarScan.o)
                0x60384198                CAM_EnablePreviewFunc
 .text.CAM_PreviewLastDrawComplete
                0x603841b8        0xc ./SysLib/MercuryPlat/release/libsystem.a(MercuryBarScan.o)
                0x603841b8                CAM_PreviewLastDrawComplete
 .text.CAM_ReadSensorReg
                0x603841c4       0x14 ./SysLib/MercuryPlat/release/libsystem.a(MercuryBarScan.o)
                0x603841c4                CAM_ReadSensorReg
 .text.CAM_WriteSensorReg
                0x603841d8       0x14 ./SysLib/MercuryPlat/release/libsystem.a(MercuryBarScan.o)
                0x603841d8                CAM_WriteSensorReg
 .text.Cam_GetThreadPriority
                0x603841ec       0x24 ./SysLib/MercuryPlat/release/libsystem.a(MercuryBarScan.o)
                0x603841ec                Cam_GetThreadPriority
 .text.Cam_SetThreadPriority
                0x60384210       0x28 ./SysLib/MercuryPlat/release/libsystem.a(MercuryBarScan.o)
                0x60384210                Cam_SetThreadPriority
 .text.Cam_SetSensorDriver
                0x60384238       0x24 ./SysLib/MercuryPlat/release/libsystem.a(MercuryBarScan.o)
                0x60384238                Cam_SetSensorDriver
 .text.Cam_SetDecResultCallBack
                0x6038425c       0x10 ./SysLib/MercuryPlat/release/libsystem.a(MercuryBarScan.o)
                0x6038425c                Cam_SetDecResultCallBack
 .text.Cam_SetDecOneDTimeOut
                0x6038426c       0x10 ./SysLib/MercuryPlat/release/libsystem.a(MercuryBarScan.o)
                0x6038426c                Cam_SetDecOneDTimeOut
 .text.Cam_SetDecQRTimeOut
                0x6038427c       0x10 ./SysLib/MercuryPlat/release/libsystem.a(MercuryBarScan.o)
                0x6038427c                Cam_SetDecQRTimeOut
 .text.CAM_Write3rdAuthCode
                0x6038428c       0x28 ./SysLib/MercuryPlat/release/libsystem.a(MercuryBarScan.o)
                0x6038428c                CAM_Write3rdAuthCode
 .text.CAM_Read3rdAuthCode
                0x603842b4       0x24 ./SysLib/MercuryPlat/release/libsystem.a(MercuryBarScan.o)
                0x603842b4                CAM_Read3rdAuthCode
 .text.Cam_GetExtBarLibVersion
                0x603842d8       0x10 ./SysLib/MercuryPlat/release/libsystem.a(MercuryBarScan.o)
                0x603842d8                Cam_GetExtBarLibVersion
 .text          0x603842e8        0x0 ./SysLib/MercuryPlat/release/libsystem.a(MercuryCom.o)
 .text.COM_Callback
                0x603842e8       0xbc ./SysLib/MercuryPlat/release/libsystem.a(MercuryCom.o)
                0x603842e8                COM_Callback
 .text.COM_Init
                0x603843a4       0x34 ./SysLib/MercuryPlat/release/libsystem.a(MercuryCom.o)
                0x603843a4                COM_Init
 .text.COM_Deinit
                0x603843d8       0x30 ./SysLib/MercuryPlat/release/libsystem.a(MercuryCom.o)
                0x603843d8                COM_Deinit
 .text.COM_Config
                0x60384408       0x38 ./SysLib/MercuryPlat/release/libsystem.a(MercuryCom.o)
                0x60384408                COM_Config
 .text.COM_Read
                0x60384440       0x44 ./SysLib/MercuryPlat/release/libsystem.a(MercuryCom.o)
                0x60384440                COM_Read
 .text.COM_Write
                0x60384484       0x3c ./SysLib/MercuryPlat/release/libsystem.a(MercuryCom.o)
                0x60384484                COM_Write
 .text.MercuryFastbootStateSet
                0x603844c0        0xc ./SysLib/MercuryPlat/release/libsystem.a(MercuryCom.o)
                0x603844c0                MercuryFastbootStateSet
 .text.MercuryFastbootStateGet
                0x603844cc        0xc ./SysLib/MercuryPlat/release/libsystem.a(MercuryCom.o)
                0x603844cc                MercuryFastbootStateGet
 .text.MercuryUsbRead
                0x603844d8        0xc ./SysLib/MercuryPlat/release/libsystem.a(MercuryCom.o)
                0x603844d8                MercuryUsbRead
 .text.MercuryUsbWrite
                0x603844e4        0xc ./SysLib/MercuryPlat/release/libsystem.a(MercuryCom.o)
                0x603844e4                MercuryUsbWrite
 .text.VirComRead
                0x603844f0       0x14 ./SysLib/MercuryPlat/release/libsystem.a(MercuryCom.o)
                0x603844f0                VirComRead
 .text.VirComWrite
                0x60384504       0x18 ./SysLib/MercuryPlat/release/libsystem.a(MercuryCom.o)
                0x60384504                VirComWrite
 .text.Com_SetCb
                0x6038451c       0x4c ./SysLib/MercuryPlat/release/libsystem.a(MercuryCom.o)
                0x6038451c                Com_SetCb
 .text.VirCom_SetCb
                0x60384568       0x58 ./SysLib/MercuryPlat/release/libsystem.a(MercuryCom.o)
                0x60384568                VirCom_SetCb
 .text.COM_ReadAvail
                0x603845c0       0x10 ./SysLib/MercuryPlat/release/libsystem.a(MercuryCom.o)
                0x603845c0                COM_ReadAvail
 .text.COM_WriteAvail
                0x603845d0       0x10 ./SysLib/MercuryPlat/release/libsystem.a(MercuryCom.o)
                0x603845d0                COM_WriteAvail
 .text.COM_ReadFlush
                0x603845e0       0x10 ./SysLib/MercuryPlat/release/libsystem.a(MercuryCom.o)
                0x603845e0                COM_ReadFlush
 .text.COM_WriteFlush
                0x603845f0       0x10 ./SysLib/MercuryPlat/release/libsystem.a(MercuryCom.o)
                0x603845f0                COM_WriteFlush
 .text.COM_GetWriteFinish
                0x60384600       0x10 ./SysLib/MercuryPlat/release/libsystem.a(MercuryCom.o)
                0x60384600                COM_GetWriteFinish
 .text.COM_IomuxSet
                0x60384610       0x10 ./SysLib/MercuryPlat/release/libsystem.a(MercuryCom.o)
                0x60384610                COM_IomuxSet
 .text.VirComReadAvail
                0x60384620       0x10 ./SysLib/MercuryPlat/release/libsystem.a(MercuryCom.o)
                0x60384620                VirComReadAvail
 .text.VirComWriteAvail
                0x60384630       0x10 ./SysLib/MercuryPlat/release/libsystem.a(MercuryCom.o)
                0x60384630                VirComWriteAvail
 .text.VirComReadFlush
                0x60384640       0x10 ./SysLib/MercuryPlat/release/libsystem.a(MercuryCom.o)
                0x60384640                VirComReadFlush
 .text.VirComWriteFlush
                0x60384650       0x10 ./SysLib/MercuryPlat/release/libsystem.a(MercuryCom.o)
                0x60384650                VirComWriteFlush
 .text.VirComGetWriteFinish
                0x60384660       0x10 ./SysLib/MercuryPlat/release/libsystem.a(MercuryCom.o)
                0x60384660                VirComGetWriteFinish
 .text          0x60384670        0x0 ./SysLib/MercuryPlat/release/libsystem.a(MercurySec.o)
 .text.MercuryReadSecureFlag
                0x60384670        0xc ./SysLib/MercuryPlat/release/libsystem.a(MercurySec.o)
                0x60384670                MercuryReadSecureFlag
 .text.MercuryReadPubKey
                0x6038467c       0x20 ./SysLib/MercuryPlat/release/libsystem.a(MercurySec.o)
                0x6038467c                MercuryReadPubKey
 .text.MercuryCryptoVerifyWithPk
                0x6038469c       0x28 ./SysLib/MercuryPlat/release/libsystem.a(MercurySec.o)
                0x6038469c                MercuryCryptoVerifyWithPk
 .text.MercuryCryptoVerify
                0x603846c4       0x24 ./SysLib/MercuryPlat/release/libsystem.a(MercurySec.o)
                0x603846c4                MercuryCryptoVerify
 .text          0x603846e8        0x0 ./SysLib/MercuryPlat/release/libsystem.a(MercurySpi.o)
 .text.SPI_Init
                0x603846e8       0x34 ./SysLib/MercuryPlat/release/libsystem.a(MercurySpi.o)
                0x603846e8                SPI_Init
 .text.SPI_Deinit
                0x6038471c       0x24 ./SysLib/MercuryPlat/release/libsystem.a(MercurySpi.o)
                0x6038471c                SPI_Deinit
 .text.SPI_Config
                0x60384740       0x24 ./SysLib/MercuryPlat/release/libsystem.a(MercurySpi.o)
                0x60384740                SPI_Config
 .text.SPI_Read
                0x60384764       0x2c ./SysLib/MercuryPlat/release/libsystem.a(MercurySpi.o)
                0x60384764                SPI_Read
 .text.SPI_Write
                0x60384790       0x28 ./SysLib/MercuryPlat/release/libsystem.a(MercurySpi.o)
                0x60384790                SPI_Write
 .text.SPI_WriteRead
                0x603847b8       0x28 ./SysLib/MercuryPlat/release/libsystem.a(MercurySpi.o)
                0x603847b8                SPI_WriteRead
 .text.SPI_WriteReadEx
                0x603847e0       0x2c ./SysLib/MercuryPlat/release/libsystem.a(MercurySpi.o)
                0x603847e0                SPI_WriteReadEx
 .text.SPI_ReadEx
                0x6038480c       0x28 ./SysLib/MercuryPlat/release/libsystem.a(MercurySpi.o)
                0x6038480c                SPI_ReadEx
 .text.SPI_WriteEx
                0x60384834       0x28 ./SysLib/MercuryPlat/release/libsystem.a(MercurySpi.o)
                0x60384834                SPI_WriteEx
 .text.SPI_DmaStateSet
                0x6038485c       0x24 ./SysLib/MercuryPlat/release/libsystem.a(MercurySpi.o)
                0x6038485c                SPI_DmaStateSet
 .text.SPI_DmaStateGet
                0x60384880        0xc ./SysLib/MercuryPlat/release/libsystem.a(MercurySpi.o)
                0x60384880                SPI_DmaStateGet
 .text.SPI_CsCfg
                0x6038488c        0xc ./SysLib/MercuryPlat/release/libsystem.a(MercurySpi.o)
                0x6038488c                SPI_CsCfg
 .text.SPI_PinSpi1CsFuncSelect
                0x60384898       0x10 ./SysLib/MercuryPlat/release/libsystem.a(MercurySpi.o)
                0x60384898                SPI_PinSpi1CsFuncSelect
                0x603848c0                . = ALIGN (0x20)
 *fill*         0x603848a8       0x18 
                0x603848c0                _app_data_flash_start = .

.iplt           0x603848c0        0x0
 .iplt          0x603848c0        0x0 ./SysLib/MercuryPlat/release/libsystem.a(main_entry.o)

.igot.plt       0x603848c0        0x0
 .igot.plt      0x603848c0        0x0 ./SysLib/MercuryPlat/release/libsystem.a(main_entry.o)

.rel.dyn        0x603848c0        0x0
 .rel.iplt      0x603848c0        0x0 ./SysLib/MercuryPlat/release/libsystem.a(main_entry.o)
                0x80f00000                . = ORIGIN (ram)

.app_data       0x80f00000     0x7cc0 load address 0x603848c0
                0x80f00000                _app_data_ram_start = .
 *(.data .data.* .gnu.linkonce.d.*)
 .data          0x80f00000        0x0 ./SysLib/MercuryPlat/release/libsystem.a(main_entry.o)
 .data          0x80f00000        0x0 ./SysLib/MercuryPlat/release/libsystem.a(MercuryCSTD.o)
 .data          0x80f00000        0x0 .//build/MainApp/release/lib\libMainApp.a(test_main.o)
 .data.g_gprs_enable
                0x80f00000        0x4 .//build/MainApp/release/lib\libMainApp.a(test_main.o)
                0x80f00000                g_gprs_enable
 .data.g_wifi_enable
                0x80f00004        0x4 .//build/MainApp/release/lib\libMainApp.a(test_main.o)
                0x80f00004                g_wifi_enable
 .data          0x80f00008        0x0 .//build/MainApp/release/lib\libMainApp.a(keypad.o)
 .data.charge_bat_capacity_table2000
                0x80f00008       0x2c .//build/MainApp/release/lib\libMainApp.a(keypad.o)
                0x80f00008                charge_bat_capacity_table2000
 .data.discharge_bat_capacity_table2000
                0x80f00034       0x2c .//build/MainApp/release/lib\libMainApp.a(keypad.o)
                0x80f00034                discharge_bat_capacity_table2000
 .data          0x80f00060        0x0 .//build/MainApp/release/lib\libMainApp.a(transactions.o)
 .data          0x80f00060        0x0 .//build/MainApp/release/lib\libMainApp.a(wifi.o)
 .data          0x80f00060        0x0 .//build/MainApp/release/lib\libMainApp.a(app_system.o)
 .data          0x80f00060        0x0 .//build/MainApp/release/lib\libMainApp.a(push_msg_parse.o)
 .data          0x80f00060        0x0 .//build/MainApp/release/lib\libMainApp.a(app_config.o)
 .data.g_appInfo
                0x80f00060       0x3c .//build/MainApp/release/lib\libMainApp.a(app_config.o)
                0x80f00060                g_appInfo
 .data          0x80f0009c        0x0 .//build/MainApp/release/lib\libMainApp.a(connect_mqtt_soundbox_server.o)
 .data.is_soundbox_mqtt_close
                0x80f0009c        0x4 .//build/MainApp/release/lib\libMainApp.a(connect_mqtt_soundbox_server.o)
 .data          0x80f000a0        0x0 .//build/MainApp/release/lib\libMainApp.a(24_24_lcd.o)
 .data          0x80f000a0        0x0 .//build/MainApp/release/lib\libMainApp.a(led.o)
 .data          0x80f000a0        0x0 .//build/MainApp/release/lib\libMainApp.a(app_qrcode.o)
 .data          0x80f000a0        0x0 .//build/MainApp/release/lib\libMainApp.a(device.o)
 .data.g_mercury_version
                0x80f000a0        0x4 .//build/MainApp/release/lib\libMainApp.a(device.o)
                0x80f000a0                g_mercury_version
 .data          0x80f000a4        0x0 .//build/MainApp/release/lib\libMainApp.a(app_fota.o)
 .data.ota_thread_finished
                0x80f000a4        0x4 .//build/MainApp/release/lib\libMainApp.a(app_fota.o)
                0x80f000a4                ota_thread_finished
 .data          0x80f000a8        0x0 .//build/MainApp/release/lib\libMainApp.a(temp.o)
 .data.l_sAudioType
                0x80f000a8       0x20 .//build/MainApp/release/lib\libMainApp.a(temp.o)
                0x80f000a8                l_sAudioType
 .data          0x80f000c8        0x0 .//build/MainApp/release/lib\libMainApp.a(app_audio.o)
 .data          0x80f000c8        0x0 .//build/MainApp/release/lib\libMainApp.a(global.o)
 .data.apn_list
                0x80f000c8      0xf18 .//build/MainApp/release/lib\libMainApp.a(global.o)
                0x80f000c8                apn_list
 .data          0x80f00fe0        0x0 .//build/MainApp/release/lib\libMainApp.a(data_parser.o)
 .data          0x80f00fe0        0x0 .//build/MainApp/release/lib\libMainApp.a(app_power.o)
 .data          0x80f00fe0        0x0 .//prebuilts/win32/gcc-arm-none-eabi/lib/gcc/arm-none-eabi/7.2.1\libgcc.a(_divsi3.o)
 .data          0x80f00fe0        0x0 .//prebuilts/win32/gcc-arm-none-eabi/lib/gcc/arm-none-eabi/7.2.1\libgcc.a(_dvmd_tls.o)
 .data          0x80f00fe0        0x0 ./SysLib/MercuryPlat/release/libsystem.a(MercuryAudio.o)
 .data          0x80f00fe0        0x0 ./SysLib/MercuryPlat/release/libsystem.a(MercuryBattery.o)
 .data          0x80f00fe0        0x0 ./SysLib/MercuryPlat/release/libsystem.a(MercuryFile.o)
 .data          0x80f00fe0        0x0 ./SysLib/MercuryPlat/release/libsystem.a(MercuryFota.o)
 .data          0x80f00fe0        0x0 ./SysLib/MercuryPlat/release/libsystem.a(MercuryGpio.o)
 .data          0x80f00fe0        0x0 ./SysLib/MercuryPlat/release/libsystem.a(MercuryGraphics.o)
 .data          0x80f00fe0        0x0 ./SysLib/MercuryPlat/release/libsystem.a(MercuryKeypad.o)
 .data          0x80f00fe0        0x0 ./SysLib/MercuryPlat/release/libsystem.a(MercuryMem.o)
 .data          0x80f00fe0        0x0 ./SysLib/MercuryPlat/release/libsystem.a(MercuryNLed.o)
 .data          0x80f00fe0        0x0 ./SysLib/MercuryPlat/release/libsystem.a(MercuryNet.o)
 .data          0x80f00fe0        0x0 ./SysLib/MercuryPlat/release/libsystem.a(MercuryNv.o)
 .data          0x80f00fe0        0x0 ./SysLib/MercuryPlat/release/libsystem.a(MercuryPlat.o)
 .data          0x80f00fe0        0x0 ./SysLib/MercuryPlat/release/libsystem.a(MercuryPowerManager.o)
 .data          0x80f00fe0        0x0 ./SysLib/MercuryPlat/release/libsystem.a(MercurySyn.o)
 .data          0x80f00fe0        0x0 ./SysLib/MercuryPlat/release/libsystem.a(MercuryThread.o)
 .data          0x80f00fe0        0x0 ./SysLib/MercuryPlat/release/libsystem.a(MercuryTimer.o)
 .data          0x80f00fe0        0x0 ./SysLib/MercuryPlat/release/libsystem.a(MercuryTts.o)
 .data.s_initComplete
                0x80f00fe0        0x4 ./SysLib/MercuryPlat/release/libsystem.a(MercuryTts.o)
 .data          0x80f00fe4        0x0 ./SysLib/MercuryPlat/release/AL36V200_SDK.a(QYY_API_FOTA.o)
 .data.QYY_SDK_DATE
                0x80f00fe4        0x4 ./SysLib/MercuryPlat/release/AL36V200_SDK.a(QYY_API_FOTA.o)
                0x80f00fe4                QYY_SDK_DATE
 .data.QYY_SDK_TIME
                0x80f00fe8        0x4 ./SysLib/MercuryPlat/release/AL36V200_SDK.a(QYY_API_FOTA.o)
                0x80f00fe8                QYY_SDK_TIME
 .data.download_all_flag
                0x80f00fec        0x4 ./SysLib/MercuryPlat/release/AL36V200_SDK.a(QYY_API_FOTA.o)
                0x80f00fec                download_all_flag
 .data.qyy_ota_type
                0x80f00ff0        0x4 ./SysLib/MercuryPlat/release/AL36V200_SDK.a(QYY_API_FOTA.o)
                0x80f00ff0                qyy_ota_type
 .data          0x80f00ff4        0x0 ./SysLib/MercuryPlat/release/AL36V200_SDK.a(QYY_API_POWER.o)
 .data          0x80f00ff4        0x0 ./SysLib/MercuryPlat/release/AL36V200_SDK.a(QYY_API_BCS_DISPLAY.o)
 .data          0x80f00ff4        0x0 ./SysLib/MercuryPlat/release/AL36V200_SDK.a(qyy_to_sdk.o)
 .data          0x80f00ff4        0x0 ./SysLib/MercuryPlat/release/AL36V200_SDK.a(gpio.o)
 .data.comb_longpress.6801
                0x80f00ff4        0x8 ./SysLib/MercuryPlat/release/AL36V200_SDK.a(gpio.o)
 .data.comb_release.6802
                0x80f00ffc        0x8 ./SysLib/MercuryPlat/release/AL36V200_SDK.a(gpio.o)
 .data.event_wait_time.6799
                0x80f01004        0x4 ./SysLib/MercuryPlat/release/AL36V200_SDK.a(gpio.o)
 .data          0x80f01008        0x0 ./SysLib/MercuryPlat/release/AL36V200_SDK.a(keypad.o)
 .data          0x80f01008        0x0 ./SysLib/MercuryPlat/release/AL36V200_SDK.a(lcddrv.o)
 .data          0x80f01008        0x0 ./SysLib/MercuryPlat/release/AL36V200_SDK.a(bcs_lcddrv.o)
 .data          0x80f01008        0x0 ./SysLib/MercuryPlat/release/AL36V200_SDK.a(http.o)
 .data.qyy_http_use_range
                0x80f01008        0x4 ./SysLib/MercuryPlat/release/AL36V200_SDK.a(http.o)
                0x80f01008                qyy_http_use_range
 .data          0x80f0100c        0x0 ./SysLib/MercuryPlat/release/AL36V200_SDK.a(http_parser.o)
 .data          0x80f0100c        0x0 ./SysLib/MercuryPlat/release/AL36V200_SDK.a(http_post.o)
 .data          0x80f0100c        0x0 ./SysLib/MercuryPlat/release/AL36V200_SDK.a(cjson.o)
 .data          0x80f0100c        0x0 ./SysLib/MercuryPlat/release/AL36V200_SDK.a(utf2gb.o)
 .data          0x80f0100c        0x0 ./SysLib/MercuryPlat/release/AL36V200_SDK.a(gprs_tcp.o)
 .data.g_gprs_network_status_flag
                0x80f0100c        0x4 ./SysLib/MercuryPlat/release/AL36V200_SDK.a(gprs_tcp.o)
 .data.wifi_power_runonce_flag.7884
                0x80f01010        0x4 ./SysLib/MercuryPlat/release/AL36V200_SDK.a(gprs_tcp.o)
 .data          0x80f01014        0x0 ./SysLib/MercuryPlat/release/AL36V200_SDK.a(tcp.o)
 .data.WIFI_ENABLE_FLAG
                0x80f01014        0x4 ./SysLib/MercuryPlat/release/AL36V200_SDK.a(tcp.o)
                0x80f01014                WIFI_ENABLE_FLAG
 .data          0x80f01018        0x0 ./SysLib/MercuryPlat/release/AL36V200_SDK.a(wifi_tcp.o)
 .data.err_cnt.7683
                0x80f01018        0x4 ./SysLib/MercuryPlat/release/AL36V200_SDK.a(wifi_tcp.o)
 .data          0x80f0101c        0x0 ./SysLib/MercuryPlat/release/AL36V200_SDK.a(amoi_memory.o)
 .data          0x80f0101c        0x0 ./SysLib/MercuryPlat/release/AL36V200_SDK.a(base64.o)
 .data          0x80f0101c        0x0 ./SysLib/MercuryPlat/release/AL36V200_SDK.a(md5.o)
 .data          0x80f0101c        0x0 ./SysLib/MercuryPlat/release/AL36V200_SDK.a(sha256.o)
 .data          0x80f0101c        0x0 ./SysLib/MercuryPlat/release/AL36V200_SDK.a(tls.o)
 .data.server_prikey_index
                0x80f0101c        0x1 ./SysLib/MercuryPlat/release/AL36V200_SDK.a(tls.o)
                0x80f0101c                server_prikey_index
 .data          0x80f0101d        0x0 ./SysLib/MercuryPlat/release/AL36V200_SDK.a(x509_crt.o)
 .data          0x80f0101d        0x0 ./SysLib/MercuryPlat/release/AL36V200_SDK.a(QYY_API_AUDIO.o)
 .data          0x80f0101d        0x0 ./SysLib/MercuryPlat/release/AL36V200_SDK.a(QYY_API_LED.o)
 .data          0x80f0101d        0x0 ./SysLib/MercuryPlat/release/AL36V200_SDK.a(QYY_API_MQTT.o)
 .data.error_to_closesession
                0x80f0101d        0x1 ./SysLib/MercuryPlat/release/AL36V200_SDK.a(QYY_API_MQTT.o)
                0x80f0101d                error_to_closesession
 *fill*         0x80f0101e        0x2 
 .data.lost_cause
                0x80f01020       0x10 ./SysLib/MercuryPlat/release/AL36V200_SDK.a(QYY_API_MQTT.o)
                0x80f01020                lost_cause
 .data.no_receive_pingresp
                0x80f01030        0x1 ./SysLib/MercuryPlat/release/AL36V200_SDK.a(QYY_API_MQTT.o)
                0x80f01030                no_receive_pingresp
 .data.send_ping_error
                0x80f01031        0x1 ./SysLib/MercuryPlat/release/AL36V200_SDK.a(QYY_API_MQTT.o)
                0x80f01031                send_ping_error
 .data          0x80f01032        0x0 ./SysLib/MercuryPlat/release/AL36V200_SDK.a(QYY_API_SYS.o)
 .data.g_gpio_amp_enable
                0x80f01032        0x1 ./SysLib/MercuryPlat/release/AL36V200_SDK.a(QYY_API_SYS.o)
                0x80f01032                g_gpio_amp_enable
 *fill*         0x80f01033        0x1 
 .data.qyy_default_ps_notify
                0x80f01034        0xc ./SysLib/MercuryPlat/release/AL36V200_SDK.a(QYY_API_SYS.o)
                0x80f01034                qyy_default_ps_notify
 .data.qyy_log_level
                0x80f01040        0x4 ./SysLib/MercuryPlat/release/AL36V200_SDK.a(QYY_API_SYS.o)
                0x80f01040                qyy_log_level
 .data.qyy_ps_notify
                0x80f01044        0x4 ./SysLib/MercuryPlat/release/AL36V200_SDK.a(QYY_API_SYS.o)
                0x80f01044                qyy_ps_notify
 .data          0x80f01048        0x0 ./SysLib/MercuryPlat/release/AL36V200_SDK.a(QYY_API_TCP.o)
 .data          0x80f01048        0x0 ./SysLib/MercuryPlat/release/AL36V200_SDK.a(QYY_API_URLEN.o)
 .data.gbk_first_code
                0x80f01048        0x2 ./SysLib/MercuryPlat/release/AL36V200_SDK.a(QYY_API_URLEN.o)
                0x80f01048                gbk_first_code
 .data.gbk_last_code
                0x80f0104a        0x2 ./SysLib/MercuryPlat/release/AL36V200_SDK.a(QYY_API_URLEN.o)
                0x80f0104a                gbk_last_code
 .data.hexCharCodeArray
                0x80f0104c       0x10 ./SysLib/MercuryPlat/release/AL36V200_SDK.a(QYY_API_URLEN.o)
                0x80f0104c                hexCharCodeArray
 .data.unicode_buf_size
                0x80f0105c        0x2 ./SysLib/MercuryPlat/release/AL36V200_SDK.a(QYY_API_URLEN.o)
                0x80f0105c                unicode_buf_size
 .data.unicode_first_code
                0x80f0105e        0x2 ./SysLib/MercuryPlat/release/AL36V200_SDK.a(QYY_API_URLEN.o)
                0x80f0105e                unicode_first_code
 .data.unicode_last_code
                0x80f01060        0x2 ./SysLib/MercuryPlat/release/AL36V200_SDK.a(QYY_API_URLEN.o)
                0x80f01060                unicode_last_code
 .data          0x80f01062        0x0 ./SysLib/MercuryPlat/release/AL36V200_SDK.a(QYY_API_HMAC.o)
 .data          0x80f01062        0x0 ./SysLib/MercuryPlat/release/AL36V200_SDK.a(QYY_API_NTP.o)
 .data.s_cMonth
                0x80f01062       0x25 ./SysLib/MercuryPlat/release/AL36V200_SDK.a(QYY_API_NTP.o)
 .data.s_cMonthL
                0x80f01087       0x25 ./SysLib/MercuryPlat/release/AL36V200_SDK.a(QYY_API_NTP.o)
 .data.s_cMonthU
                0x80f010ac       0x25 ./SysLib/MercuryPlat/release/AL36V200_SDK.a(QYY_API_NTP.o)
 .data.s_cWeekDay
                0x80f010d1       0x16 ./SysLib/MercuryPlat/release/AL36V200_SDK.a(QYY_API_NTP.o)
 .data.s_cWeekDayL
                0x80f010e7       0x16 ./SysLib/MercuryPlat/release/AL36V200_SDK.a(QYY_API_NTP.o)
 .data.s_cWeekDayU
                0x80f010fd       0x16 ./SysLib/MercuryPlat/release/AL36V200_SDK.a(QYY_API_NTP.o)
 .data          0x80f01113        0x0 ./SysLib/MercuryPlat/release/AL36V200_SDK.a(QYY_API_DISPLAY.o)
 *fill*         0x80f01113        0x1 
 .data.battery_0
                0x80f01114       0x10 ./SysLib/MercuryPlat/release/AL36V200_SDK.a(QYY_API_DISPLAY.o)
                0x80f01114                battery_0
 .data.battery_1
                0x80f01124       0x10 ./SysLib/MercuryPlat/release/AL36V200_SDK.a(QYY_API_DISPLAY.o)
                0x80f01124                battery_1
 .data.battery_2
                0x80f01134       0x10 ./SysLib/MercuryPlat/release/AL36V200_SDK.a(QYY_API_DISPLAY.o)
                0x80f01134                battery_2
 .data.battery_3
                0x80f01144       0x10 ./SysLib/MercuryPlat/release/AL36V200_SDK.a(QYY_API_DISPLAY.o)
                0x80f01144                battery_3
 .data.battery_4
                0x80f01154       0x10 ./SysLib/MercuryPlat/release/AL36V200_SDK.a(QYY_API_DISPLAY.o)
                0x80f01154                battery_4
 .data.battery_c
                0x80f01164       0x10 ./SysLib/MercuryPlat/release/AL36V200_SDK.a(QYY_API_DISPLAY.o)
                0x80f01164                battery_c
 .data.rssi_4g_0
                0x80f01174       0x10 ./SysLib/MercuryPlat/release/AL36V200_SDK.a(QYY_API_DISPLAY.o)
                0x80f01174                rssi_4g_0
 .data.rssi_4g_1
                0x80f01184       0x10 ./SysLib/MercuryPlat/release/AL36V200_SDK.a(QYY_API_DISPLAY.o)
                0x80f01184                rssi_4g_1
 .data.rssi_4g_2
                0x80f01194       0x10 ./SysLib/MercuryPlat/release/AL36V200_SDK.a(QYY_API_DISPLAY.o)
                0x80f01194                rssi_4g_2
 .data.rssi_4g_3
                0x80f011a4       0x10 ./SysLib/MercuryPlat/release/AL36V200_SDK.a(QYY_API_DISPLAY.o)
                0x80f011a4                rssi_4g_3
 .data.rssi_4g_4
                0x80f011b4       0x10 ./SysLib/MercuryPlat/release/AL36V200_SDK.a(QYY_API_DISPLAY.o)
                0x80f011b4                rssi_4g_4
 .data.rssi_wifi_0
                0x80f011c4       0x10 ./SysLib/MercuryPlat/release/AL36V200_SDK.a(QYY_API_DISPLAY.o)
                0x80f011c4                rssi_wifi_0
 .data.rssi_wifi_1
                0x80f011d4       0x10 ./SysLib/MercuryPlat/release/AL36V200_SDK.a(QYY_API_DISPLAY.o)
                0x80f011d4                rssi_wifi_1
 .data.rssi_wifi_2
                0x80f011e4       0x10 ./SysLib/MercuryPlat/release/AL36V200_SDK.a(QYY_API_DISPLAY.o)
                0x80f011e4                rssi_wifi_2
 .data.rssi_wifi_3
                0x80f011f4       0x10 ./SysLib/MercuryPlat/release/AL36V200_SDK.a(QYY_API_DISPLAY.o)
                0x80f011f4                rssi_wifi_3
 .data          0x80f01204        0x0 ./SysLib/MercuryPlat/release/AL36V200_SDK.a(QYY_API_FS.o)
 .data          0x80f01204        0x0 ./SysLib/MercuryPlat/release/AL36V200_SDK.a(atthread.o)
 .data.sdk_charge_bat_capacity_table2000
                0x80f01204       0x2c ./SysLib/MercuryPlat/release/AL36V200_SDK.a(atthread.o)
                0x80f01204                sdk_charge_bat_capacity_table2000
 .data.sdk_discharge_bat_capacity_table2000
                0x80f01230       0x2c ./SysLib/MercuryPlat/release/AL36V200_SDK.a(atthread.o)
                0x80f01230                sdk_discharge_bat_capacity_table2000
 .data          0x80f0125c        0x0 ./SysLib/MercuryPlat/release/AL36V200_SDK.a(amp_ctl.o)
 .data          0x80f0125c        0x0 ./SysLib/MercuryPlat/release/AL36V200_SDK.a(device.o)
 .data          0x80f0125c        0x0 ./SysLib/MercuryPlat/release/AL36V200_SDK.a(se_wifi_reset.o)
 .data          0x80f0125c        0x0 ./SysLib/MercuryPlat/release/AL36V200_SDK.a(MQTTFormat.o)
 .data.MQTTPacket_names
                0x80f0125c       0x3c ./SysLib/MercuryPlat/release/AL36V200_SDK.a(MQTTFormat.o)
                0x80f0125c                MQTTPacket_names
 .data          0x80f01298        0x0 ./SysLib/MercuryPlat/release/AL36V200_SDK.a(MQTTClient.o)
 .data          0x80f01298        0x0 ./SysLib/MercuryPlat/release/AL36V200_SDK.a(MQTTFreeRTOS.o)
 .data          0x80f01298        0x0 ./SysLib/MercuryPlat/release/AL36V200_SDK.a(cp936.o)
 .data.code_table
                0x80f01298     0x69cc ./SysLib/MercuryPlat/release/AL36V200_SDK.a(cp936.o)
                0x80f01298                code_table
 .data          0x80f07c64        0x0 ./SysLib/MercuryPlat/release/AL36V200_SDK.a(asn1parse.o)
 .data          0x80f07c64        0x0 ./SysLib/MercuryPlat/release/AL36V200_SDK.a(bignum.o)
 .data          0x80f07c64        0x0 ./SysLib/MercuryPlat/release/AL36V200_SDK.a(ctr_drbg.o)
 .data          0x80f07c64        0x0 ./SysLib/MercuryPlat/release/AL36V200_SDK.a(entropy.o)
 .data          0x80f07c64        0x0 ./SysLib/MercuryPlat/release/AL36V200_SDK.a(error.o)
 .data          0x80f07c64        0x0 ./SysLib/MercuryPlat/release/AL36V200_SDK.a(md.o)
 .data          0x80f07c64        0x0 ./SysLib/MercuryPlat/release/AL36V200_SDK.a(md_wrap.o)
 .data          0x80f07c64        0x0 ./SysLib/MercuryPlat/release/AL36V200_SDK.a(net.o)
 .data          0x80f07c64        0x0 ./SysLib/MercuryPlat/release/AL36V200_SDK.a(oid.o)
 .data          0x80f07c64        0x0 ./SysLib/MercuryPlat/release/AL36V200_SDK.a(pem.o)
 .data          0x80f07c64        0x0 ./SysLib/MercuryPlat/release/AL36V200_SDK.a(pk.o)
 .data          0x80f07c64        0x0 ./SysLib/MercuryPlat/release/AL36V200_SDK.a(pk_wrap.o)
 .data          0x80f07c64        0x0 ./SysLib/MercuryPlat/release/AL36V200_SDK.a(pkparse.o)
 .data          0x80f07c64        0x0 ./SysLib/MercuryPlat/release/AL36V200_SDK.a(ripemd160.o)
 .data          0x80f07c64        0x0 ./SysLib/MercuryPlat/release/AL36V200_SDK.a(rsa.o)
 .data          0x80f07c64        0x0 ./SysLib/MercuryPlat/release/AL36V200_SDK.a(sha1.o)
 .data          0x80f07c64        0x0 ./SysLib/MercuryPlat/release/AL36V200_SDK.a(sha512.o)
 .data          0x80f07c64        0x0 ./SysLib/MercuryPlat/release/AL36V200_SDK.a(ssl_tls.o)
 .data.ssl_preset_default_hashes
                0x80f07c64       0x18 ./SysLib/MercuryPlat/release/AL36V200_SDK.a(ssl_tls.o)
 .data.ssl_preset_suiteb_ciphersuites
                0x80f07c7c        0xc ./SysLib/MercuryPlat/release/AL36V200_SDK.a(ssl_tls.o)
 .data.ssl_preset_suiteb_curves
                0x80f07c88        0x3 ./SysLib/MercuryPlat/release/AL36V200_SDK.a(ssl_tls.o)
 *fill*         0x80f07c8b        0x1 
 .data.ssl_preset_suiteb_hashes
                0x80f07c8c        0xc ./SysLib/MercuryPlat/release/AL36V200_SDK.a(ssl_tls.o)
 .data          0x80f07c98        0x0 ./SysLib/MercuryPlat/release/AL36V200_SDK.a(x509.o)
 .data          0x80f07c98        0x0 ./SysLib/MercuryPlat/release/AL36V200_SDK.a(MQTTConnectClient.o)
 .data          0x80f07c98        0x0 ./SysLib/MercuryPlat/release/AL36V200_SDK.a(MQTTDeserializePublish.o)
 .data          0x80f07c98        0x0 ./SysLib/MercuryPlat/release/AL36V200_SDK.a(MQTTPacket.o)
 .data          0x80f07c98        0x0 ./SysLib/MercuryPlat/release/AL36V200_SDK.a(MQTTSerializePublish.o)
 .data          0x80f07c98        0x0 ./SysLib/MercuryPlat/release/AL36V200_SDK.a(MQTTSubscribeClient.o)
 .data          0x80f07c98        0x0 ./SysLib/MercuryPlat/release/AL36V200_SDK.a(MQTTUnsubscribeClient.o)
 .data          0x80f07c98        0x0 ./SysLib/MercuryPlat/release/AL36V200_SDK.a(ac35_hardware.o)
 .data          0x80f07c98        0x0 ./SysLib/MercuryPlat/release/AL36V200_SDK.a(aes.o)
 .data          0x80f07c98        0x0 ./SysLib/MercuryPlat/release/AL36V200_SDK.a(cipher.o)
 .data          0x80f07c98        0x0 ./SysLib/MercuryPlat/release/AL36V200_SDK.a(cipher_wrap.o)
 .data          0x80f07c98        0x0 ./SysLib/MercuryPlat/release/AL36V200_SDK.a(debug.o)
 .data          0x80f07c98        0x0 ./SysLib/MercuryPlat/release/AL36V200_SDK.a(des.o)
 .data          0x80f07c98        0x0 ./SysLib/MercuryPlat/release/AL36V200_SDK.a(dhm.o)
 .data          0x80f07c98        0x0 ./SysLib/MercuryPlat/release/AL36V200_SDK.a(ecdh.o)
 .data          0x80f07c98        0x0 ./SysLib/MercuryPlat/release/AL36V200_SDK.a(ecdsa.o)
 .data          0x80f07c98        0x0 ./SysLib/MercuryPlat/release/AL36V200_SDK.a(ecp.o)
 .data          0x80f07c98        0x0 ./SysLib/MercuryPlat/release/AL36V200_SDK.a(ecp_curves.o)
 .data.Rp.6263  0x80f07c98        0x8 ./SysLib/MercuryPlat/release/AL36V200_SDK.a(ecp_curves.o)
 .data.Rp.6267  0x80f07ca0        0x8 ./SysLib/MercuryPlat/release/AL36V200_SDK.a(ecp_curves.o)
 .data.Rp.6271  0x80f07ca8        0x8 ./SysLib/MercuryPlat/release/AL36V200_SDK.a(ecp_curves.o)
 .data.one.6070
                0x80f07cb0        0x4 ./SysLib/MercuryPlat/release/AL36V200_SDK.a(ecp_curves.o)
 .data          0x80f07cb4        0x0 ./SysLib/MercuryPlat/release/AL36V200_SDK.a(gcm.o)
 .data          0x80f07cb4        0x0 ./SysLib/MercuryPlat/release/AL36V200_SDK.a(hmac_drbg.o)
 .data          0x80f07cb4        0x0 ./SysLib/MercuryPlat/release/AL36V200_SDK.a(pkcs5.o)
 .data          0x80f07cb4        0x0 ./SysLib/MercuryPlat/release/AL36V200_SDK.a(pkcs12.o)
 .data          0x80f07cb4        0x0 ./SysLib/MercuryPlat/release/AL36V200_SDK.a(ssl_ciphersuites.o)
 .data          0x80f07cb4        0x0 ./SysLib/MercuryPlat/release/AL36V200_SDK.a(ssl_cli.o)
 .data          0x80f07cb4        0x0 ./SysLib/MercuryPlat/release/AL36V200_SDK.a(arc4.o)
 .data          0x80f07cb4        0x0 ./SysLib/MercuryPlat/release/AL36V200_SDK.a(asn1write.o)
 .data          0x80f07cb4        0x0 ./SysLib/MercuryPlat/release/AL36V200_SDK.a(camellia.o)
 .data          0x80f07cb4        0x0 ./SysLib/MercuryPlat/release/AL36V200_SDK.a(ccm.o)
 .data          0x80f07cb4        0x0 .//prebuilts/win32/gcc-arm-none-eabi/lib/gcc/arm-none-eabi/7.2.1\libgcc.a(_udivsi3.o)
 .data          0x80f07cb4        0x0 .//prebuilts/win32/gcc-arm-none-eabi/lib/gcc/arm-none-eabi/7.2.1\libgcc.a(_aeabi_ldivmod.o)
 .data          0x80f07cb4        0x0 .//prebuilts/win32/gcc-arm-none-eabi/lib/gcc/arm-none-eabi/7.2.1\libgcc.a(_aeabi_uldivmod.o)
 .data          0x80f07cb4        0x0 .//prebuilts/win32/gcc-arm-none-eabi/lib/gcc/arm-none-eabi/7.2.1\libgcc.a(_udivmoddi4.o)
 .data          0x80f07cb4        0x0 ./SysLib/MercuryPlat/release/libsystem.a(MercuryBarScan.o)
 .data          0x80f07cb4        0x0 ./SysLib/MercuryPlat/release/libsystem.a(MercuryCom.o)
 .data          0x80f07cb4        0x0 ./SysLib/MercuryPlat/release/libsystem.a(MercurySec.o)
 .data          0x80f07cb4        0x0 ./SysLib/MercuryPlat/release/libsystem.a(MercurySpi.o)
                0x80f07cb4                _app_data_ram_end = .
                0x80f07cc0                . = ALIGN (0x20)
 *fill*         0x80f07cb4        0xc 
                0x6038c574                _app_data_flash_end = (_app_data_flash_start + (_app_data_ram_end - _app_data_ram_start))

.app_bss        0x80f07cc0    0x36c00 load address 0x6038c580
                0x80f07cc0                _app_bss_start = .
 *(.bss .bss.* COMMON .scommon .sbss .sbss.* .sbss2 .sbss2.* .gnu.linkonce.b.*)
 .bss           0x80f07cc0        0x0 ./SysLib/MercuryPlat/release/libsystem.a(main_entry.o)
 .bss.MercuryFunTable
                0x80f07cc0        0x4 ./SysLib/MercuryPlat/release/libsystem.a(main_entry.o)
                0x80f07cc0                MercuryFunTable
 .bss.pAudioApi
                0x80f07cc4        0x4 ./SysLib/MercuryPlat/release/libsystem.a(main_entry.o)
                0x80f07cc4                pAudioApi
 .bss.pBarScanApi
                0x80f07cc8        0x4 ./SysLib/MercuryPlat/release/libsystem.a(main_entry.o)
                0x80f07cc8                pBarScanApi
 .bss.pCStdFun  0x80f07ccc        0x4 ./SysLib/MercuryPlat/release/libsystem.a(main_entry.o)
                0x80f07ccc                pCStdFun
 .bss.pComInterfaceApi
                0x80f07cd0        0x4 ./SysLib/MercuryPlat/release/libsystem.a(main_entry.o)
                0x80f07cd0                pComInterfaceApi
 .bss.pFileInterfaceApi
                0x80f07cd4        0x4 ./SysLib/MercuryPlat/release/libsystem.a(main_entry.o)
                0x80f07cd4                pFileInterfaceApi
 .bss.pFotaApi  0x80f07cd8        0x4 ./SysLib/MercuryPlat/release/libsystem.a(main_entry.o)
                0x80f07cd8                pFotaApi
 .bss.pGpioApi  0x80f07cdc        0x4 ./SysLib/MercuryPlat/release/libsystem.a(main_entry.o)
                0x80f07cdc                pGpioApi
 .bss.pGraphics
                0x80f07ce0        0x4 ./SysLib/MercuryPlat/release/libsystem.a(main_entry.o)
                0x80f07ce0                pGraphics
 .bss.pHttpApi  0x80f07ce4        0x4 ./SysLib/MercuryPlat/release/libsystem.a(main_entry.o)
                0x80f07ce4                pHttpApi
 .bss.pI2cApi   0x80f07ce8        0x4 ./SysLib/MercuryPlat/release/libsystem.a(main_entry.o)
                0x80f07ce8                pI2cApi
 .bss.pKernelApi
                0x80f07cec        0x4 ./SysLib/MercuryPlat/release/libsystem.a(main_entry.o)
                0x80f07cec                pKernelApi
 .bss.pKpdInterfaceApi
                0x80f07cf0        0x4 ./SysLib/MercuryPlat/release/libsystem.a(main_entry.o)
                0x80f07cf0                pKpdInterfaceApi
 .bss.pMobile   0x80f07cf4        0x4 ./SysLib/MercuryPlat/release/libsystem.a(main_entry.o)
                0x80f07cf4                pMobile
 .bss.pMoreApi  0x80f07cf8        0x4 ./SysLib/MercuryPlat/release/libsystem.a(main_entry.o)
                0x80f07cf8                pMoreApi
 .bss.pMqttApi  0x80f07cfc        0x4 ./SysLib/MercuryPlat/release/libsystem.a(main_entry.o)
                0x80f07cfc                pMqttApi
 .bss.pNLedInterfaceApi
                0x80f07d00        0x4 ./SysLib/MercuryPlat/release/libsystem.a(main_entry.o)
                0x80f07d00                pNLedInterfaceApi
 .bss.pNetApi   0x80f07d04        0x4 ./SysLib/MercuryPlat/release/libsystem.a(main_entry.o)
                0x80f07d04                pNetApi
 .bss.pNtpApi   0x80f07d08        0x4 ./SysLib/MercuryPlat/release/libsystem.a(main_entry.o)
                0x80f07d08                pNtpApi
 .bss.pNvApi    0x80f07d0c        0x4 ./SysLib/MercuryPlat/release/libsystem.a(main_entry.o)
                0x80f07d0c                pNvApi
 .bss.pPbkApi   0x80f07d10        0x4 ./SysLib/MercuryPlat/release/libsystem.a(main_entry.o)
                0x80f07d10                pPbkApi
 .bss.pPowerManager
                0x80f07d14        0x4 ./SysLib/MercuryPlat/release/libsystem.a(main_entry.o)
                0x80f07d14                pPowerManager
 .bss.pPublic   0x80f07d18        0x4 ./SysLib/MercuryPlat/release/libsystem.a(main_entry.o)
                0x80f07d18                pPublic
 .bss.pPwmApi   0x80f07d1c        0x4 ./SysLib/MercuryPlat/release/libsystem.a(main_entry.o)
                0x80f07d1c                pPwmApi
 .bss.pSecureApi
                0x80f07d20        0x4 ./SysLib/MercuryPlat/release/libsystem.a(main_entry.o)
                0x80f07d20                pSecureApi
 .bss.pSimApi   0x80f07d24        0x4 ./SysLib/MercuryPlat/release/libsystem.a(main_entry.o)
                0x80f07d24                pSimApi
 .bss.pSmartCardApi
                0x80f07d28        0x4 ./SysLib/MercuryPlat/release/libsystem.a(main_entry.o)
                0x80f07d28                pSmartCardApi
 .bss.pTLSApi   0x80f07d2c        0x4 ./SysLib/MercuryPlat/release/libsystem.a(main_entry.o)
                0x80f07d2c                pTLSApi
 .bss.pTlsAesApi
                0x80f07d30        0x4 ./SysLib/MercuryPlat/release/libsystem.a(main_entry.o)
                0x80f07d30                pTlsAesApi
 .bss.pTlsDesApi
                0x80f07d34        0x4 ./SysLib/MercuryPlat/release/libsystem.a(main_entry.o)
                0x80f07d34                pTlsDesApi
 .bss.pTlsGcmApi
                0x80f07d38        0x4 ./SysLib/MercuryPlat/release/libsystem.a(main_entry.o)
                0x80f07d38                pTlsGcmApi
 .bss.pTlsRsaApi
                0x80f07d3c        0x4 ./SysLib/MercuryPlat/release/libsystem.a(main_entry.o)
                0x80f07d3c                pTlsRsaApi
 .bss.pTlsShaApi
                0x80f07d40        0x4 ./SysLib/MercuryPlat/release/libsystem.a(main_entry.o)
                0x80f07d40                pTlsShaApi
 .bss.pTtsApi   0x80f07d44        0x4 ./SysLib/MercuryPlat/release/libsystem.a(main_entry.o)
                0x80f07d44                pTtsApi
 .bss.pUSBApi   0x80f07d48        0x4 ./SysLib/MercuryPlat/release/libsystem.a(main_entry.o)
                0x80f07d48                pUSBApi
 COMMON         0x80f07d4c        0x4 ./SysLib/MercuryPlat/release/libsystem.a(main_entry.o)
                0x80f07d4c                pDataProcessAPI
 .bss           0x80f07d50        0x0 ./SysLib/MercuryPlat/release/libsystem.a(MercuryCSTD.o)
 .bss.MC_SNPRINTF
                0x80f07d50        0x4 ./SysLib/MercuryPlat/release/libsystem.a(MercuryCSTD.o)
                0x80f07d50                MC_SNPRINTF
 .bss.MC_SPRINTF
                0x80f07d54        0x4 ./SysLib/MercuryPlat/release/libsystem.a(MercuryCSTD.o)
                0x80f07d54                MC_SPRINTF
 .bss.MC_SSCANF
                0x80f07d58        0x4 ./SysLib/MercuryPlat/release/libsystem.a(MercuryCSTD.o)
                0x80f07d58                MC_SSCANF
 .bss           0x80f07d5c        0x0 .//build/MainApp/release/lib\libMainApp.a(test_main.o)
 .bss.g_status_fake_off
                0x80f07d5c        0x4 .//build/MainApp/release/lib\libMainApp.a(test_main.o)
                0x80f07d5c                g_status_fake_off
 .bss.g_wifi_config
                0x80f07d60        0x4 .//build/MainApp/release/lib\libMainApp.a(test_main.o)
                0x80f07d60                g_wifi_config
 .bss.l_reset_reason
                0x80f07d64        0x4 .//build/MainApp/release/lib\libMainApp.a(test_main.o)
                0x80f07d64                l_reset_reason
 COMMON         0x80f07d68       0x20 .//build/MainApp/release/lib\libMainApp.a(test_main.o)
                0x80f07d68                g_event_ota_update
                0x80f07d6c                g_pStatus
 .bss           0x80f07d88        0x0 .//build/MainApp/release/lib\libMainApp.a(keypad.o)
 .bss.before_tick.10156
                0x80f07d88        0x4 .//build/MainApp/release/lib\libMainApp.a(keypad.o)
 .bss.flag      0x80f07d8c        0x4 .//build/MainApp/release/lib\libMainApp.a(keypad.o)
 .bss.hd_replay_timer
                0x80f07d90        0x4 .//build/MainApp/release/lib\libMainApp.a(keypad.o)
                0x80f07d90                hd_replay_timer
 .bss.network_select_mode
                0x80f07d94        0x4 .//build/MainApp/release/lib\libMainApp.a(keypad.o)
                0x80f07d94                network_select_mode
 .bss.play_trans_mode
                0x80f07d98        0x4 .//build/MainApp/release/lib\libMainApp.a(keypad.o)
                0x80f07d98                play_trans_mode
 COMMON         0x80f07d9c        0x4 .//build/MainApp/release/lib\libMainApp.a(keypad.o)
                0x80f07d9c                keypad_thread_handle
 .bss           0x80f07da0        0x0 .//build/MainApp/release/lib\libMainApp.a(transactions.o)
 .bss           0x80f07da0        0x0 .//build/MainApp/release/lib\libMainApp.a(wifi.o)
 .bss.l_wifi_flag
                0x80f07da0        0x4 .//build/MainApp/release/lib\libMainApp.a(wifi.o)
                0x80f07da0                l_wifi_flag
 .bss           0x80f07da4        0x0 .//build/MainApp/release/lib\libMainApp.a(app_system.o)
 .bss           0x80f07da4        0x0 .//build/MainApp/release/lib\libMainApp.a(push_msg_parse.o)
 .bss.g_AudioBuff
                0x80f07da4      0x200 .//build/MainApp/release/lib\libMainApp.a(push_msg_parse.o)
                0x80f07da4                g_AudioBuff
 .bss.g_transRecord
                0x80f07fa4      0x8d8 .//build/MainApp/release/lib\libMainApp.a(push_msg_parse.o)
                0x80f07fa4                g_transRecord
 .bss.l_loopIndex
                0x80f0887c        0x4 .//build/MainApp/release/lib\libMainApp.a(push_msg_parse.o)
                0x80f0887c                l_loopIndex
 .bss.s_requestId
                0x80f08880       0x40 .//build/MainApp/release/lib\libMainApp.a(push_msg_parse.o)
                0x80f08880                s_requestId
 COMMON         0x80f088c0       0x50 .//build/MainApp/release/lib\libMainApp.a(push_msg_parse.o)
                0x80f088c0                g_serv_port
                0x80f088c4                g_pay_amount
                0x80f088c8                volume
                0x80f088cc                g_serv_ip
                0x80f0890c                g_msgid
 .bss           0x80f08910        0x0 .//build/MainApp/release/lib\libMainApp.a(app_config.o)
 .bss           0x80f08910        0x0 .//build/MainApp/release/lib\libMainApp.a(connect_mqtt_soundbox_server.o)
 .bss.handle_bcs_clear_timer
                0x80f08910        0x4 .//build/MainApp/release/lib\libMainApp.a(connect_mqtt_soundbox_server.o)
                0x80f08910                handle_bcs_clear_timer
 .bss.is_lpm    0x80f08914        0x4 .//build/MainApp/release/lib\libMainApp.a(connect_mqtt_soundbox_server.o)
                0x80f08914                is_lpm
 .bss.l_soundbox_mqtt_handle
                0x80f08918        0x4 .//build/MainApp/release/lib\libMainApp.a(connect_mqtt_soundbox_server.o)
                0x80f08918                l_soundbox_mqtt_handle
 .bss.soundbox_mqtt_lost
                0x80f0891c        0x4 .//build/MainApp/release/lib\libMainApp.a(connect_mqtt_soundbox_server.o)
                0x80f0891c                soundbox_mqtt_lost
 COMMON         0x80f08920      0x310 .//build/MainApp/release/lib\libMainApp.a(connect_mqtt_soundbox_server.o)
                0x80f08920                l_soundbox_mqtt_cfg
                0x80f08c2c                l_soundbox_event_network_success
 .bss           0x80f08c30        0x0 .//build/MainApp/release/lib\libMainApp.a(24_24_lcd.o)
 .bss           0x80f08c30        0x0 .//build/MainApp/release/lib\libMainApp.a(led.o)
 .bss           0x80f08c30        0x0 .//build/MainApp/release/lib\libMainApp.a(app_qrcode.o)
 .bss.g_qrcode_cfg
                0x80f08c30      0x104 .//build/MainApp/release/lib\libMainApp.a(app_qrcode.o)
 .bss.hd_bar_update
                0x80f08d34        0x4 .//build/MainApp/release/lib\libMainApp.a(app_qrcode.o)
                0x80f08d34                hd_bar_update
 .bss.hd_qr_update
                0x80f08d38        0x4 .//build/MainApp/release/lib\libMainApp.a(app_qrcode.o)
                0x80f08d38                hd_qr_update
 .bss.sDeviceName
                0x80f08d3c       0x40 .//build/MainApp/release/lib\libMainApp.a(app_qrcode.o)
                0x80f08d3c                sDeviceName
 .bss           0x80f08d7c        0x0 .//build/MainApp/release/lib\libMainApp.a(device.o)
 .bss           0x80f08d7c        0x0 .//build/MainApp/release/lib\libMainApp.a(app_fota.o)
 COMMON         0x80f08d7c      0x168 .//build/MainApp/release/lib\libMainApp.a(app_fota.o)
                0x80f08d7c                msg_id
                0x80f08d80                ota_info
 .bss           0x80f08ee4        0x0 .//build/MainApp/release/lib\libMainApp.a(temp.o)
 .bss           0x80f08ee4        0x0 .//build/MainApp/release/lib\libMainApp.a(app_audio.o)
 .bss.audio_update
                0x80f08ee4        0x4 .//build/MainApp/release/lib\libMainApp.a(app_audio.o)
                0x80f08ee4                audio_update
 .bss.pAudioUpdate
                0x80f08ee8        0x4 .//build/MainApp/release/lib\libMainApp.a(app_audio.o)
                0x80f08ee8                pAudioUpdate
 .bss           0x80f08eec        0x0 .//build/MainApp/release/lib\libMainApp.a(global.o)
 .bss           0x80f08eec        0x0 .//build/MainApp/release/lib\libMainApp.a(data_parser.o)
 COMMON         0x80f08eec      0x13c .//build/MainApp/release/lib\libMainApp.a(data_parser.o)
                0x80f08eec                mqtt_txn_details
                0x80f08f0c                ResponseDetails
                0x80f08f18                RegisterDevice
 .bss           0x80f09028        0x0 .//build/MainApp/release/lib\libMainApp.a(app_power.o)
 .bss.app_power_percent
                0x80f09028        0x4 .//build/MainApp/release/lib\libMainApp.a(app_power.o)
                0x80f09028                app_power_percent
 .bss.low_power_voice_warning
                0x80f0902c        0x4 .//build/MainApp/release/lib\libMainApp.a(app_power.o)
                0x80f0902c                low_power_voice_warning
 COMMON         0x80f09030        0x8 .//build/MainApp/release/lib\libMainApp.a(app_power.o)
                0x80f09030                g_event_batlow_warning
                0x80f09034                g_event_batlow_poweroff
 .bss           0x80f09038        0x0 .//prebuilts/win32/gcc-arm-none-eabi/lib/gcc/arm-none-eabi/7.2.1\libgcc.a(_divsi3.o)
 .bss           0x80f09038        0x0 .//prebuilts/win32/gcc-arm-none-eabi/lib/gcc/arm-none-eabi/7.2.1\libgcc.a(_dvmd_tls.o)
 .bss           0x80f09038        0x0 ./SysLib/MercuryPlat/release/libsystem.a(MercuryAudio.o)
 .bss           0x80f09038        0x0 ./SysLib/MercuryPlat/release/libsystem.a(MercuryBattery.o)
 .bss           0x80f09038        0x0 ./SysLib/MercuryPlat/release/libsystem.a(MercuryFile.o)
 .bss           0x80f09038        0x0 ./SysLib/MercuryPlat/release/libsystem.a(MercuryFota.o)
 .bss.fotaInitState
                0x80f09038        0x4 ./SysLib/MercuryPlat/release/libsystem.a(MercuryFota.o)
 .bss           0x80f0903c        0x0 ./SysLib/MercuryPlat/release/libsystem.a(MercuryGpio.o)
 .bss.s_GpioInitFlag
                0x80f0903c        0x4 ./SysLib/MercuryPlat/release/libsystem.a(MercuryGpio.o)
 .bss           0x80f09040        0x0 ./SysLib/MercuryPlat/release/libsystem.a(MercuryGraphics.o)
 .bss.DisplayInited
                0x80f09040        0x4 ./SysLib/MercuryPlat/release/libsystem.a(MercuryGraphics.o)
                0x80f09040                DisplayInited
 .bss           0x80f09044        0x0 ./SysLib/MercuryPlat/release/libsystem.a(MercuryKeypad.o)
 .bss           0x80f09044        0x0 ./SysLib/MercuryPlat/release/libsystem.a(MercuryMem.o)
 .bss           0x80f09044        0x0 ./SysLib/MercuryPlat/release/libsystem.a(MercuryNLed.o)
 .bss           0x80f09044        0x0 ./SysLib/MercuryPlat/release/libsystem.a(MercuryNet.o)
 .bss           0x80f09044        0x0 ./SysLib/MercuryPlat/release/libsystem.a(MercuryNv.o)
 .bss           0x80f09044        0x0 ./SysLib/MercuryPlat/release/libsystem.a(MercuryPlat.o)
 .bss.MercuryLastError
                0x80f09044        0x4 ./SysLib/MercuryPlat/release/libsystem.a(MercuryPlat.o)
 .bss           0x80f09048        0x0 ./SysLib/MercuryPlat/release/libsystem.a(MercuryPowerManager.o)
 .bss           0x80f09048        0x0 ./SysLib/MercuryPlat/release/libsystem.a(MercurySyn.o)
 .bss           0x80f09048        0x0 ./SysLib/MercuryPlat/release/libsystem.a(MercuryThread.o)
 .bss           0x80f09048        0x0 ./SysLib/MercuryPlat/release/libsystem.a(MercuryTimer.o)
 .bss           0x80f09048        0x0 ./SysLib/MercuryPlat/release/libsystem.a(MercuryTts.o)
 .bss           0x80f09048        0x0 ./SysLib/MercuryPlat/release/AL36V200_SDK.a(QYY_API_FOTA.o)
 .bss.dl_http_content_length
                0x80f09048        0x4 ./SysLib/MercuryPlat/release/AL36V200_SDK.a(QYY_API_FOTA.o)
                0x80f09048                dl_http_content_length
 .bss.download_size
                0x80f0904c        0x4 ./SysLib/MercuryPlat/release/AL36V200_SDK.a(QYY_API_FOTA.o)
 .bss.qyy_ota_dl_retry
                0x80f09050        0xc ./SysLib/MercuryPlat/release/AL36V200_SDK.a(QYY_API_FOTA.o)
                0x80f09050                qyy_ota_dl_retry
 .bss.total_size
                0x80f0905c        0x4 ./SysLib/MercuryPlat/release/AL36V200_SDK.a(QYY_API_FOTA.o)
 .bss           0x80f09060        0x0 ./SysLib/MercuryPlat/release/AL36V200_SDK.a(QYY_API_POWER.o)
 .bss.app_power_percent.6611
                0x80f09060        0x4 ./SysLib/MercuryPlat/release/AL36V200_SDK.a(QYY_API_POWER.o)
 .bss.l_charge_bat_capacity_table
                0x80f09064        0x4 ./SysLib/MercuryPlat/release/AL36V200_SDK.a(QYY_API_POWER.o)
 .bss.l_discharge_bat_capacity_table
                0x80f09068        0x4 ./SysLib/MercuryPlat/release/AL36V200_SDK.a(QYY_API_POWER.o)
 COMMON         0x80f0906c        0x4 ./SysLib/MercuryPlat/release/AL36V200_SDK.a(QYY_API_POWER.o)
                0x80f0906c                g_powerkey_event_handle
 .bss           0x80f09070        0x0 ./SysLib/MercuryPlat/release/AL36V200_SDK.a(QYY_API_BCS_DISPLAY.o)
 .bss           0x80f09070        0x0 ./SysLib/MercuryPlat/release/AL36V200_SDK.a(qyy_to_sdk.o)
 .bss           0x80f09070        0x0 ./SysLib/MercuryPlat/release/AL36V200_SDK.a(gpio.o)
 .bss.gkey      0x80f09070      0x108 ./SysLib/MercuryPlat/release/AL36V200_SDK.a(gpio.o)
                0x80f09070                gkey
 .bss.gpkcb     0x80f09178      0x18c ./SysLib/MercuryPlat/release/AL36V200_SDK.a(gpio.o)
                0x80f09178                gpkcb
 .bss.process_flag.6800
                0x80f09304        0x4 ./SysLib/MercuryPlat/release/AL36V200_SDK.a(gpio.o)
 COMMON         0x80f09308       0x38 ./SysLib/MercuryPlat/release/AL36V200_SDK.a(gpio.o)
                0x80f09308                g_event_key_interrupt
                0x80f0930c                gkcb
 .bss           0x80f09340        0x0 ./SysLib/MercuryPlat/release/AL36V200_SDK.a(keypad.o)
 .bss.former_key
                0x80f09340        0x4 ./SysLib/MercuryPlat/release/AL36V200_SDK.a(keypad.o)
                0x80f09340                former_key
 .bss.hd_keypad_dbclick
                0x80f09344        0x4 ./SysLib/MercuryPlat/release/AL36V200_SDK.a(keypad.o)
                0x80f09344                hd_keypad_dbclick
 .bss.hd_keypad_shortpress
                0x80f09348        0x4 ./SysLib/MercuryPlat/release/AL36V200_SDK.a(keypad.o)
                0x80f09348                hd_keypad_shortpress
 .bss.key_cbtimes
                0x80f0934c        0x4 ./SysLib/MercuryPlat/release/AL36V200_SDK.a(keypad.o)
                0x80f0934c                key_cbtimes
 .bss.key_presstimes
                0x80f09350        0x4 ./SysLib/MercuryPlat/release/AL36V200_SDK.a(keypad.o)
                0x80f09350                key_presstimes
 .bss.keypad_call_cb
                0x80f09354        0x4 ./SysLib/MercuryPlat/release/AL36V200_SDK.a(keypad.o)
                0x80f09354                keypad_call_cb
 COMMON         0x80f09358       0x38 ./SysLib/MercuryPlat/release/AL36V200_SDK.a(keypad.o)
                0x80f09358                g_keycb
                0x80f0938c                release_tick
 .bss           0x80f09390        0x0 ./SysLib/MercuryPlat/release/AL36V200_SDK.a(lcddrv.o)
 .bss.g_lcddrv_type
                0x80f09390        0x4 ./SysLib/MercuryPlat/release/AL36V200_SDK.a(lcddrv.o)
 .bss.l_scr_buff
                0x80f09394     0x4b00 ./SysLib/MercuryPlat/release/AL36V200_SDK.a(lcddrv.o)
                0x80f09394                l_scr_buff
 .bss.s_LcdFontBuf
                0x80f0de94      0x800 ./SysLib/MercuryPlat/release/AL36V200_SDK.a(lcddrv.o)
 .bss           0x80f0e694        0x0 ./SysLib/MercuryPlat/release/AL36V200_SDK.a(bcs_lcddrv.o)
 .bss.LCD_Buffer
                0x80f0e694        0xe ./SysLib/MercuryPlat/release/AL36V200_SDK.a(bcs_lcddrv.o)
 .bss.LCD_point
                0x80f0e6a2        0x1 ./SysLib/MercuryPlat/release/AL36V200_SDK.a(bcs_lcddrv.o)
 .bss           0x80f0e6a3        0x0 ./SysLib/MercuryPlat/release/AL36V200_SDK.a(http.o)
 *fill*         0x80f0e6a3        0x1 
 .bss.qyy_http_in_process
                0x80f0e6a4        0x4 ./SysLib/MercuryPlat/release/AL36V200_SDK.a(http.o)
                0x80f0e6a4                qyy_http_in_process
 .bss           0x80f0e6a8        0x0 ./SysLib/MercuryPlat/release/AL36V200_SDK.a(http_parser.o)
 .bss           0x80f0e6a8        0x0 ./SysLib/MercuryPlat/release/AL36V200_SDK.a(http_post.o)
 .bss.http_NEW_ins_critical
                0x80f0e6a8       0x14 ./SysLib/MercuryPlat/release/AL36V200_SDK.a(http_post.o)
 .bss           0x80f0e6bc        0x0 ./SysLib/MercuryPlat/release/AL36V200_SDK.a(cjson.o)
 .bss.ep        0x80f0e6bc        0x4 ./SysLib/MercuryPlat/release/AL36V200_SDK.a(cjson.o)
 .bss           0x80f0e6c0        0x0 ./SysLib/MercuryPlat/release/AL36V200_SDK.a(utf2gb.o)
 .bss.l_ucKey   0x80f0e6c0        0x2 ./SysLib/MercuryPlat/release/AL36V200_SDK.a(utf2gb.o)
                0x80f0e6c0                l_ucKey
 .bss           0x80f0e6c2        0x0 ./SysLib/MercuryPlat/release/AL36V200_SDK.a(gprs_tcp.o)
 *fill*         0x80f0e6c2        0x2 
 .bss.debug_sw_socket_recv_gprs
                0x80f0e6c4        0x4 ./SysLib/MercuryPlat/release/AL36V200_SDK.a(gprs_tcp.o)
                0x80f0e6c4                debug_sw_socket_recv_gprs
 .bss.g_gprs_attach_result
                0x80f0e6c8        0x8 ./SysLib/MercuryPlat/release/AL36V200_SDK.a(gprs_tcp.o)
                0x80f0e6c8                g_gprs_attach_result
 .bss.g_gprs_connect
                0x80f0e6d0       0x1c ./SysLib/MercuryPlat/release/AL36V200_SDK.a(gprs_tcp.o)
                0x80f0e6d0                g_gprs_connect
 .bss.g_gprs_dns
                0x80f0e6ec       0x24 ./SysLib/MercuryPlat/release/AL36V200_SDK.a(gprs_tcp.o)
                0x80f0e6ec                g_gprs_dns
 .bss.g_gprs_flightmode_event_handle
                0x80f0e710        0x4 ./SysLib/MercuryPlat/release/AL36V200_SDK.a(gprs_tcp.o)
                0x80f0e710                g_gprs_flightmode_event_handle
 .bss.g_gprs_pdp_result
                0x80f0e714        0x8 ./SysLib/MercuryPlat/release/AL36V200_SDK.a(gprs_tcp.o)
                0x80f0e714                g_gprs_pdp_result
 .bss.g_gprs_status_result
                0x80f0e71c        0x8 ./SysLib/MercuryPlat/release/AL36V200_SDK.a(gprs_tcp.o)
                0x80f0e71c                g_gprs_status_result
 .bss.gprs_dns_critical
                0x80f0e724       0x14 ./SysLib/MercuryPlat/release/AL36V200_SDK.a(gprs_tcp.o)
 .bss.recv_try_times.7825
                0x80f0e738        0x4 ./SysLib/MercuryPlat/release/AL36V200_SDK.a(gprs_tcp.o)
 .bss.socket_event_map_table
                0x80f0e73c       0xc0 ./SysLib/MercuryPlat/release/AL36V200_SDK.a(gprs_tcp.o)
 .bss           0x80f0e7fc        0x0 ./SysLib/MercuryPlat/release/AL36V200_SDK.a(tcp.o)
 .bss.gprs_init_thread_handle
                0x80f0e7fc        0x4 ./SysLib/MercuryPlat/release/AL36V200_SDK.a(tcp.o)
 .bss.network_gprs_init_flag
                0x80f0e800        0x4 ./SysLib/MercuryPlat/release/AL36V200_SDK.a(tcp.o)
 .bss.network_mode
                0x80f0e804        0x1 ./SysLib/MercuryPlat/release/AL36V200_SDK.a(tcp.o)
                0x80f0e804                network_mode
 *fill*         0x80f0e805        0x3 
 .bss.network_wifi_init_flag
                0x80f0e808        0x4 ./SysLib/MercuryPlat/release/AL36V200_SDK.a(tcp.o)
 .bss.wifi_init_thread_handle
                0x80f0e80c        0x4 ./SysLib/MercuryPlat/release/AL36V200_SDK.a(tcp.o)
 .bss           0x80f0e810        0x0 ./SysLib/MercuryPlat/release/AL36V200_SDK.a(wifi_tcp.o)
 .bss.START_AIRKISS_MANUAL_STOP
                0x80f0e810        0x4 ./SysLib/MercuryPlat/release/AL36V200_SDK.a(wifi_tcp.o)
 .bss.START_AIRKISS_MODE
                0x80f0e814        0x4 ./SysLib/MercuryPlat/release/AL36V200_SDK.a(wifi_tcp.o)
 .bss.START_AP_MANUAL_STOP
                0x80f0e818        0x4 ./SysLib/MercuryPlat/release/AL36V200_SDK.a(wifi_tcp.o)
 .bss.WIFI_LIST_ALL_AP_FLAG
                0x80f0e81c        0x4 ./SysLib/MercuryPlat/release/AL36V200_SDK.a(wifi_tcp.o)
 .bss.WIFI_SEND_OK_FLAG
                0x80f0e820        0x4 ./SysLib/MercuryPlat/release/AL36V200_SDK.a(wifi_tcp.o)
 .bss.ap_info.7998
                0x80f0e824        0x4 ./SysLib/MercuryPlat/release/AL36V200_SDK.a(wifi_tcp.o)
 .bss.ap_info_items.7999
                0x80f0e828        0x4 ./SysLib/MercuryPlat/release/AL36V200_SDK.a(wifi_tcp.o)
 .bss.g_ap_connected
                0x80f0e82c        0x4 ./SysLib/MercuryPlat/release/AL36V200_SDK.a(wifi_tcp.o)
 .bss.g_ap_info
                0x80f0e830      0xb80 ./SysLib/MercuryPlat/release/AL36V200_SDK.a(wifi_tcp.o)
 .bss.g_ap_items
                0x80f0f3b0        0x4 ./SysLib/MercuryPlat/release/AL36V200_SDK.a(wifi_tcp.o)
 .bss.g_bEspVersionFlag
                0x80f0f3b4        0x1 ./SysLib/MercuryPlat/release/AL36V200_SDK.a(wifi_tcp.o)
                0x80f0f3b4                g_bEspVersionFlag
 *fill*         0x80f0f3b5        0x3 
 .bss.g_connected_wifi_rssi
                0x80f0f3b8        0x4 ./SysLib/MercuryPlat/release/AL36V200_SDK.a(wifi_tcp.o)
 .bss.g_ntptime
                0x80f0f3bc       0x20 ./SysLib/MercuryPlat/release/AL36V200_SDK.a(wifi_tcp.o)
 .bss.g_ping_time
                0x80f0f3dc        0x4 ./SysLib/MercuryPlat/release/AL36V200_SDK.a(wifi_tcp.o)
 .bss.g_sta_gate
                0x80f0f3e0       0x20 ./SysLib/MercuryPlat/release/AL36V200_SDK.a(wifi_tcp.o)
 .bss.g_sta_hostname
                0x80f0f400       0x20 ./SysLib/MercuryPlat/release/AL36V200_SDK.a(wifi_tcp.o)
 .bss.g_sta_ip  0x80f0f420       0x20 ./SysLib/MercuryPlat/release/AL36V200_SDK.a(wifi_tcp.o)
 .bss.g_sta_mac
                0x80f0f440       0x20 ./SysLib/MercuryPlat/release/AL36V200_SDK.a(wifi_tcp.o)
 .bss.g_sta_rssi
                0x80f0f460        0x4 ./SysLib/MercuryPlat/release/AL36V200_SDK.a(wifi_tcp.o)
 .bss.g_wifi_firmware_version
                0x80f0f464      0x200 ./SysLib/MercuryPlat/release/AL36V200_SDK.a(wifi_tcp.o)
 .bss.g_wifi_init_OK_flag
                0x80f0f664        0x4 ./SysLib/MercuryPlat/release/AL36V200_SDK.a(wifi_tcp.o)
                0x80f0f664                g_wifi_init_OK_flag
 .bss.g_wifi_power_mode_flag
                0x80f0f668        0x4 ./SysLib/MercuryPlat/release/AL36V200_SDK.a(wifi_tcp.o)
 .bss.g_wifi_rssi
                0x80f0f66c        0x4 ./SysLib/MercuryPlat/release/AL36V200_SDK.a(wifi_tcp.o)
 .bss.g_wifi_start_ap
                0x80f0f670        0x8 ./SysLib/MercuryPlat/release/AL36V200_SDK.a(wifi_tcp.o)
                0x80f0f670                g_wifi_start_ap
 .bss.g_wifi_tcp_send
                0x80f0f678        0x8 ./SysLib/MercuryPlat/release/AL36V200_SDK.a(wifi_tcp.o)
                0x80f0f678                g_wifi_tcp_send
 .bss.handle.8148
                0x80f0f680        0x4 ./SysLib/MercuryPlat/release/AL36V200_SDK.a(wifi_tcp.o)
 .bss.wifi_AT_NEW_instruction_critical
                0x80f0f684       0x14 ./SysLib/MercuryPlat/release/AL36V200_SDK.a(wifi_tcp.o)
 .bss.wifi_AT_success_flag
                0x80f0f698        0x4 ./SysLib/MercuryPlat/release/AL36V200_SDK.a(wifi_tcp.o)
 .bss.wifi_DNS_critical
                0x80f0f69c       0x14 ./SysLib/MercuryPlat/release/AL36V200_SDK.a(wifi_tcp.o)
 .bss.wifi_dns_result
                0x80f0f6b0       0x21 ./SysLib/MercuryPlat/release/AL36V200_SDK.a(wifi_tcp.o)
 .bss.wifi_info
                0x80f0f6d1       0x40 ./SysLib/MercuryPlat/release/AL36V200_SDK.a(wifi_tcp.o)
 *fill*         0x80f0f711        0x3 
 .bss.wifi_reagain_thread_handle
                0x80f0f714        0x4 ./SysLib/MercuryPlat/release/AL36V200_SDK.a(wifi_tcp.o)
                0x80f0f714                wifi_reagain_thread_handle
 .bss.wifi_response_complete_event_handle
                0x80f0f718        0x4 ./SysLib/MercuryPlat/release/AL36V200_SDK.a(wifi_tcp.o)
 .bss.wifi_tcp_buffer
                0x80f0f71c    0x18030 ./SysLib/MercuryPlat/release/AL36V200_SDK.a(wifi_tcp.o)
 .bss.wifi_tcp_buffer_critical
                0x80f2774c       0x14 ./SysLib/MercuryPlat/release/AL36V200_SDK.a(wifi_tcp.o)
 .bss.wifi_uart_response_thread_handle
                0x80f27760        0x4 ./SysLib/MercuryPlat/release/AL36V200_SDK.a(wifi_tcp.o)
                0x80f27760                wifi_uart_response_thread_handle
 COMMON         0x80f27764       0x38 ./SysLib/MercuryPlat/release/AL36V200_SDK.a(wifi_tcp.o)
                0x80f27764                g_wifi_close
                0x80f27780                g_wifi_connect
 .bss           0x80f2779c        0x0 ./SysLib/MercuryPlat/release/AL36V200_SDK.a(amoi_memory.o)
 .bss           0x80f2779c        0x0 ./SysLib/MercuryPlat/release/AL36V200_SDK.a(base64.o)
 .bss           0x80f2779c        0x0 ./SysLib/MercuryPlat/release/AL36V200_SDK.a(md5.o)
 .bss           0x80f2779c        0x0 ./SysLib/MercuryPlat/release/AL36V200_SDK.a(sha256.o)
 .bss           0x80f2779c        0x0 ./SysLib/MercuryPlat/release/AL36V200_SDK.a(tls.o)
 .bss.client_own_cert_len
                0x80f2779c        0x4 ./SysLib/MercuryPlat/release/AL36V200_SDK.a(tls.o)
 .bss.client_own_cert_pem
                0x80f277a0        0x4 ./SysLib/MercuryPlat/release/AL36V200_SDK.a(tls.o)
 .bss.q_tls_num
                0x80f277a4        0x4 ./SysLib/MercuryPlat/release/AL36V200_SDK.a(tls.o)
                0x80f277a4                q_tls_num
 .bss.server_prikey_buf
                0x80f277a8        0x4 ./SysLib/MercuryPlat/release/AL36V200_SDK.a(tls.o)
 .bss.server_prikey_len
                0x80f277ac        0x4 ./SysLib/MercuryPlat/release/AL36V200_SDK.a(tls.o)
 .bss.server_root_cert_pem
                0x80f277b0        0x4 ./SysLib/MercuryPlat/release/AL36V200_SDK.a(tls.o)
 .bss.server_root_cert_pen_len
                0x80f277b4        0x4 ./SysLib/MercuryPlat/release/AL36V200_SDK.a(tls.o)
 .bss.tls_close_critical_section
                0x80f277b8       0x14 ./SysLib/MercuryPlat/release/AL36V200_SDK.a(tls.o)
                0x80f277b8                tls_close_critical_section
 .bss.tls_connect_critical_section
                0x80f277cc       0x14 ./SysLib/MercuryPlat/release/AL36V200_SDK.a(tls.o)
                0x80f277cc                tls_connect_critical_section
 COMMON         0x80f277e0     0x2080 ./SysLib/MercuryPlat/release/AL36V200_SDK.a(tls.o)
                0x80f277e0                q_TLS
 .bss           0x80f29860        0x0 ./SysLib/MercuryPlat/release/AL36V200_SDK.a(x509_crt.o)
 .bss           0x80f29860        0x0 ./SysLib/MercuryPlat/release/AL36V200_SDK.a(QYY_API_AUDIO.o)
 .bss.audio_buff
                0x80f29860        0x4 ./SysLib/MercuryPlat/release/AL36V200_SDK.a(QYY_API_AUDIO.o)
 .bss.audio_file_lock
                0x80f29864       0x14 ./SysLib/MercuryPlat/release/AL36V200_SDK.a(QYY_API_AUDIO.o)
 .bss.audio_file_queue
                0x80f29878     0x2588 ./SysLib/MercuryPlat/release/AL36V200_SDK.a(QYY_API_AUDIO.o)
 .bss.audio_list_lock
                0x80f2be00       0x14 ./SysLib/MercuryPlat/release/AL36V200_SDK.a(QYY_API_AUDIO.o)
 .bss.audio_playing_flag
                0x80f2be14        0x1 ./SysLib/MercuryPlat/release/AL36V200_SDK.a(QYY_API_AUDIO.o)
                0x80f2be14                audio_playing_flag
 .bss.audio_playing_type
                0x80f2be15        0x1 ./SysLib/MercuryPlat/release/AL36V200_SDK.a(QYY_API_AUDIO.o)
                0x80f2be15                audio_playing_type
 *fill*         0x80f2be16        0x2 
 .bss.audio_queue
                0x80f2be18     0x4658 ./SysLib/MercuryPlat/release/AL36V200_SDK.a(QYY_API_AUDIO.o)
 COMMON         0x80f30470       0x10 ./SysLib/MercuryPlat/release/AL36V200_SDK.a(QYY_API_AUDIO.o)
                0x80f30470                g_event_tts_complete
                0x80f30474                g_event_audio_complete
                0x80f30478                g_event_check_audio_queue
                0x80f3047c                g_event_check_audiofile_queue
 .bss           0x80f30480        0x0 ./SysLib/MercuryPlat/release/AL36V200_SDK.a(QYY_API_LED.o)
 .bss.blink_thread_handle
                0x80f30480        0x4 ./SysLib/MercuryPlat/release/AL36V200_SDK.a(QYY_API_LED.o)
                0x80f30480                blink_thread_handle
 .bss.l_BrightTime
                0x80f30484        0x4 ./SysLib/MercuryPlat/release/AL36V200_SDK.a(QYY_API_LED.o)
                0x80f30484                l_BrightTime
 .bss.l_DestroyTime
                0x80f30488        0x4 ./SysLib/MercuryPlat/release/AL36V200_SDK.a(QYY_API_LED.o)
                0x80f30488                l_DestroyTime
 .bss.l_LedNum  0x80f3048c        0x1 ./SysLib/MercuryPlat/release/AL36V200_SDK.a(QYY_API_LED.o)
                0x80f3048c                l_LedNum
 .bss           0x80f3048d        0x0 ./SysLib/MercuryPlat/release/AL36V200_SDK.a(QYY_API_MQTT.o)
 *fill*         0x80f3048d        0x3 
 .bss.Lost_Call_Back
                0x80f30490        0x4 ./SysLib/MercuryPlat/release/AL36V200_SDK.a(QYY_API_MQTT.o)
                0x80f30490                Lost_Call_Back
 .bss.l_recvbuf
                0x80f30494     0x1400 ./SysLib/MercuryPlat/release/AL36V200_SDK.a(QYY_API_MQTT.o)
 .bss.mqtt_num  0x80f31894        0x1 ./SysLib/MercuryPlat/release/AL36V200_SDK.a(QYY_API_MQTT.o)
 *fill*         0x80f31895        0x3 
 .bss.mqttclient_handle
                0x80f31898     0xa210 ./SysLib/MercuryPlat/release/AL36V200_SDK.a(QYY_API_MQTT.o)
 .bss.tcp_disconnected
                0x80f3baa8        0x1 ./SysLib/MercuryPlat/release/AL36V200_SDK.a(QYY_API_MQTT.o)
                0x80f3baa8                tcp_disconnected
 .bss           0x80f3baa9        0x0 ./SysLib/MercuryPlat/release/AL36V200_SDK.a(QYY_API_SYS.o)
 *fill*         0x80f3baa9        0x3 
 .bss.AmrCompleteCallBack
                0x80f3baac        0x4 ./SysLib/MercuryPlat/release/AL36V200_SDK.a(QYY_API_SYS.o)
 .bss.ChargerCallBack
                0x80f3bab0        0x4 ./SysLib/MercuryPlat/release/AL36V200_SDK.a(QYY_API_SYS.o)
 .bss.DtmfCompleteCallBack
                0x80f3bab4        0x4 ./SysLib/MercuryPlat/release/AL36V200_SDK.a(QYY_API_SYS.o)
 .bss.Mp3CompleteCallBack
                0x80f3bab8        0x4 ./SysLib/MercuryPlat/release/AL36V200_SDK.a(QYY_API_SYS.o)
 .bss.PcmCompleteCallBack
                0x80f3babc        0x4 ./SysLib/MercuryPlat/release/AL36V200_SDK.a(QYY_API_SYS.o)
 .bss.PowerKeyShortPressCallBack
                0x80f3bac0        0x4 ./SysLib/MercuryPlat/release/AL36V200_SDK.a(QYY_API_SYS.o)
 .bss.PowerOffCallBack
                0x80f3bac4        0x4 ./SysLib/MercuryPlat/release/AL36V200_SDK.a(QYY_API_SYS.o)
 .bss.ScanCompleteCallBack
                0x80f3bac8        0x4 ./SysLib/MercuryPlat/release/AL36V200_SDK.a(QYY_API_SYS.o)
 .bss.TtsCompleteCallBack
                0x80f3bacc        0x4 ./SysLib/MercuryPlat/release/AL36V200_SDK.a(QYY_API_SYS.o)
 .bss.TtsCompleteCallBackEventProcessing
                0x80f3bad0        0x4 ./SysLib/MercuryPlat/release/AL36V200_SDK.a(QYY_API_SYS.o)
 .bss.WavCompleteCallBack
                0x80f3bad4        0x4 ./SysLib/MercuryPlat/release/AL36V200_SDK.a(QYY_API_SYS.o)
 .bss.audioCompleteCallBack
                0x80f3bad8        0x4 ./SysLib/MercuryPlat/release/AL36V200_SDK.a(QYY_API_SYS.o)
 .bss.g_qyy_mercury_version
                0x80f3badc        0x4 ./SysLib/MercuryPlat/release/AL36V200_SDK.a(QYY_API_SYS.o)
                0x80f3badc                g_qyy_mercury_version
 .bss.mercury_debug
                0x80f3bae0      0x800 ./SysLib/MercuryPlat/release/AL36V200_SDK.a(QYY_API_SYS.o)
 .bss.telCallBack
                0x80f3c2e0        0x4 ./SysLib/MercuryPlat/release/AL36V200_SDK.a(QYY_API_SYS.o)
 .bss.wifiScanCallBack
                0x80f3c2e4        0x4 ./SysLib/MercuryPlat/release/AL36V200_SDK.a(QYY_API_SYS.o)
 .bss           0x80f3c2e8        0x0 ./SysLib/MercuryPlat/release/AL36V200_SDK.a(QYY_API_TCP.o)
 .bss           0x80f3c2e8        0x0 ./SysLib/MercuryPlat/release/AL36V200_SDK.a(QYY_API_URLEN.o)
 .bss           0x80f3c2e8        0x0 ./SysLib/MercuryPlat/release/AL36V200_SDK.a(QYY_API_HMAC.o)
 .bss           0x80f3c2e8        0x0 ./SysLib/MercuryPlat/release/AL36V200_SDK.a(QYY_API_NTP.o)
 .bss           0x80f3c2e8        0x0 ./SysLib/MercuryPlat/release/AL36V200_SDK.a(QYY_API_DISPLAY.o)
 .bss.g_lcd_color
                0x80f3c2e8        0x1 ./SysLib/MercuryPlat/release/AL36V200_SDK.a(QYY_API_DISPLAY.o)
                0x80f3c2e8                g_lcd_color
 *fill*         0x80f3c2e9        0x3 
 .bss.s_extFontLibHandler
                0x80f3c2ec        0x4 ./SysLib/MercuryPlat/release/AL36V200_SDK.a(QYY_API_DISPLAY.o)
 COMMON         0x80f3c2f0       0x30 ./SysLib/MercuryPlat/release/AL36V200_SDK.a(QYY_API_DISPLAY.o)
                0x80f3c2f0                g_status_bar
                0x80f3c2fc                g_disp_params
                0x80f3c318                g_dev_params
 .bss           0x80f3c320        0x0 ./SysLib/MercuryPlat/release/AL36V200_SDK.a(QYY_API_FS.o)
 .bss           0x80f3c320        0x0 ./SysLib/MercuryPlat/release/AL36V200_SDK.a(atthread.o)
 .bss           0x80f3c320        0x0 ./SysLib/MercuryPlat/release/AL36V200_SDK.a(amp_ctl.o)
 .bss           0x80f3c320        0x0 ./SysLib/MercuryPlat/release/AL36V200_SDK.a(device.o)
 .bss           0x80f3c320        0x0 ./SysLib/MercuryPlat/release/AL36V200_SDK.a(se_wifi_reset.o)
 .bss           0x80f3c320        0x0 ./SysLib/MercuryPlat/release/AL36V200_SDK.a(MQTTFormat.o)
 .bss           0x80f3c320        0x0 ./SysLib/MercuryPlat/release/AL36V200_SDK.a(MQTTClient.o)
 .bss.alive_new_tick
                0x80f3c320        0x4 ./SysLib/MercuryPlat/release/AL36V200_SDK.a(MQTTClient.o)
 .bss.alive_old_tick
                0x80f3c324        0x4 ./SysLib/MercuryPlat/release/AL36V200_SDK.a(MQTTClient.o)
 .bss           0x80f3c328        0x0 ./SysLib/MercuryPlat/release/AL36V200_SDK.a(MQTTFreeRTOS.o)
 .bss.s_mqtt_critical_section
                0x80f3c328       0x14 ./SysLib/MercuryPlat/release/AL36V200_SDK.a(MQTTFreeRTOS.o)
                0x80f3c328                s_mqtt_critical_section
 .bss           0x80f3c33c        0x0 ./SysLib/MercuryPlat/release/AL36V200_SDK.a(cp936.o)
 .bss           0x80f3c33c        0x0 ./SysLib/MercuryPlat/release/AL36V200_SDK.a(asn1parse.o)
 .bss           0x80f3c33c        0x0 ./SysLib/MercuryPlat/release/AL36V200_SDK.a(bignum.o)
 .bss           0x80f3c33c        0x0 ./SysLib/MercuryPlat/release/AL36V200_SDK.a(ctr_drbg.o)
 .bss           0x80f3c33c        0x0 ./SysLib/MercuryPlat/release/AL36V200_SDK.a(entropy.o)
 .bss           0x80f3c33c        0x0 ./SysLib/MercuryPlat/release/AL36V200_SDK.a(error.o)
 .bss           0x80f3c33c        0x0 ./SysLib/MercuryPlat/release/AL36V200_SDK.a(md.o)
 .bss           0x80f3c33c        0x0 ./SysLib/MercuryPlat/release/AL36V200_SDK.a(md_wrap.o)
 .bss           0x80f3c33c        0x0 ./SysLib/MercuryPlat/release/AL36V200_SDK.a(net.o)
 COMMON         0x80f3c33c        0x4 ./SysLib/MercuryPlat/release/AL36V200_SDK.a(net.o)
                0x80f3c33c                select_wait_time
 .bss           0x80f3c340        0x0 ./SysLib/MercuryPlat/release/AL36V200_SDK.a(oid.o)
 .bss           0x80f3c340        0x0 ./SysLib/MercuryPlat/release/AL36V200_SDK.a(pem.o)
 .bss           0x80f3c340        0x0 ./SysLib/MercuryPlat/release/AL36V200_SDK.a(pk.o)
 .bss           0x80f3c340        0x0 ./SysLib/MercuryPlat/release/AL36V200_SDK.a(pk_wrap.o)
 .bss           0x80f3c340        0x0 ./SysLib/MercuryPlat/release/AL36V200_SDK.a(pkparse.o)
 .bss           0x80f3c340        0x0 ./SysLib/MercuryPlat/release/AL36V200_SDK.a(ripemd160.o)
 .bss           0x80f3c340        0x0 ./SysLib/MercuryPlat/release/AL36V200_SDK.a(rsa.o)
 .bss           0x80f3c340        0x0 ./SysLib/MercuryPlat/release/AL36V200_SDK.a(sha1.o)
 .bss           0x80f3c340        0x0 ./SysLib/MercuryPlat/release/AL36V200_SDK.a(sha512.o)
 .bss           0x80f3c340        0x0 ./SysLib/MercuryPlat/release/AL36V200_SDK.a(ssl_tls.o)
 .bss           0x80f3c340        0x0 ./SysLib/MercuryPlat/release/AL36V200_SDK.a(x509.o)
 .bss           0x80f3c340        0x0 ./SysLib/MercuryPlat/release/AL36V200_SDK.a(MQTTConnectClient.o)
 .bss           0x80f3c340        0x0 ./SysLib/MercuryPlat/release/AL36V200_SDK.a(MQTTDeserializePublish.o)
 .bss           0x80f3c340        0x0 ./SysLib/MercuryPlat/release/AL36V200_SDK.a(MQTTPacket.o)
 .bss.bufptr    0x80f3c340        0x4 ./SysLib/MercuryPlat/release/AL36V200_SDK.a(MQTTPacket.o)
 .bss           0x80f3c344        0x0 ./SysLib/MercuryPlat/release/AL36V200_SDK.a(MQTTSerializePublish.o)
 .bss           0x80f3c344        0x0 ./SysLib/MercuryPlat/release/AL36V200_SDK.a(MQTTSubscribeClient.o)
 .bss           0x80f3c344        0x0 ./SysLib/MercuryPlat/release/AL36V200_SDK.a(MQTTUnsubscribeClient.o)
 .bss           0x80f3c344        0x0 ./SysLib/MercuryPlat/release/AL36V200_SDK.a(ac35_hardware.o)
 .bss           0x80f3c344        0x0 ./SysLib/MercuryPlat/release/AL36V200_SDK.a(aes.o)
 .bss.FSb       0x80f3c344      0x100 ./SysLib/MercuryPlat/release/AL36V200_SDK.a(aes.o)
 .bss.FT0       0x80f3c444      0x400 ./SysLib/MercuryPlat/release/AL36V200_SDK.a(aes.o)
 .bss.FT1       0x80f3c844      0x400 ./SysLib/MercuryPlat/release/AL36V200_SDK.a(aes.o)
 .bss.FT2       0x80f3cc44      0x400 ./SysLib/MercuryPlat/release/AL36V200_SDK.a(aes.o)
 .bss.FT3       0x80f3d044      0x400 ./SysLib/MercuryPlat/release/AL36V200_SDK.a(aes.o)
 .bss.RCON      0x80f3d444       0x28 ./SysLib/MercuryPlat/release/AL36V200_SDK.a(aes.o)
 .bss.RSb       0x80f3d46c      0x100 ./SysLib/MercuryPlat/release/AL36V200_SDK.a(aes.o)
 .bss.RT0       0x80f3d56c      0x400 ./SysLib/MercuryPlat/release/AL36V200_SDK.a(aes.o)
 .bss.RT1       0x80f3d96c      0x400 ./SysLib/MercuryPlat/release/AL36V200_SDK.a(aes.o)
 .bss.RT2       0x80f3dd6c      0x400 ./SysLib/MercuryPlat/release/AL36V200_SDK.a(aes.o)
 .bss.RT3       0x80f3e16c      0x400 ./SysLib/MercuryPlat/release/AL36V200_SDK.a(aes.o)
 .bss.aes_init_done
                0x80f3e56c        0x4 ./SysLib/MercuryPlat/release/AL36V200_SDK.a(aes.o)
 .bss           0x80f3e570        0x0 ./SysLib/MercuryPlat/release/AL36V200_SDK.a(cipher.o)
 .bss.supported_init
                0x80f3e570        0x4 ./SysLib/MercuryPlat/release/AL36V200_SDK.a(cipher.o)
 .bss           0x80f3e574        0x0 ./SysLib/MercuryPlat/release/AL36V200_SDK.a(cipher_wrap.o)
 COMMON         0x80f3e574       0xb0 ./SysLib/MercuryPlat/release/AL36V200_SDK.a(cipher_wrap.o)
                0x80f3e574                mbedtls_cipher_supported
 .bss           0x80f3e624        0x0 ./SysLib/MercuryPlat/release/AL36V200_SDK.a(debug.o)
 .bss.debug_threshold
                0x80f3e624        0x4 ./SysLib/MercuryPlat/release/AL36V200_SDK.a(debug.o)
 .bss           0x80f3e628        0x0 ./SysLib/MercuryPlat/release/AL36V200_SDK.a(des.o)
 .bss           0x80f3e628        0x0 ./SysLib/MercuryPlat/release/AL36V200_SDK.a(dhm.o)
 .bss           0x80f3e628        0x0 ./SysLib/MercuryPlat/release/AL36V200_SDK.a(ecdh.o)
 .bss           0x80f3e628        0x0 ./SysLib/MercuryPlat/release/AL36V200_SDK.a(ecdsa.o)
 .bss           0x80f3e628        0x0 ./SysLib/MercuryPlat/release/AL36V200_SDK.a(ecp.o)
 .bss.ecp_supported_grp_id
                0x80f3e628        0xc ./SysLib/MercuryPlat/release/AL36V200_SDK.a(ecp.o)
 .bss.init_done.6380
                0x80f3e634        0x4 ./SysLib/MercuryPlat/release/AL36V200_SDK.a(ecp.o)
 .bss           0x80f3e638        0x0 ./SysLib/MercuryPlat/release/AL36V200_SDK.a(ecp_curves.o)
 .bss           0x80f3e638        0x0 ./SysLib/MercuryPlat/release/AL36V200_SDK.a(gcm.o)
 .bss           0x80f3e638        0x0 ./SysLib/MercuryPlat/release/AL36V200_SDK.a(hmac_drbg.o)
 .bss           0x80f3e638        0x0 ./SysLib/MercuryPlat/release/AL36V200_SDK.a(pkcs5.o)
 .bss           0x80f3e638        0x0 ./SysLib/MercuryPlat/release/AL36V200_SDK.a(pkcs12.o)
 .bss           0x80f3e638        0x0 ./SysLib/MercuryPlat/release/AL36V200_SDK.a(ssl_ciphersuites.o)
 .bss.supported_ciphersuites
                0x80f3e638      0x234 ./SysLib/MercuryPlat/release/AL36V200_SDK.a(ssl_ciphersuites.o)
 .bss.supported_init
                0x80f3e86c        0x4 ./SysLib/MercuryPlat/release/AL36V200_SDK.a(ssl_ciphersuites.o)
 .bss           0x80f3e870        0x0 ./SysLib/MercuryPlat/release/AL36V200_SDK.a(ssl_cli.o)
 .bss           0x80f3e870        0x0 ./SysLib/MercuryPlat/release/AL36V200_SDK.a(arc4.o)
 .bss           0x80f3e870        0x0 ./SysLib/MercuryPlat/release/AL36V200_SDK.a(asn1write.o)
 .bss           0x80f3e870        0x0 ./SysLib/MercuryPlat/release/AL36V200_SDK.a(camellia.o)
 .bss           0x80f3e870        0x0 ./SysLib/MercuryPlat/release/AL36V200_SDK.a(ccm.o)
 .bss           0x80f3e870        0x0 .//prebuilts/win32/gcc-arm-none-eabi/lib/gcc/arm-none-eabi/7.2.1\libgcc.a(_udivsi3.o)
 .bss           0x80f3e870        0x0 .//prebuilts/win32/gcc-arm-none-eabi/lib/gcc/arm-none-eabi/7.2.1\libgcc.a(_aeabi_ldivmod.o)
 .bss           0x80f3e870        0x0 .//prebuilts/win32/gcc-arm-none-eabi/lib/gcc/arm-none-eabi/7.2.1\libgcc.a(_aeabi_uldivmod.o)
 .bss           0x80f3e870        0x0 .//prebuilts/win32/gcc-arm-none-eabi/lib/gcc/arm-none-eabi/7.2.1\libgcc.a(_udivmoddi4.o)
 .bss           0x80f3e870        0x0 ./SysLib/MercuryPlat/release/libsystem.a(MercuryBarScan.o)
 .bss.camInited
                0x80f3e870        0x4 ./SysLib/MercuryPlat/release/libsystem.a(MercuryBarScan.o)
 .bss           0x80f3e874        0x0 ./SysLib/MercuryPlat/release/libsystem.a(MercuryCom.o)
 .bss.g_com_cb_reg
                0x80f3e874       0x30 ./SysLib/MercuryPlat/release/libsystem.a(MercuryCom.o)
                0x80f3e874                g_com_cb_reg
 .bss.s_ComInitFlag
                0x80f3e8a4        0xc ./SysLib/MercuryPlat/release/libsystem.a(MercuryCom.o)
 .bss           0x80f3e8b0        0x0 ./SysLib/MercuryPlat/release/libsystem.a(MercurySec.o)
 .bss           0x80f3e8b0        0x0 ./SysLib/MercuryPlat/release/libsystem.a(MercurySpi.o)
 .bss.SpiInitFlag
                0x80f3e8b0        0x4 ./SysLib/MercuryPlat/release/libsystem.a(MercurySpi.o)
                0x80f3e8b4                _app_bss_end = .
                0x80f3e8c0                . = ALIGN (0x20)
 *fill*         0x80f3e8b4        0xc 
                0x80f3e8c0                _app_ram_end = .
                0x00000001                ASSERT ((_app_data_flash_end <= (ORIGIN (flash) + LENGTH (flash))), FLASH overflow)
                0x00000001                ASSERT ((_app_ram_end <= (ORIGIN (ram) + LENGTH (ram))), RAM overflow)
START GROUP
LOAD .//build/MainApp/release/lib\libMainApp.a
LOAD .//prebuilts/win32/gcc-arm-none-eabi/lib/gcc/arm-none-eabi/7.2.1\libgcc.a
LOAD ./SysLib/MercuryPlat/release/libsystem.a
LOAD ./SysLib/MercuryPlat/release/AL36V200_SDK.a
END GROUP
START GROUP
LOAD .//build/MainApp/release/lib\libMainApp.a
LOAD .//prebuilts/win32/gcc-arm-none-eabi/lib/gcc/arm-none-eabi/7.2.1\libgcc.a
LOAD ./SysLib/MercuryPlat/release/libsystem.a
LOAD ./SysLib/MercuryPlat/release/AL36V200_SDK.a
END GROUP
OUTPUT(.//build/MainApp/release/out/MainApp_release.elf elf32-littlearm)

.debug_info     0x00000000   0x179104
 .debug_info    0x00000000     0xa216 ./SysLib/MercuryPlat/release/libsystem.a(main_entry.o)
 .debug_info    0x0000a216     0xacf8 ./SysLib/MercuryPlat/release/libsystem.a(MercuryCSTD.o)
 .debug_info    0x00014f0e     0x2146 .//build/MainApp/release/lib\libMainApp.a(test_main.o)
 .debug_info    0x00017054     0x2a57 .//build/MainApp/release/lib\libMainApp.a(keypad.o)
 .debug_info    0x00019aab      0x801 .//build/MainApp/release/lib\libMainApp.a(transactions.o)
 .debug_info    0x0001a2ac     0x10a6 .//build/MainApp/release/lib\libMainApp.a(wifi.o)
 .debug_info    0x0001b352      0x18f .//build/MainApp/release/lib\libMainApp.a(app_system.o)
 .debug_info    0x0001b4e1     0x4f62 .//build/MainApp/release/lib\libMainApp.a(push_msg_parse.o)
 .debug_info    0x00020443      0x66b .//build/MainApp/release/lib\libMainApp.a(app_config.o)
 .debug_info    0x00020aae     0x1df3 .//build/MainApp/release/lib\libMainApp.a(connect_mqtt_soundbox_server.o)
 .debug_info    0x000228a1      0x1da .//build/MainApp/release/lib\libMainApp.a(24_24_lcd.o)
 .debug_info    0x00022a7b      0x5c1 .//build/MainApp/release/lib\libMainApp.a(led.o)
 .debug_info    0x0002303c     0x1b57 .//build/MainApp/release/lib\libMainApp.a(app_qrcode.o)
 .debug_info    0x00024b93      0x5ee .//build/MainApp/release/lib\libMainApp.a(device.o)
 .debug_info    0x00025181     0x1daa .//build/MainApp/release/lib\libMainApp.a(app_fota.o)
 .debug_info    0x00026f2b     0x2025 .//build/MainApp/release/lib\libMainApp.a(temp.o)
 .debug_info    0x00028f50     0x1acb .//build/MainApp/release/lib\libMainApp.a(app_audio.o)
 .debug_info    0x0002aa1b      0x3ff .//build/MainApp/release/lib\libMainApp.a(global.o)
 .debug_info    0x0002ae1a     0x1701 .//build/MainApp/release/lib\libMainApp.a(data_parser.o)
 .debug_info    0x0002c51b      0xf71 .//build/MainApp/release/lib\libMainApp.a(app_power.o)
 .debug_info    0x0002d48c     0xa214 ./SysLib/MercuryPlat/release/libsystem.a(MercuryAudio.o)
 .debug_info    0x000376a0     0x9d4a ./SysLib/MercuryPlat/release/libsystem.a(MercuryBattery.o)
 .debug_info    0x000413ea     0xa813 ./SysLib/MercuryPlat/release/libsystem.a(MercuryFile.o)
 .debug_info    0x0004bbfd     0xa5d6 ./SysLib/MercuryPlat/release/libsystem.a(MercuryFota.o)
 .debug_info    0x000561d3     0xa191 ./SysLib/MercuryPlat/release/libsystem.a(MercuryGpio.o)
 .debug_info    0x00060364     0xa570 ./SysLib/MercuryPlat/release/libsystem.a(MercuryGraphics.o)
 .debug_info    0x0006a8d4     0x9fa9 ./SysLib/MercuryPlat/release/libsystem.a(MercuryKeypad.o)
 .debug_info    0x0007487d     0x9ea2 ./SysLib/MercuryPlat/release/libsystem.a(MercuryMem.o)
 .debug_info    0x0007e71f     0xa025 ./SysLib/MercuryPlat/release/libsystem.a(MercuryNLed.o)
 .debug_info    0x00088744     0xbec6 ./SysLib/MercuryPlat/release/libsystem.a(MercuryNet.o)
 .debug_info    0x0009460a     0xa017 ./SysLib/MercuryPlat/release/libsystem.a(MercuryNv.o)
 .debug_info    0x0009e621     0xa307 ./SysLib/MercuryPlat/release/libsystem.a(MercuryPlat.o)
 .debug_info    0x000a8928     0xa24b ./SysLib/MercuryPlat/release/libsystem.a(MercuryPowerManager.o)
 .debug_info    0x000b2b73     0xa532 ./SysLib/MercuryPlat/release/libsystem.a(MercurySyn.o)
 .debug_info    0x000bd0a5     0xa218 ./SysLib/MercuryPlat/release/libsystem.a(MercuryThread.o)
 .debug_info    0x000c72bd     0xa116 ./SysLib/MercuryPlat/release/libsystem.a(MercuryTimer.o)
 .debug_info    0x000d13d3     0xa0ba ./SysLib/MercuryPlat/release/libsystem.a(MercuryTts.o)
 .debug_info    0x000db48d     0x1168 ./SysLib/MercuryPlat/release/AL36V200_SDK.a(QYY_API_FOTA.o)
 .debug_info    0x000dc5f5      0x760 ./SysLib/MercuryPlat/release/AL36V200_SDK.a(QYY_API_POWER.o)
 .debug_info    0x000dcd55      0x859 ./SysLib/MercuryPlat/release/AL36V200_SDK.a(QYY_API_BCS_DISPLAY.o)
 .debug_info    0x000dd5ae     0x3806 ./SysLib/MercuryPlat/release/AL36V200_SDK.a(qyy_to_sdk.o)
 .debug_info    0x000e0db4     0x13b4 ./SysLib/MercuryPlat/release/AL36V200_SDK.a(gpio.o)
 .debug_info    0x000e2168      0x98e ./SysLib/MercuryPlat/release/AL36V200_SDK.a(keypad.o)
 .debug_info    0x000e2af6     0x20b6 ./SysLib/MercuryPlat/release/AL36V200_SDK.a(lcddrv.o)
 .debug_info    0x000e4bac     0x11ee ./SysLib/MercuryPlat/release/AL36V200_SDK.a(bcs_lcddrv.o)
 .debug_info    0x000e5d9a     0x1bf4 ./SysLib/MercuryPlat/release/AL36V200_SDK.a(http.o)
 .debug_info    0x000e798e     0x134c ./SysLib/MercuryPlat/release/AL36V200_SDK.a(http_parser.o)
 .debug_info    0x000e8cda     0x2eef ./SysLib/MercuryPlat/release/AL36V200_SDK.a(http_post.o)
 .debug_info    0x000ebbc9     0x1e02 ./SysLib/MercuryPlat/release/AL36V200_SDK.a(cjson.o)
 .debug_info    0x000ed9cb      0x311 ./SysLib/MercuryPlat/release/AL36V200_SDK.a(utf2gb.o)
 .debug_info    0x000edcdc     0x2107 ./SysLib/MercuryPlat/release/AL36V200_SDK.a(gprs_tcp.o)
 .debug_info    0x000efde3      0xc54 ./SysLib/MercuryPlat/release/AL36V200_SDK.a(tcp.o)
 .debug_info    0x000f0a37     0x7cb5 ./SysLib/MercuryPlat/release/AL36V200_SDK.a(wifi_tcp.o)
 .debug_info    0x000f86ec      0x1ec ./SysLib/MercuryPlat/release/AL36V200_SDK.a(amoi_memory.o)
 .debug_info    0x000f88d8      0x24f ./SysLib/MercuryPlat/release/AL36V200_SDK.a(base64.o)
 .debug_info    0x000f8b27      0x635 ./SysLib/MercuryPlat/release/AL36V200_SDK.a(md5.o)
 .debug_info    0x000f915c      0x697 ./SysLib/MercuryPlat/release/AL36V200_SDK.a(sha256.o)
 .debug_info    0x000f97f3     0x1fa1 ./SysLib/MercuryPlat/release/AL36V200_SDK.a(tls.o)
 .debug_info    0x000fb794     0x3a9e ./SysLib/MercuryPlat/release/AL36V200_SDK.a(x509_crt.o)
 .debug_info    0x000ff232     0x2197 ./SysLib/MercuryPlat/release/AL36V200_SDK.a(QYY_API_AUDIO.o)
 .debug_info    0x001013c9      0x38f ./SysLib/MercuryPlat/release/AL36V200_SDK.a(QYY_API_LED.o)
 .debug_info    0x00101758     0x11b0 ./SysLib/MercuryPlat/release/AL36V200_SDK.a(QYY_API_MQTT.o)
 .debug_info    0x00102908     0x19a4 ./SysLib/MercuryPlat/release/AL36V200_SDK.a(QYY_API_SYS.o)
 .debug_info    0x001042ac      0x667 ./SysLib/MercuryPlat/release/AL36V200_SDK.a(QYY_API_TCP.o)
 .debug_info    0x00104913      0x7ba ./SysLib/MercuryPlat/release/AL36V200_SDK.a(QYY_API_URLEN.o)
 .debug_info    0x001050cd      0x3b9 ./SysLib/MercuryPlat/release/AL36V200_SDK.a(QYY_API_HMAC.o)
 .debug_info    0x00105486      0xa99 ./SysLib/MercuryPlat/release/AL36V200_SDK.a(QYY_API_NTP.o)
 .debug_info    0x00105f1f     0x1c22 ./SysLib/MercuryPlat/release/AL36V200_SDK.a(QYY_API_DISPLAY.o)
 .debug_info    0x00107b41      0x2f5 ./SysLib/MercuryPlat/release/AL36V200_SDK.a(QYY_API_FS.o)
 .debug_info    0x00107e36      0xfc7 ./SysLib/MercuryPlat/release/AL36V200_SDK.a(atthread.o)
 .debug_info    0x00108dfd      0x15b ./SysLib/MercuryPlat/release/AL36V200_SDK.a(amp_ctl.o)
 .debug_info    0x00108f58      0x60d ./SysLib/MercuryPlat/release/AL36V200_SDK.a(device.o)
 .debug_info    0x00109565      0x14a ./SysLib/MercuryPlat/release/AL36V200_SDK.a(se_wifi_reset.o)
 .debug_info    0x001096af      0xa09 ./SysLib/MercuryPlat/release/AL36V200_SDK.a(MQTTFormat.o)
 .debug_info    0x0010a0b8     0x3413 ./SysLib/MercuryPlat/release/AL36V200_SDK.a(MQTTClient.o)
 .debug_info    0x0010d4cb     0x1ade ./SysLib/MercuryPlat/release/AL36V200_SDK.a(MQTTFreeRTOS.o)
 .debug_info    0x0010efa9       0xa3 ./SysLib/MercuryPlat/release/AL36V200_SDK.a(cp936.o)
 .debug_info    0x0010f04c      0x98c ./SysLib/MercuryPlat/release/AL36V200_SDK.a(asn1parse.o)
 .debug_info    0x0010f9d8     0x3daf ./SysLib/MercuryPlat/release/AL36V200_SDK.a(bignum.o)
 .debug_info    0x00113787      0xbfd ./SysLib/MercuryPlat/release/AL36V200_SDK.a(ctr_drbg.o)
 .debug_info    0x00114384      0x8f0 ./SysLib/MercuryPlat/release/AL36V200_SDK.a(entropy.o)
 .debug_info    0x00114c74     0x14ce ./SysLib/MercuryPlat/release/AL36V200_SDK.a(error.o)
 .debug_info    0x00116142      0xc8c ./SysLib/MercuryPlat/release/AL36V200_SDK.a(md.o)
 .debug_info    0x00116dce     0x135e ./SysLib/MercuryPlat/release/AL36V200_SDK.a(md_wrap.o)
 .debug_info    0x0011812c      0x573 ./SysLib/MercuryPlat/release/AL36V200_SDK.a(net.o)
 .debug_info    0x0011869f     0x1072 ./SysLib/MercuryPlat/release/AL36V200_SDK.a(oid.o)
 .debug_info    0x00119711     0x11cf ./SysLib/MercuryPlat/release/AL36V200_SDK.a(pem.o)
 .debug_info    0x0011a8e0      0xee3 ./SysLib/MercuryPlat/release/AL36V200_SDK.a(pk.o)
 .debug_info    0x0011b7c3     0x1873 ./SysLib/MercuryPlat/release/AL36V200_SDK.a(pk_wrap.o)
 .debug_info    0x0011d036     0x20fa ./SysLib/MercuryPlat/release/AL36V200_SDK.a(pkparse.o)
 .debug_info    0x0011f130      0x694 ./SysLib/MercuryPlat/release/AL36V200_SDK.a(ripemd160.o)
 .debug_info    0x0011f7c4     0x32eb ./SysLib/MercuryPlat/release/AL36V200_SDK.a(rsa.o)
 .debug_info    0x00122aaf      0x65d ./SysLib/MercuryPlat/release/AL36V200_SDK.a(sha1.o)
 .debug_info    0x0012310c      0x6f4 ./SysLib/MercuryPlat/release/AL36V200_SDK.a(sha512.o)
 .debug_info    0x00123800     0x955d ./SysLib/MercuryPlat/release/AL36V200_SDK.a(ssl_tls.o)
 .debug_info    0x0012cd5d     0x1441 ./SysLib/MercuryPlat/release/AL36V200_SDK.a(x509.o)
 .debug_info    0x0012e19e      0xa1b ./SysLib/MercuryPlat/release/AL36V200_SDK.a(MQTTConnectClient.o)
 .debug_info    0x0012ebb9      0x5bc ./SysLib/MercuryPlat/release/AL36V200_SDK.a(MQTTDeserializePublish.o)
 .debug_info    0x0012f175      0xb86 ./SysLib/MercuryPlat/release/AL36V200_SDK.a(MQTTPacket.o)
 .debug_info    0x0012fcfb      0x7c1 ./SysLib/MercuryPlat/release/AL36V200_SDK.a(MQTTSerializePublish.o)
 .debug_info    0x001304bc      0x6b7 ./SysLib/MercuryPlat/release/AL36V200_SDK.a(MQTTSubscribeClient.o)
 .debug_info    0x00130b73      0x602 ./SysLib/MercuryPlat/release/AL36V200_SDK.a(MQTTUnsubscribeClient.o)
 .debug_info    0x00131175       0xf7 ./SysLib/MercuryPlat/release/AL36V200_SDK.a(ac35_hardware.o)
 .debug_info    0x0013126c      0xc33 ./SysLib/MercuryPlat/release/AL36V200_SDK.a(aes.o)
 .debug_info    0x00131e9f     0x185a ./SysLib/MercuryPlat/release/AL36V200_SDK.a(cipher.o)
 .debug_info    0x001336f9     0x2046 ./SysLib/MercuryPlat/release/AL36V200_SDK.a(cipher_wrap.o)
 .debug_info    0x0013573f     0x1e5c ./SysLib/MercuryPlat/release/AL36V200_SDK.a(debug.o)
 .debug_info    0x0013759b      0xc9d ./SysLib/MercuryPlat/release/AL36V200_SDK.a(des.o)
 .debug_info    0x00138238     0x116d ./SysLib/MercuryPlat/release/AL36V200_SDK.a(dhm.o)
 .debug_info    0x001393a5      0xcb3 ./SysLib/MercuryPlat/release/AL36V200_SDK.a(ecdh.o)
 .debug_info    0x0013a058     0x1771 ./SysLib/MercuryPlat/release/AL36V200_SDK.a(ecdsa.o)
 .debug_info    0x0013b7c9     0x56dc ./SysLib/MercuryPlat/release/AL36V200_SDK.a(ecp.o)
 .debug_info    0x00140ea5     0x3ae0 ./SysLib/MercuryPlat/release/AL36V200_SDK.a(ecp_curves.o)
 .debug_info    0x00144985     0x1058 ./SysLib/MercuryPlat/release/AL36V200_SDK.a(gcm.o)
 .debug_info    0x001459dd      0xa44 ./SysLib/MercuryPlat/release/AL36V200_SDK.a(hmac_drbg.o)
 .debug_info    0x00146421      0xd2a ./SysLib/MercuryPlat/release/AL36V200_SDK.a(pkcs5.o)
 .debug_info    0x0014714b     0x11eb ./SysLib/MercuryPlat/release/AL36V200_SDK.a(pkcs12.o)
 .debug_info    0x00148336      0x6b3 ./SysLib/MercuryPlat/release/AL36V200_SDK.a(ssl_ciphersuites.o)
 .debug_info    0x001489e9     0x5441 ./SysLib/MercuryPlat/release/AL36V200_SDK.a(ssl_cli.o)
 .debug_info    0x0014de2a      0x2d9 ./SysLib/MercuryPlat/release/AL36V200_SDK.a(arc4.o)
 .debug_info    0x0014e103      0xc7a ./SysLib/MercuryPlat/release/AL36V200_SDK.a(asn1write.o)
 .debug_info    0x0014ed7d      0xad6 ./SysLib/MercuryPlat/release/AL36V200_SDK.a(camellia.o)
 .debug_info    0x0014f853      0xd3a ./SysLib/MercuryPlat/release/AL36V200_SDK.a(ccm.o)
 .debug_info    0x0015058d     0xa502 ./SysLib/MercuryPlat/release/libsystem.a(MercuryBarScan.o)
 .debug_info    0x0015aa8f     0xa625 ./SysLib/MercuryPlat/release/libsystem.a(MercuryCom.o)
 .debug_info    0x001650b4     0x9e7f ./SysLib/MercuryPlat/release/libsystem.a(MercurySec.o)
 .debug_info    0x0016ef33     0xa1d1 ./SysLib/MercuryPlat/release/libsystem.a(MercurySpi.o)

.debug_abbrev   0x00000000    0x17927
 .debug_abbrev  0x00000000      0x355 ./SysLib/MercuryPlat/release/libsystem.a(main_entry.o)
 .debug_abbrev  0x00000355      0x3b3 ./SysLib/MercuryPlat/release/libsystem.a(MercuryCSTD.o)
 .debug_abbrev  0x00000708      0x3f1 .//build/MainApp/release/lib\libMainApp.a(test_main.o)
 .debug_abbrev  0x00000af9      0x4e1 .//build/MainApp/release/lib\libMainApp.a(keypad.o)
 .debug_abbrev  0x00000fda      0x22e .//build/MainApp/release/lib\libMainApp.a(transactions.o)
 .debug_abbrev  0x00001208      0x2e6 .//build/MainApp/release/lib\libMainApp.a(wifi.o)
 .debug_abbrev  0x000014ee       0xf5 .//build/MainApp/release/lib\libMainApp.a(app_system.o)
 .debug_abbrev  0x000015e3      0x5f0 .//build/MainApp/release/lib\libMainApp.a(push_msg_parse.o)
 .debug_abbrev  0x00001bd3      0x1ec .//build/MainApp/release/lib\libMainApp.a(app_config.o)
 .debug_abbrev  0x00001dbf      0x4df .//build/MainApp/release/lib\libMainApp.a(connect_mqtt_soundbox_server.o)
 .debug_abbrev  0x0000229e       0x5d .//build/MainApp/release/lib\libMainApp.a(24_24_lcd.o)
 .debug_abbrev  0x000022fb      0x137 .//build/MainApp/release/lib\libMainApp.a(led.o)
 .debug_abbrev  0x00002432      0x32f .//build/MainApp/release/lib\libMainApp.a(app_qrcode.o)
 .debug_abbrev  0x00002761      0x1f4 .//build/MainApp/release/lib\libMainApp.a(device.o)
 .debug_abbrev  0x00002955      0x3f9 .//build/MainApp/release/lib\libMainApp.a(app_fota.o)
 .debug_abbrev  0x00002d4e      0x4fc .//build/MainApp/release/lib\libMainApp.a(temp.o)
 .debug_abbrev  0x0000324a      0x42e .//build/MainApp/release/lib\libMainApp.a(app_audio.o)
 .debug_abbrev  0x00003678      0x106 .//build/MainApp/release/lib\libMainApp.a(global.o)
 .debug_abbrev  0x0000377e      0x303 .//build/MainApp/release/lib\libMainApp.a(data_parser.o)
 .debug_abbrev  0x00003a81      0x32d .//build/MainApp/release/lib\libMainApp.a(app_power.o)
 .debug_abbrev  0x00003dae      0x360 ./SysLib/MercuryPlat/release/libsystem.a(MercuryAudio.o)
 .debug_abbrev  0x0000410e      0x2ba ./SysLib/MercuryPlat/release/libsystem.a(MercuryBattery.o)
 .debug_abbrev  0x000043c8      0x3e3 ./SysLib/MercuryPlat/release/libsystem.a(MercuryFile.o)
 .debug_abbrev  0x000047ab      0x3a8 ./SysLib/MercuryPlat/release/libsystem.a(MercuryFota.o)
 .debug_abbrev  0x00004b53      0x353 ./SysLib/MercuryPlat/release/libsystem.a(MercuryGpio.o)
 .debug_abbrev  0x00004ea6      0x3af ./SysLib/MercuryPlat/release/libsystem.a(MercuryGraphics.o)
 .debug_abbrev  0x00005255      0x351 ./SysLib/MercuryPlat/release/libsystem.a(MercuryKeypad.o)
 .debug_abbrev  0x000055a6      0x31f ./SysLib/MercuryPlat/release/libsystem.a(MercuryMem.o)
 .debug_abbrev  0x000058c5      0x328 ./SysLib/MercuryPlat/release/libsystem.a(MercuryNLed.o)
 .debug_abbrev  0x00005bed      0x52f ./SysLib/MercuryPlat/release/libsystem.a(MercuryNet.o)
 .debug_abbrev  0x0000611c      0x370 ./SysLib/MercuryPlat/release/libsystem.a(MercuryNv.o)
 .debug_abbrev  0x0000648c      0x3dd ./SysLib/MercuryPlat/release/libsystem.a(MercuryPlat.o)
 .debug_abbrev  0x00006869      0x35d ./SysLib/MercuryPlat/release/libsystem.a(MercuryPowerManager.o)
 .debug_abbrev  0x00006bc6      0x3d1 ./SysLib/MercuryPlat/release/libsystem.a(MercurySyn.o)
 .debug_abbrev  0x00006f97      0x354 ./SysLib/MercuryPlat/release/libsystem.a(MercuryThread.o)
 .debug_abbrev  0x000072eb      0x3b0 ./SysLib/MercuryPlat/release/libsystem.a(MercuryTimer.o)
 .debug_abbrev  0x0000769b      0x36a ./SysLib/MercuryPlat/release/libsystem.a(MercuryTts.o)
 .debug_abbrev  0x00007a05      0x274 ./SysLib/MercuryPlat/release/AL36V200_SDK.a(QYY_API_FOTA.o)
 .debug_abbrev  0x00007c79      0x20a ./SysLib/MercuryPlat/release/AL36V200_SDK.a(QYY_API_POWER.o)
 .debug_abbrev  0x00007e83      0x270 ./SysLib/MercuryPlat/release/AL36V200_SDK.a(QYY_API_BCS_DISPLAY.o)
 .debug_abbrev  0x000080f3      0x282 ./SysLib/MercuryPlat/release/AL36V200_SDK.a(qyy_to_sdk.o)
 .debug_abbrev  0x00008375      0x485 ./SysLib/MercuryPlat/release/AL36V200_SDK.a(gpio.o)
 .debug_abbrev  0x000087fa      0x2aa ./SysLib/MercuryPlat/release/AL36V200_SDK.a(keypad.o)
 .debug_abbrev  0x00008aa4      0x44d ./SysLib/MercuryPlat/release/AL36V200_SDK.a(lcddrv.o)
 .debug_abbrev  0x00008ef1      0x3af ./SysLib/MercuryPlat/release/AL36V200_SDK.a(bcs_lcddrv.o)
 .debug_abbrev  0x000092a0      0x48e ./SysLib/MercuryPlat/release/AL36V200_SDK.a(http.o)
 .debug_abbrev  0x0000972e      0x377 ./SysLib/MercuryPlat/release/AL36V200_SDK.a(http_parser.o)
 .debug_abbrev  0x00009aa5      0x45f ./SysLib/MercuryPlat/release/AL36V200_SDK.a(http_post.o)
 .debug_abbrev  0x00009f04      0x3e4 ./SysLib/MercuryPlat/release/AL36V200_SDK.a(cjson.o)
 .debug_abbrev  0x0000a2e8      0x1e4 ./SysLib/MercuryPlat/release/AL36V200_SDK.a(utf2gb.o)
 .debug_abbrev  0x0000a4cc      0x413 ./SysLib/MercuryPlat/release/AL36V200_SDK.a(gprs_tcp.o)
 .debug_abbrev  0x0000a8df      0x250 ./SysLib/MercuryPlat/release/AL36V200_SDK.a(tcp.o)
 .debug_abbrev  0x0000ab2f      0x512 ./SysLib/MercuryPlat/release/AL36V200_SDK.a(wifi_tcp.o)
 .debug_abbrev  0x0000b041       0xcc ./SysLib/MercuryPlat/release/AL36V200_SDK.a(amoi_memory.o)
 .debug_abbrev  0x0000b10d       0xe7 ./SysLib/MercuryPlat/release/AL36V200_SDK.a(base64.o)
 .debug_abbrev  0x0000b1f4      0x267 ./SysLib/MercuryPlat/release/AL36V200_SDK.a(md5.o)
 .debug_abbrev  0x0000b45b      0x294 ./SysLib/MercuryPlat/release/AL36V200_SDK.a(sha256.o)
 .debug_abbrev  0x0000b6ef      0x345 ./SysLib/MercuryPlat/release/AL36V200_SDK.a(tls.o)
 .debug_abbrev  0x0000ba34      0x44a ./SysLib/MercuryPlat/release/AL36V200_SDK.a(x509_crt.o)
 .debug_abbrev  0x0000be7e      0x4df ./SysLib/MercuryPlat/release/AL36V200_SDK.a(QYY_API_AUDIO.o)
 .debug_abbrev  0x0000c35d      0x13b ./SysLib/MercuryPlat/release/AL36V200_SDK.a(QYY_API_LED.o)
 .debug_abbrev  0x0000c498      0x2ab ./SysLib/MercuryPlat/release/AL36V200_SDK.a(QYY_API_MQTT.o)
 .debug_abbrev  0x0000c743      0x488 ./SysLib/MercuryPlat/release/AL36V200_SDK.a(QYY_API_SYS.o)
 .debug_abbrev  0x0000cbcb      0x18e ./SysLib/MercuryPlat/release/AL36V200_SDK.a(QYY_API_TCP.o)
 .debug_abbrev  0x0000cd59      0x218 ./SysLib/MercuryPlat/release/AL36V200_SDK.a(QYY_API_URLEN.o)
 .debug_abbrev  0x0000cf71      0x12f ./SysLib/MercuryPlat/release/AL36V200_SDK.a(QYY_API_HMAC.o)
 .debug_abbrev  0x0000d0a0      0x239 ./SysLib/MercuryPlat/release/AL36V200_SDK.a(QYY_API_NTP.o)
 .debug_abbrev  0x0000d2d9      0x410 ./SysLib/MercuryPlat/release/AL36V200_SDK.a(QYY_API_DISPLAY.o)
 .debug_abbrev  0x0000d6e9      0x148 ./SysLib/MercuryPlat/release/AL36V200_SDK.a(QYY_API_FS.o)
 .debug_abbrev  0x0000d831      0x33f ./SysLib/MercuryPlat/release/AL36V200_SDK.a(atthread.o)
 .debug_abbrev  0x0000db70       0xde ./SysLib/MercuryPlat/release/AL36V200_SDK.a(amp_ctl.o)
 .debug_abbrev  0x0000dc4e      0x1aa ./SysLib/MercuryPlat/release/AL36V200_SDK.a(device.o)
 .debug_abbrev  0x0000ddf8       0x7b ./SysLib/MercuryPlat/release/AL36V200_SDK.a(se_wifi_reset.o)
 .debug_abbrev  0x0000de73      0x1bb ./SysLib/MercuryPlat/release/AL36V200_SDK.a(MQTTFormat.o)
 .debug_abbrev  0x0000e02e      0x56c ./SysLib/MercuryPlat/release/AL36V200_SDK.a(MQTTClient.o)
 .debug_abbrev  0x0000e59a      0x32a ./SysLib/MercuryPlat/release/AL36V200_SDK.a(MQTTFreeRTOS.o)
 .debug_abbrev  0x0000e8c4       0xa0 ./SysLib/MercuryPlat/release/AL36V200_SDK.a(cp936.o)
 .debug_abbrev  0x0000e964      0x26b ./SysLib/MercuryPlat/release/AL36V200_SDK.a(asn1parse.o)
 .debug_abbrev  0x0000ebcf      0x43a ./SysLib/MercuryPlat/release/AL36V200_SDK.a(bignum.o)
 .debug_abbrev  0x0000f009      0x2d7 ./SysLib/MercuryPlat/release/AL36V200_SDK.a(ctr_drbg.o)
 .debug_abbrev  0x0000f2e0      0x346 ./SysLib/MercuryPlat/release/AL36V200_SDK.a(entropy.o)
 .debug_abbrev  0x0000f626      0x12f ./SysLib/MercuryPlat/release/AL36V200_SDK.a(error.o)
 .debug_abbrev  0x0000f755      0x355 ./SysLib/MercuryPlat/release/AL36V200_SDK.a(md.o)
 .debug_abbrev  0x0000faaa      0x1fc ./SysLib/MercuryPlat/release/AL36V200_SDK.a(md_wrap.o)
 .debug_abbrev  0x0000fca6      0x20c ./SysLib/MercuryPlat/release/AL36V200_SDK.a(net.o)
 .debug_abbrev  0x0000feb2      0x2c1 ./SysLib/MercuryPlat/release/AL36V200_SDK.a(oid.o)
 .debug_abbrev  0x00010173      0x2fd ./SysLib/MercuryPlat/release/AL36V200_SDK.a(pem.o)
 .debug_abbrev  0x00010470      0x362 ./SysLib/MercuryPlat/release/AL36V200_SDK.a(pk.o)
 .debug_abbrev  0x000107d2      0x39e ./SysLib/MercuryPlat/release/AL36V200_SDK.a(pk_wrap.o)
 .debug_abbrev  0x00010b70      0x2f9 ./SysLib/MercuryPlat/release/AL36V200_SDK.a(pkparse.o)
 .debug_abbrev  0x00010e69      0x274 ./SysLib/MercuryPlat/release/AL36V200_SDK.a(ripemd160.o)
 .debug_abbrev  0x000110dd      0x405 ./SysLib/MercuryPlat/release/AL36V200_SDK.a(rsa.o)
 .debug_abbrev  0x000114e2      0x283 ./SysLib/MercuryPlat/release/AL36V200_SDK.a(sha1.o)
 .debug_abbrev  0x00011765      0x2a1 ./SysLib/MercuryPlat/release/AL36V200_SDK.a(sha512.o)
 .debug_abbrev  0x00011a06      0x602 ./SysLib/MercuryPlat/release/AL36V200_SDK.a(ssl_tls.o)
 .debug_abbrev  0x00012008      0x332 ./SysLib/MercuryPlat/release/AL36V200_SDK.a(x509.o)
 .debug_abbrev  0x0001233a      0x20d ./SysLib/MercuryPlat/release/AL36V200_SDK.a(MQTTConnectClient.o)
 .debug_abbrev  0x00012547      0x1ce ./SysLib/MercuryPlat/release/AL36V200_SDK.a(MQTTDeserializePublish.o)
 .debug_abbrev  0x00012715      0x3aa ./SysLib/MercuryPlat/release/AL36V200_SDK.a(MQTTPacket.o)
 .debug_abbrev  0x00012abf      0x1f5 ./SysLib/MercuryPlat/release/AL36V200_SDK.a(MQTTSerializePublish.o)
 .debug_abbrev  0x00012cb4      0x1d3 ./SysLib/MercuryPlat/release/AL36V200_SDK.a(MQTTSubscribeClient.o)
 .debug_abbrev  0x00012e87      0x1d3 ./SysLib/MercuryPlat/release/AL36V200_SDK.a(MQTTUnsubscribeClient.o)
 .debug_abbrev  0x0001305a       0x9f ./SysLib/MercuryPlat/release/AL36V200_SDK.a(ac35_hardware.o)
 .debug_abbrev  0x000130f9      0x26c ./SysLib/MercuryPlat/release/AL36V200_SDK.a(aes.o)
 .debug_abbrev  0x00013365      0x490 ./SysLib/MercuryPlat/release/AL36V200_SDK.a(cipher.o)
 .debug_abbrev  0x000137f5      0x2b7 ./SysLib/MercuryPlat/release/AL36V200_SDK.a(cipher_wrap.o)
 .debug_abbrev  0x00013aac      0x3d0 ./SysLib/MercuryPlat/release/AL36V200_SDK.a(debug.o)
 .debug_abbrev  0x00013e7c      0x1f4 ./SysLib/MercuryPlat/release/AL36V200_SDK.a(des.o)
 .debug_abbrev  0x00014070      0x2f1 ./SysLib/MercuryPlat/release/AL36V200_SDK.a(dhm.o)
 .debug_abbrev  0x00014361      0x255 ./SysLib/MercuryPlat/release/AL36V200_SDK.a(ecdh.o)
 .debug_abbrev  0x000145b6      0x30b ./SysLib/MercuryPlat/release/AL36V200_SDK.a(ecdsa.o)
 .debug_abbrev  0x000148c1      0x452 ./SysLib/MercuryPlat/release/AL36V200_SDK.a(ecp.o)
 .debug_abbrev  0x00014d13      0x327 ./SysLib/MercuryPlat/release/AL36V200_SDK.a(ecp_curves.o)
 .debug_abbrev  0x0001503a      0x3a8 ./SysLib/MercuryPlat/release/AL36V200_SDK.a(gcm.o)
 .debug_abbrev  0x000153e2      0x2cf ./SysLib/MercuryPlat/release/AL36V200_SDK.a(hmac_drbg.o)
 .debug_abbrev  0x000156b1      0x242 ./SysLib/MercuryPlat/release/AL36V200_SDK.a(pkcs5.o)
 .debug_abbrev  0x000158f3      0x2fc ./SysLib/MercuryPlat/release/AL36V200_SDK.a(pkcs12.o)
 .debug_abbrev  0x00015bef      0x1d4 ./SysLib/MercuryPlat/release/AL36V200_SDK.a(ssl_ciphersuites.o)
 .debug_abbrev  0x00015dc3      0x448 ./SysLib/MercuryPlat/release/AL36V200_SDK.a(ssl_cli.o)
 .debug_abbrev  0x0001620b      0x18b ./SysLib/MercuryPlat/release/AL36V200_SDK.a(arc4.o)
 .debug_abbrev  0x00016396      0x223 ./SysLib/MercuryPlat/release/AL36V200_SDK.a(asn1write.o)
 .debug_abbrev  0x000165b9      0x202 ./SysLib/MercuryPlat/release/AL36V200_SDK.a(camellia.o)
 .debug_abbrev  0x000167bb      0x2df ./SysLib/MercuryPlat/release/AL36V200_SDK.a(ccm.o)
 .debug_abbrev  0x00016a9a      0x3c6 ./SysLib/MercuryPlat/release/libsystem.a(MercuryBarScan.o)
 .debug_abbrev  0x00016e60      0x449 ./SysLib/MercuryPlat/release/libsystem.a(MercuryCom.o)
 .debug_abbrev  0x000172a9      0x300 ./SysLib/MercuryPlat/release/libsystem.a(MercurySec.o)
 .debug_abbrev  0x000175a9      0x37e ./SysLib/MercuryPlat/release/libsystem.a(MercurySpi.o)

.debug_loc      0x00000000    0x67b51
 .debug_loc     0x00000000       0x97 ./SysLib/MercuryPlat/release/libsystem.a(main_entry.o)
 .debug_loc     0x00000097      0xca8 ./SysLib/MercuryPlat/release/libsystem.a(MercuryCSTD.o)
 .debug_loc     0x00000d3f      0x50c .//build/MainApp/release/lib\libMainApp.a(test_main.o)
 .debug_loc     0x0000124b      0x6ba .//build/MainApp/release/lib\libMainApp.a(keypad.o)
 .debug_loc     0x00001905       0xb6 .//build/MainApp/release/lib\libMainApp.a(transactions.o)
 .debug_loc     0x000019bb      0x21c .//build/MainApp/release/lib\libMainApp.a(wifi.o)
 .debug_loc     0x00001bd7      0x1b7 .//build/MainApp/release/lib\libMainApp.a(app_system.o)
 .debug_loc     0x00001d8e     0x291e .//build/MainApp/release/lib\libMainApp.a(push_msg_parse.o)
 .debug_loc     0x000046ac      0x13c .//build/MainApp/release/lib\libMainApp.a(app_config.o)
 .debug_loc     0x000047e8      0x4bb .//build/MainApp/release/lib\libMainApp.a(connect_mqtt_soundbox_server.o)
 .debug_loc     0x00004ca3      0x197 .//build/MainApp/release/lib\libMainApp.a(app_qrcode.o)
 .debug_loc     0x00004e3a       0x5d .//build/MainApp/release/lib\libMainApp.a(device.o)
 .debug_loc     0x00004e97      0x935 .//build/MainApp/release/lib\libMainApp.a(app_fota.o)
 .debug_loc     0x000057cc     0x1569 .//build/MainApp/release/lib\libMainApp.a(temp.o)
 .debug_loc     0x00006d35      0x801 .//build/MainApp/release/lib\libMainApp.a(app_audio.o)
 .debug_loc     0x00007536      0x440 .//build/MainApp/release/lib\libMainApp.a(data_parser.o)
 .debug_loc     0x00007976      0x1e2 .//build/MainApp/release/lib\libMainApp.a(app_power.o)
 .debug_loc     0x00007b58      0x4a1 ./SysLib/MercuryPlat/release/libsystem.a(MercuryAudio.o)
 .debug_loc     0x00007ff9       0x42 ./SysLib/MercuryPlat/release/libsystem.a(MercuryBattery.o)
 .debug_loc     0x0000803b     0x166d ./SysLib/MercuryPlat/release/libsystem.a(MercuryFile.o)
 .debug_loc     0x000096a8      0x9a4 ./SysLib/MercuryPlat/release/libsystem.a(MercuryFota.o)
 .debug_loc     0x0000a04c      0x3b5 ./SysLib/MercuryPlat/release/libsystem.a(MercuryGpio.o)
 .debug_loc     0x0000a401      0x984 ./SysLib/MercuryPlat/release/libsystem.a(MercuryGraphics.o)
 .debug_loc     0x0000ad85      0x1e8 ./SysLib/MercuryPlat/release/libsystem.a(MercuryKeypad.o)
 .debug_loc     0x0000af6d      0x262 ./SysLib/MercuryPlat/release/libsystem.a(MercuryMem.o)
 .debug_loc     0x0000b1cf      0x3cf ./SysLib/MercuryPlat/release/libsystem.a(MercuryNLed.o)
 .debug_loc     0x0000b59e     0x2063 ./SysLib/MercuryPlat/release/libsystem.a(MercuryNet.o)
 .debug_loc     0x0000d601      0x4ba ./SysLib/MercuryPlat/release/libsystem.a(MercuryNv.o)
 .debug_loc     0x0000dabb      0x475 ./SysLib/MercuryPlat/release/libsystem.a(MercuryPlat.o)
 .debug_loc     0x0000df30      0x471 ./SysLib/MercuryPlat/release/libsystem.a(MercuryPowerManager.o)
 .debug_loc     0x0000e3a1      0x9bc ./SysLib/MercuryPlat/release/libsystem.a(MercurySyn.o)
 .debug_loc     0x0000ed5d      0x5ff ./SysLib/MercuryPlat/release/libsystem.a(MercuryThread.o)
 .debug_loc     0x0000f35c      0x4ab ./SysLib/MercuryPlat/release/libsystem.a(MercuryTimer.o)
 .debug_loc     0x0000f807      0x44e ./SysLib/MercuryPlat/release/libsystem.a(MercuryTts.o)
 .debug_loc     0x0000fc55      0x877 ./SysLib/MercuryPlat/release/AL36V200_SDK.a(QYY_API_FOTA.o)
 .debug_loc     0x000104cc      0x4fe ./SysLib/MercuryPlat/release/AL36V200_SDK.a(QYY_API_POWER.o)
 .debug_loc     0x000109ca      0x517 ./SysLib/MercuryPlat/release/AL36V200_SDK.a(QYY_API_BCS_DISPLAY.o)
 .debug_loc     0x00010ee1     0x1d15 ./SysLib/MercuryPlat/release/AL36V200_SDK.a(qyy_to_sdk.o)
 .debug_loc     0x00012bf6      0x7ba ./SysLib/MercuryPlat/release/AL36V200_SDK.a(gpio.o)
 .debug_loc     0x000133b0      0x643 ./SysLib/MercuryPlat/release/AL36V200_SDK.a(keypad.o)
 .debug_loc     0x000139f3      0xa6f ./SysLib/MercuryPlat/release/AL36V200_SDK.a(lcddrv.o)
 .debug_loc     0x00014462      0x89b ./SysLib/MercuryPlat/release/AL36V200_SDK.a(bcs_lcddrv.o)
 .debug_loc     0x00014cfd      0xd5b ./SysLib/MercuryPlat/release/AL36V200_SDK.a(http.o)
 .debug_loc     0x00015a58     0x235f ./SysLib/MercuryPlat/release/AL36V200_SDK.a(http_parser.o)
 .debug_loc     0x00017db7     0x1b0a ./SysLib/MercuryPlat/release/AL36V200_SDK.a(http_post.o)
 .debug_loc     0x000198c1     0x2749 ./SysLib/MercuryPlat/release/AL36V200_SDK.a(cjson.o)
 .debug_loc     0x0001c00a      0x2f1 ./SysLib/MercuryPlat/release/AL36V200_SDK.a(utf2gb.o)
 .debug_loc     0x0001c2fb     0x1005 ./SysLib/MercuryPlat/release/AL36V200_SDK.a(gprs_tcp.o)
 .debug_loc     0x0001d300      0x6e2 ./SysLib/MercuryPlat/release/AL36V200_SDK.a(tcp.o)
 .debug_loc     0x0001d9e2     0x2d2d ./SysLib/MercuryPlat/release/AL36V200_SDK.a(wifi_tcp.o)
 .debug_loc     0x0002070f      0x106 ./SysLib/MercuryPlat/release/AL36V200_SDK.a(amoi_memory.o)
 .debug_loc     0x00020815      0x561 ./SysLib/MercuryPlat/release/AL36V200_SDK.a(base64.o)
 .debug_loc     0x00020d76     0x14e4 ./SysLib/MercuryPlat/release/AL36V200_SDK.a(md5.o)
 .debug_loc     0x0002225a      0xa6c ./SysLib/MercuryPlat/release/AL36V200_SDK.a(sha256.o)
 .debug_loc     0x00022cc6      0x728 ./SysLib/MercuryPlat/release/AL36V200_SDK.a(tls.o)
 .debug_loc     0x000233ee     0x36d0 ./SysLib/MercuryPlat/release/AL36V200_SDK.a(x509_crt.o)
 .debug_loc     0x00026abe     0x1071 ./SysLib/MercuryPlat/release/AL36V200_SDK.a(QYY_API_AUDIO.o)
 .debug_loc     0x00027b2f       0xd0 ./SysLib/MercuryPlat/release/AL36V200_SDK.a(QYY_API_LED.o)
 .debug_loc     0x00027bff      0xa96 ./SysLib/MercuryPlat/release/AL36V200_SDK.a(QYY_API_MQTT.o)
 .debug_loc     0x00028695      0x9b3 ./SysLib/MercuryPlat/release/AL36V200_SDK.a(QYY_API_SYS.o)
 .debug_loc     0x00029048      0x58a ./SysLib/MercuryPlat/release/AL36V200_SDK.a(QYY_API_TCP.o)
 .debug_loc     0x000295d2      0x785 ./SysLib/MercuryPlat/release/AL36V200_SDK.a(QYY_API_URLEN.o)
 .debug_loc     0x00029d57       0xa5 ./SysLib/MercuryPlat/release/AL36V200_SDK.a(QYY_API_HMAC.o)
 .debug_loc     0x00029dfc      0x47a ./SysLib/MercuryPlat/release/AL36V200_SDK.a(QYY_API_NTP.o)
 .debug_loc     0x0002a276     0x1422 ./SysLib/MercuryPlat/release/AL36V200_SDK.a(QYY_API_DISPLAY.o)
 .debug_loc     0x0002b698      0x107 ./SysLib/MercuryPlat/release/AL36V200_SDK.a(QYY_API_FS.o)
 .debug_loc     0x0002b79f      0x2c8 ./SysLib/MercuryPlat/release/AL36V200_SDK.a(atthread.o)
 .debug_loc     0x0002ba67       0x74 ./SysLib/MercuryPlat/release/AL36V200_SDK.a(amp_ctl.o)
 .debug_loc     0x0002badb      0x5eb ./SysLib/MercuryPlat/release/AL36V200_SDK.a(MQTTFormat.o)
 .debug_loc     0x0002c0c6     0x1292 ./SysLib/MercuryPlat/release/AL36V200_SDK.a(MQTTClient.o)
 .debug_loc     0x0002d358      0x528 ./SysLib/MercuryPlat/release/AL36V200_SDK.a(MQTTFreeRTOS.o)
 .debug_loc     0x0002d880      0x7f7 ./SysLib/MercuryPlat/release/AL36V200_SDK.a(asn1parse.o)
 .debug_loc     0x0002e077     0x4547 ./SysLib/MercuryPlat/release/AL36V200_SDK.a(bignum.o)
 .debug_loc     0x000325be      0x919 ./SysLib/MercuryPlat/release/AL36V200_SDK.a(ctr_drbg.o)
 .debug_loc     0x00032ed7      0x62c ./SysLib/MercuryPlat/release/AL36V200_SDK.a(entropy.o)
 .debug_loc     0x00033503      0x1fc ./SysLib/MercuryPlat/release/AL36V200_SDK.a(error.o)
 .debug_loc     0x000336ff      0x93a ./SysLib/MercuryPlat/release/AL36V200_SDK.a(md.o)
 .debug_loc     0x00034039      0x9e9 ./SysLib/MercuryPlat/release/AL36V200_SDK.a(md_wrap.o)
 .debug_loc     0x00034a22      0x3f6 ./SysLib/MercuryPlat/release/AL36V200_SDK.a(net.o)
 .debug_loc     0x00034e18      0xaf9 ./SysLib/MercuryPlat/release/AL36V200_SDK.a(oid.o)
 .debug_loc     0x00035911      0xc4e ./SysLib/MercuryPlat/release/AL36V200_SDK.a(pem.o)
 .debug_loc     0x0003655f      0xf2e ./SysLib/MercuryPlat/release/AL36V200_SDK.a(pk.o)
 .debug_loc     0x0003748d     0x106e ./SysLib/MercuryPlat/release/AL36V200_SDK.a(pk_wrap.o)
 .debug_loc     0x000384fb     0x135c ./SysLib/MercuryPlat/release/AL36V200_SDK.a(pkparse.o)
 .debug_loc     0x00039857     0x2c6b ./SysLib/MercuryPlat/release/AL36V200_SDK.a(ripemd160.o)
 .debug_loc     0x0003c4c2     0x2f63 ./SysLib/MercuryPlat/release/AL36V200_SDK.a(rsa.o)
 .debug_loc     0x0003f425     0x5acc ./SysLib/MercuryPlat/release/AL36V200_SDK.a(sha1.o)
 .debug_loc     0x00044ef1      0xb33 ./SysLib/MercuryPlat/release/AL36V200_SDK.a(sha512.o)
 .debug_loc     0x00045a24     0x4139 ./SysLib/MercuryPlat/release/AL36V200_SDK.a(ssl_tls.o)
 .debug_loc     0x00049b5d     0x11a7 ./SysLib/MercuryPlat/release/AL36V200_SDK.a(x509.o)
 .debug_loc     0x0004ad04      0x3cc ./SysLib/MercuryPlat/release/AL36V200_SDK.a(MQTTConnectClient.o)
 .debug_loc     0x0004b0d0      0x1dd ./SysLib/MercuryPlat/release/AL36V200_SDK.a(MQTTDeserializePublish.o)
 .debug_loc     0x0004b2ad      0x85d ./SysLib/MercuryPlat/release/AL36V200_SDK.a(MQTTPacket.o)
 .debug_loc     0x0004bb0a      0x3ac ./SysLib/MercuryPlat/release/AL36V200_SDK.a(MQTTSerializePublish.o)
 .debug_loc     0x0004beb6      0x32d ./SysLib/MercuryPlat/release/AL36V200_SDK.a(MQTTSubscribeClient.o)
 .debug_loc     0x0004c1e3      0x26c ./SysLib/MercuryPlat/release/AL36V200_SDK.a(MQTTUnsubscribeClient.o)
 .debug_loc     0x0004c44f       0x57 ./SysLib/MercuryPlat/release/AL36V200_SDK.a(ac35_hardware.o)
 .debug_loc     0x0004c4a6     0x19c0 ./SysLib/MercuryPlat/release/AL36V200_SDK.a(aes.o)
 .debug_loc     0x0004de66     0x1949 ./SysLib/MercuryPlat/release/AL36V200_SDK.a(cipher.o)
 .debug_loc     0x0004f7af      0xf71 ./SysLib/MercuryPlat/release/AL36V200_SDK.a(cipher_wrap.o)
 .debug_loc     0x00050720      0xa53 ./SysLib/MercuryPlat/release/AL36V200_SDK.a(debug.o)
 .debug_loc     0x00051173     0x5099 ./SysLib/MercuryPlat/release/AL36V200_SDK.a(des.o)
 .debug_loc     0x0005620c      0xc2d ./SysLib/MercuryPlat/release/AL36V200_SDK.a(dhm.o)
 .debug_loc     0x00056e39      0x9f2 ./SysLib/MercuryPlat/release/AL36V200_SDK.a(ecdh.o)
 .debug_loc     0x0005782b      0xdf8 ./SysLib/MercuryPlat/release/AL36V200_SDK.a(ecdsa.o)
 .debug_loc     0x00058623     0x3efe ./SysLib/MercuryPlat/release/AL36V200_SDK.a(ecp.o)
 .debug_loc     0x0005c521     0x1e24 ./SysLib/MercuryPlat/release/AL36V200_SDK.a(ecp_curves.o)
 .debug_loc     0x0005e345      0xe96 ./SysLib/MercuryPlat/release/AL36V200_SDK.a(gcm.o)
 .debug_loc     0x0005f1db      0x611 ./SysLib/MercuryPlat/release/AL36V200_SDK.a(hmac_drbg.o)
 .debug_loc     0x0005f7ec      0x5d9 ./SysLib/MercuryPlat/release/AL36V200_SDK.a(pkcs5.o)
 .debug_loc     0x0005fdc5      0xcaf ./SysLib/MercuryPlat/release/AL36V200_SDK.a(pkcs12.o)
 .debug_loc     0x00060a74      0x1e8 ./SysLib/MercuryPlat/release/AL36V200_SDK.a(ssl_ciphersuites.o)
 .debug_loc     0x00060c5c     0x3013 ./SysLib/MercuryPlat/release/AL36V200_SDK.a(ssl_cli.o)
 .debug_loc     0x00063c6f      0x1f3 ./SysLib/MercuryPlat/release/AL36V200_SDK.a(arc4.o)
 .debug_loc     0x00063e62      0xe5b ./SysLib/MercuryPlat/release/AL36V200_SDK.a(asn1write.o)
 .debug_loc     0x00064cbd      0xbf9 ./SysLib/MercuryPlat/release/AL36V200_SDK.a(camellia.o)
 .debug_loc     0x000658b6      0x9de ./SysLib/MercuryPlat/release/AL36V200_SDK.a(ccm.o)
 .debug_loc     0x00066294      0x67e ./SysLib/MercuryPlat/release/libsystem.a(MercuryBarScan.o)
 .debug_loc     0x00066912      0x967 ./SysLib/MercuryPlat/release/libsystem.a(MercuryCom.o)
 .debug_loc     0x00067279      0x1e6 ./SysLib/MercuryPlat/release/libsystem.a(MercurySec.o)
 .debug_loc     0x0006745f      0x6f2 ./SysLib/MercuryPlat/release/libsystem.a(MercurySpi.o)

.debug_aranges  0x00000000     0x5090
 .debug_aranges
                0x00000000       0x30 ./SysLib/MercuryPlat/release/libsystem.a(main_entry.o)
 .debug_aranges
                0x00000030      0x1d8 ./SysLib/MercuryPlat/release/libsystem.a(MercuryCSTD.o)
 .debug_aranges
                0x00000208       0x68 .//build/MainApp/release/lib\libMainApp.a(test_main.o)
 .debug_aranges
                0x00000270      0x110 .//build/MainApp/release/lib\libMainApp.a(keypad.o)
 .debug_aranges
                0x00000380       0x20 .//build/MainApp/release/lib\libMainApp.a(transactions.o)
 .debug_aranges
                0x000003a0       0x50 .//build/MainApp/release/lib\libMainApp.a(wifi.o)
 .debug_aranges
                0x000003f0       0x30 .//build/MainApp/release/lib\libMainApp.a(app_system.o)
 .debug_aranges
                0x00000420      0x150 .//build/MainApp/release/lib\libMainApp.a(push_msg_parse.o)
 .debug_aranges
                0x00000570       0xa0 .//build/MainApp/release/lib\libMainApp.a(app_config.o)
 .debug_aranges
                0x00000610       0xa0 .//build/MainApp/release/lib\libMainApp.a(connect_mqtt_soundbox_server.o)
 .debug_aranges
                0x000006b0       0x18 .//build/MainApp/release/lib\libMainApp.a(24_24_lcd.o)
 .debug_aranges
                0x000006c8       0x58 .//build/MainApp/release/lib\libMainApp.a(led.o)
 .debug_aranges
                0x00000720       0x58 .//build/MainApp/release/lib\libMainApp.a(app_qrcode.o)
 .debug_aranges
                0x00000778       0x38 .//build/MainApp/release/lib\libMainApp.a(device.o)
 .debug_aranges
                0x000007b0       0x58 .//build/MainApp/release/lib\libMainApp.a(app_fota.o)
 .debug_aranges
                0x00000808      0x148 .//build/MainApp/release/lib\libMainApp.a(temp.o)
 .debug_aranges
                0x00000950       0x88 .//build/MainApp/release/lib\libMainApp.a(app_audio.o)
 .debug_aranges
                0x000009d8       0x18 .//build/MainApp/release/lib\libMainApp.a(global.o)
 .debug_aranges
                0x000009f0       0x38 .//build/MainApp/release/lib\libMainApp.a(data_parser.o)
 .debug_aranges
                0x00000a28       0x68 .//build/MainApp/release/lib\libMainApp.a(app_power.o)
 .debug_aranges
                0x00000a90       0xd0 ./SysLib/MercuryPlat/release/libsystem.a(MercuryAudio.o)
 .debug_aranges
                0x00000b60       0x20 ./SysLib/MercuryPlat/release/libsystem.a(MercuryBattery.o)
 .debug_aranges
                0x00000b80      0x110 ./SysLib/MercuryPlat/release/libsystem.a(MercuryFile.o)
 .debug_aranges
                0x00000c90       0xf8 ./SysLib/MercuryPlat/release/libsystem.a(MercuryFota.o)
 .debug_aranges
                0x00000d88       0xa0 ./SysLib/MercuryPlat/release/libsystem.a(MercuryGpio.o)
 .debug_aranges
                0x00000e28      0x120 ./SysLib/MercuryPlat/release/libsystem.a(MercuryGraphics.o)
 .debug_aranges
                0x00000f48       0x68 ./SysLib/MercuryPlat/release/libsystem.a(MercuryKeypad.o)
 .debug_aranges
                0x00000fb0       0x40 ./SysLib/MercuryPlat/release/libsystem.a(MercuryMem.o)
 .debug_aranges
                0x00000ff0       0x60 ./SysLib/MercuryPlat/release/libsystem.a(MercuryNLed.o)
 .debug_aranges
                0x00001050      0x380 ./SysLib/MercuryPlat/release/libsystem.a(MercuryNet.o)
 .debug_aranges
                0x000013d0       0x80 ./SysLib/MercuryPlat/release/libsystem.a(MercuryNv.o)
 .debug_aranges
                0x00001450       0xf0 ./SysLib/MercuryPlat/release/libsystem.a(MercuryPlat.o)
 .debug_aranges
                0x00001540      0x100 ./SysLib/MercuryPlat/release/libsystem.a(MercuryPowerManager.o)
 .debug_aranges
                0x00001640       0xe8 ./SysLib/MercuryPlat/release/libsystem.a(MercurySyn.o)
 .debug_aranges
                0x00001728       0xb0 ./SysLib/MercuryPlat/release/libsystem.a(MercuryThread.o)
 .debug_aranges
                0x000017d8       0x90 ./SysLib/MercuryPlat/release/libsystem.a(MercuryTimer.o)
 .debug_aranges
                0x00001868       0x98 ./SysLib/MercuryPlat/release/libsystem.a(MercuryTts.o)
 .debug_aranges
                0x00001900       0x78 ./SysLib/MercuryPlat/release/AL36V200_SDK.a(QYY_API_FOTA.o)
 .debug_aranges
                0x00001978       0x60 ./SysLib/MercuryPlat/release/AL36V200_SDK.a(QYY_API_POWER.o)
 .debug_aranges
                0x000019d8       0x90 ./SysLib/MercuryPlat/release/AL36V200_SDK.a(QYY_API_BCS_DISPLAY.o)
 .debug_aranges
                0x00001a68      0x470 ./SysLib/MercuryPlat/release/AL36V200_SDK.a(qyy_to_sdk.o)
 .debug_aranges
                0x00001ed8       0x90 ./SysLib/MercuryPlat/release/AL36V200_SDK.a(gpio.o)
 .debug_aranges
                0x00001f68       0x98 ./SysLib/MercuryPlat/release/AL36V200_SDK.a(keypad.o)
 .debug_aranges
                0x00002000       0xc8 ./SysLib/MercuryPlat/release/AL36V200_SDK.a(lcddrv.o)
 .debug_aranges
                0x000020c8       0x98 ./SysLib/MercuryPlat/release/AL36V200_SDK.a(bcs_lcddrv.o)
 .debug_aranges
                0x00002160       0xf8 ./SysLib/MercuryPlat/release/AL36V200_SDK.a(http.o)
 .debug_aranges
                0x00002258       0x80 ./SysLib/MercuryPlat/release/AL36V200_SDK.a(http_parser.o)
 .debug_aranges
                0x000022d8       0x98 ./SysLib/MercuryPlat/release/AL36V200_SDK.a(http_post.o)
 .debug_aranges
                0x00002370      0x170 ./SysLib/MercuryPlat/release/AL36V200_SDK.a(cjson.o)
 .debug_aranges
                0x000024e0       0x30 ./SysLib/MercuryPlat/release/AL36V200_SDK.a(utf2gb.o)
 .debug_aranges
                0x00002510       0xe8 ./SysLib/MercuryPlat/release/AL36V200_SDK.a(gprs_tcp.o)
 .debug_aranges
                0x000025f8       0xa8 ./SysLib/MercuryPlat/release/AL36V200_SDK.a(tcp.o)
 .debug_aranges
                0x000026a0      0x200 ./SysLib/MercuryPlat/release/AL36V200_SDK.a(wifi_tcp.o)
 .debug_aranges
                0x000028a0       0x38 ./SysLib/MercuryPlat/release/AL36V200_SDK.a(amoi_memory.o)
 .debug_aranges
                0x000028d8       0x28 ./SysLib/MercuryPlat/release/AL36V200_SDK.a(base64.o)
 .debug_aranges
                0x00002900       0x60 ./SysLib/MercuryPlat/release/AL36V200_SDK.a(md5.o)
 .debug_aranges
                0x00002960       0x60 ./SysLib/MercuryPlat/release/AL36V200_SDK.a(sha256.o)
 .debug_aranges
                0x000029c0       0x70 ./SysLib/MercuryPlat/release/AL36V200_SDK.a(tls.o)
 .debug_aranges
                0x00002a30       0xc0 ./SysLib/MercuryPlat/release/AL36V200_SDK.a(x509_crt.o)
 .debug_aranges
                0x00002af0      0x148 ./SysLib/MercuryPlat/release/AL36V200_SDK.a(QYY_API_AUDIO.o)
 .debug_aranges
                0x00002c38       0x30 ./SysLib/MercuryPlat/release/AL36V200_SDK.a(QYY_API_LED.o)
 .debug_aranges
                0x00002c68       0x78 ./SysLib/MercuryPlat/release/AL36V200_SDK.a(QYY_API_MQTT.o)
 .debug_aranges
                0x00002ce0      0x130 ./SysLib/MercuryPlat/release/AL36V200_SDK.a(QYY_API_SYS.o)
 .debug_aranges
                0x00002e10       0x40 ./SysLib/MercuryPlat/release/AL36V200_SDK.a(QYY_API_TCP.o)
 .debug_aranges
                0x00002e50       0x58 ./SysLib/MercuryPlat/release/AL36V200_SDK.a(QYY_API_URLEN.o)
 .debug_aranges
                0x00002ea8       0x20 ./SysLib/MercuryPlat/release/AL36V200_SDK.a(QYY_API_HMAC.o)
 .debug_aranges
                0x00002ec8       0x40 ./SysLib/MercuryPlat/release/AL36V200_SDK.a(QYY_API_NTP.o)
 .debug_aranges
                0x00002f08       0xe0 ./SysLib/MercuryPlat/release/AL36V200_SDK.a(QYY_API_DISPLAY.o)
 .debug_aranges
                0x00002fe8       0x28 ./SysLib/MercuryPlat/release/AL36V200_SDK.a(QYY_API_FS.o)
 .debug_aranges
                0x00003010       0x80 ./SysLib/MercuryPlat/release/AL36V200_SDK.a(atthread.o)
 .debug_aranges
                0x00003090       0x28 ./SysLib/MercuryPlat/release/AL36V200_SDK.a(amp_ctl.o)
 .debug_aranges
                0x000030b8       0x30 ./SysLib/MercuryPlat/release/AL36V200_SDK.a(device.o)
 .debug_aranges
                0x000030e8       0x28 ./SysLib/MercuryPlat/release/AL36V200_SDK.a(se_wifi_reset.o)
 .debug_aranges
                0x00003110       0x60 ./SysLib/MercuryPlat/release/AL36V200_SDK.a(MQTTFormat.o)
 .debug_aranges
                0x00003170       0xb8 ./SysLib/MercuryPlat/release/AL36V200_SDK.a(MQTTClient.o)
 .debug_aranges
                0x00003228       0x90 ./SysLib/MercuryPlat/release/AL36V200_SDK.a(MQTTFreeRTOS.o)
 .debug_aranges
                0x000032b8       0x18 ./SysLib/MercuryPlat/release/AL36V200_SDK.a(cp936.o)
 .debug_aranges
                0x000032d0       0x80 ./SysLib/MercuryPlat/release/AL36V200_SDK.a(asn1parse.o)
 .debug_aranges
                0x00003350      0x1a0 ./SysLib/MercuryPlat/release/AL36V200_SDK.a(bignum.o)
 .debug_aranges
                0x000034f0       0x80 ./SysLib/MercuryPlat/release/AL36V200_SDK.a(ctr_drbg.o)
 .debug_aranges
                0x00003570       0x58 ./SysLib/MercuryPlat/release/AL36V200_SDK.a(entropy.o)
 .debug_aranges
                0x000035c8       0x20 ./SysLib/MercuryPlat/release/AL36V200_SDK.a(error.o)
 .debug_aranges
                0x000035e8       0xc0 ./SysLib/MercuryPlat/release/AL36V200_SDK.a(md.o)
 .debug_aranges
                0x000036a8      0x160 ./SysLib/MercuryPlat/release/AL36V200_SDK.a(md_wrap.o)
 .debug_aranges
                0x00003808       0x50 ./SysLib/MercuryPlat/release/AL36V200_SDK.a(net.o)
 .debug_aranges
                0x00003858       0x98 ./SysLib/MercuryPlat/release/AL36V200_SDK.a(oid.o)
 .debug_aranges
                0x000038f0       0x60 ./SysLib/MercuryPlat/release/AL36V200_SDK.a(pem.o)
 .debug_aranges
                0x00003950       0x98 ./SysLib/MercuryPlat/release/AL36V200_SDK.a(pk.o)
 .debug_aranges
                0x000039e8      0x110 ./SysLib/MercuryPlat/release/AL36V200_SDK.a(pk_wrap.o)
 .debug_aranges
                0x00003af8       0x60 ./SysLib/MercuryPlat/release/AL36V200_SDK.a(pkparse.o)
 .debug_aranges
                0x00003b58       0x60 ./SysLib/MercuryPlat/release/AL36V200_SDK.a(ripemd160.o)
 .debug_aranges
                0x00003bb8       0xd8 ./SysLib/MercuryPlat/release/AL36V200_SDK.a(rsa.o)
 .debug_aranges
                0x00003c90       0x60 ./SysLib/MercuryPlat/release/AL36V200_SDK.a(sha1.o)
 .debug_aranges
                0x00003cf0       0x60 ./SysLib/MercuryPlat/release/AL36V200_SDK.a(sha512.o)
 .debug_aranges
                0x00003d50      0x3c0 ./SysLib/MercuryPlat/release/AL36V200_SDK.a(ssl_tls.o)
 .debug_aranges
                0x00004110       0x90 ./SysLib/MercuryPlat/release/AL36V200_SDK.a(x509.o)
 .debug_aranges
                0x000041a0       0x48 ./SysLib/MercuryPlat/release/AL36V200_SDK.a(MQTTConnectClient.o)
 .debug_aranges
                0x000041e8       0x28 ./SysLib/MercuryPlat/release/AL36V200_SDK.a(MQTTDeserializePublish.o)
 .debug_aranges
                0x00004210       0xa0 ./SysLib/MercuryPlat/release/AL36V200_SDK.a(MQTTPacket.o)
 .debug_aranges
                0x000042b0       0x48 ./SysLib/MercuryPlat/release/AL36V200_SDK.a(MQTTSerializePublish.o)
 .debug_aranges
                0x000042f8       0x30 ./SysLib/MercuryPlat/release/AL36V200_SDK.a(MQTTSubscribeClient.o)
 .debug_aranges
                0x00004328       0x30 ./SysLib/MercuryPlat/release/AL36V200_SDK.a(MQTTUnsubscribeClient.o)
 .debug_aranges
                0x00004358       0x20 ./SysLib/MercuryPlat/release/AL36V200_SDK.a(ac35_hardware.o)
 .debug_aranges
                0x00004378       0x78 ./SysLib/MercuryPlat/release/AL36V200_SDK.a(aes.o)
 .debug_aranges
                0x000043f0      0x100 ./SysLib/MercuryPlat/release/AL36V200_SDK.a(cipher.o)
 .debug_aranges
                0x000044f0      0x168 ./SysLib/MercuryPlat/release/AL36V200_SDK.a(cipher_wrap.o)
 .debug_aranges
                0x00004658       0x60 ./SysLib/MercuryPlat/release/AL36V200_SDK.a(debug.o)
 .debug_aranges
                0x000046b8       0xc0 ./SysLib/MercuryPlat/release/AL36V200_SDK.a(des.o)
 .debug_aranges
                0x00004778       0x68 ./SysLib/MercuryPlat/release/AL36V200_SDK.a(dhm.o)
 .debug_aranges
                0x000047e0       0x68 ./SysLib/MercuryPlat/release/AL36V200_SDK.a(ecdh.o)
 .debug_aranges
                0x00004848       0x70 ./SysLib/MercuryPlat/release/AL36V200_SDK.a(ecdsa.o)
 .debug_aranges
                0x000048b8      0x170 ./SysLib/MercuryPlat/release/AL36V200_SDK.a(ecp.o)
 .debug_aranges
                0x00004a28       0x90 ./SysLib/MercuryPlat/release/AL36V200_SDK.a(ecp_curves.o)
 .debug_aranges
                0x00004ab8       0x60 ./SysLib/MercuryPlat/release/AL36V200_SDK.a(gcm.o)
 .debug_aranges
                0x00004b18       0x70 ./SysLib/MercuryPlat/release/AL36V200_SDK.a(hmac_drbg.o)
 .debug_aranges
                0x00004b88       0x28 ./SysLib/MercuryPlat/release/AL36V200_SDK.a(pkcs5.o)
 .debug_aranges
                0x00004bb0       0x40 ./SysLib/MercuryPlat/release/AL36V200_SDK.a(pkcs12.o)
 .debug_aranges
                0x00004bf0       0x58 ./SysLib/MercuryPlat/release/AL36V200_SDK.a(ssl_ciphersuites.o)
 .debug_aranges
                0x00004c48       0x40 ./SysLib/MercuryPlat/release/AL36V200_SDK.a(ssl_cli.o)
 .debug_aranges
                0x00004c88       0x38 ./SysLib/MercuryPlat/release/AL36V200_SDK.a(arc4.o)
 .debug_aranges
                0x00004cc0       0x88 ./SysLib/MercuryPlat/release/AL36V200_SDK.a(asn1write.o)
 .debug_aranges
                0x00004d48       0x60 ./SysLib/MercuryPlat/release/AL36V200_SDK.a(camellia.o)
 .debug_aranges
                0x00004da8       0x48 ./SysLib/MercuryPlat/release/AL36V200_SDK.a(ccm.o)
 .debug_aranges
                0x00004df0      0x108 ./SysLib/MercuryPlat/release/libsystem.a(MercuryBarScan.o)
 .debug_aranges
                0x00004ef8       0xe0 ./SysLib/MercuryPlat/release/libsystem.a(MercuryCom.o)
 .debug_aranges
                0x00004fd8       0x38 ./SysLib/MercuryPlat/release/libsystem.a(MercurySec.o)
 .debug_aranges
                0x00005010       0x80 ./SysLib/MercuryPlat/release/libsystem.a(MercurySpi.o)

.debug_ranges   0x00000000     0x7938
 .debug_ranges  0x00000000       0x20 ./SysLib/MercuryPlat/release/libsystem.a(main_entry.o)
 .debug_ranges  0x00000020      0x1c8 ./SysLib/MercuryPlat/release/libsystem.a(MercuryCSTD.o)
 .debug_ranges  0x000001e8       0xe8 .//build/MainApp/release/lib\libMainApp.a(test_main.o)
 .debug_ranges  0x000002d0      0x210 .//build/MainApp/release/lib\libMainApp.a(keypad.o)
 .debug_ranges  0x000004e0       0x10 .//build/MainApp/release/lib\libMainApp.a(transactions.o)
 .debug_ranges  0x000004f0       0xa8 .//build/MainApp/release/lib\libMainApp.a(wifi.o)
 .debug_ranges  0x00000598       0x20 .//build/MainApp/release/lib\libMainApp.a(app_system.o)
 .debug_ranges  0x000005b8      0x318 .//build/MainApp/release/lib\libMainApp.a(push_msg_parse.o)
 .debug_ranges  0x000008d0       0x90 .//build/MainApp/release/lib\libMainApp.a(app_config.o)
 .debug_ranges  0x00000960      0x148 .//build/MainApp/release/lib\libMainApp.a(connect_mqtt_soundbox_server.o)
 .debug_ranges  0x00000aa8       0x48 .//build/MainApp/release/lib\libMainApp.a(led.o)
 .debug_ranges  0x00000af0       0x78 .//build/MainApp/release/lib\libMainApp.a(app_qrcode.o)
 .debug_ranges  0x00000b68       0x50 .//build/MainApp/release/lib\libMainApp.a(device.o)
 .debug_ranges  0x00000bb8       0x90 .//build/MainApp/release/lib\libMainApp.a(app_fota.o)
 .debug_ranges  0x00000c48      0x200 .//build/MainApp/release/lib\libMainApp.a(temp.o)
 .debug_ranges  0x00000e48       0x90 .//build/MainApp/release/lib\libMainApp.a(app_audio.o)
 .debug_ranges  0x00000ed8       0x40 .//build/MainApp/release/lib\libMainApp.a(data_parser.o)
 .debug_ranges  0x00000f18       0x58 .//build/MainApp/release/lib\libMainApp.a(app_power.o)
 .debug_ranges  0x00000f70       0xc0 ./SysLib/MercuryPlat/release/libsystem.a(MercuryAudio.o)
 .debug_ranges  0x00001030       0x10 ./SysLib/MercuryPlat/release/libsystem.a(MercuryBattery.o)
 .debug_ranges  0x00001040      0x100 ./SysLib/MercuryPlat/release/libsystem.a(MercuryFile.o)
 .debug_ranges  0x00001140       0xe8 ./SysLib/MercuryPlat/release/libsystem.a(MercuryFota.o)
 .debug_ranges  0x00001228       0x90 ./SysLib/MercuryPlat/release/libsystem.a(MercuryGpio.o)
 .debug_ranges  0x000012b8      0x110 ./SysLib/MercuryPlat/release/libsystem.a(MercuryGraphics.o)
 .debug_ranges  0x000013c8       0x58 ./SysLib/MercuryPlat/release/libsystem.a(MercuryKeypad.o)
 .debug_ranges  0x00001420       0x30 ./SysLib/MercuryPlat/release/libsystem.a(MercuryMem.o)
 .debug_ranges  0x00001450       0x50 ./SysLib/MercuryPlat/release/libsystem.a(MercuryNLed.o)
 .debug_ranges  0x000014a0      0x370 ./SysLib/MercuryPlat/release/libsystem.a(MercuryNet.o)
 .debug_ranges  0x00001810       0x70 ./SysLib/MercuryPlat/release/libsystem.a(MercuryNv.o)
 .debug_ranges  0x00001880       0xe0 ./SysLib/MercuryPlat/release/libsystem.a(MercuryPlat.o)
 .debug_ranges  0x00001960       0xf0 ./SysLib/MercuryPlat/release/libsystem.a(MercuryPowerManager.o)
 .debug_ranges  0x00001a50       0xd8 ./SysLib/MercuryPlat/release/libsystem.a(MercurySyn.o)
 .debug_ranges  0x00001b28       0xa0 ./SysLib/MercuryPlat/release/libsystem.a(MercuryThread.o)
 .debug_ranges  0x00001bc8       0x80 ./SysLib/MercuryPlat/release/libsystem.a(MercuryTimer.o)
 .debug_ranges  0x00001c48       0x88 ./SysLib/MercuryPlat/release/libsystem.a(MercuryTts.o)
 .debug_ranges  0x00001cd0      0x108 ./SysLib/MercuryPlat/release/AL36V200_SDK.a(QYY_API_FOTA.o)
 .debug_ranges  0x00001dd8       0xa0 ./SysLib/MercuryPlat/release/AL36V200_SDK.a(QYY_API_POWER.o)
 .debug_ranges  0x00001e78       0xb0 ./SysLib/MercuryPlat/release/AL36V200_SDK.a(QYY_API_BCS_DISPLAY.o)
 .debug_ranges  0x00001f28      0x460 ./SysLib/MercuryPlat/release/AL36V200_SDK.a(qyy_to_sdk.o)
 .debug_ranges  0x00002388      0x140 ./SysLib/MercuryPlat/release/AL36V200_SDK.a(gpio.o)
 .debug_ranges  0x000024c8       0x88 ./SysLib/MercuryPlat/release/AL36V200_SDK.a(keypad.o)
 .debug_ranges  0x00002550      0x190 ./SysLib/MercuryPlat/release/AL36V200_SDK.a(lcddrv.o)
 .debug_ranges  0x000026e0      0x228 ./SysLib/MercuryPlat/release/AL36V200_SDK.a(bcs_lcddrv.o)
 .debug_ranges  0x00002908      0x180 ./SysLib/MercuryPlat/release/AL36V200_SDK.a(http.o)
 .debug_ranges  0x00002a88      0x210 ./SysLib/MercuryPlat/release/AL36V200_SDK.a(http_parser.o)
 .debug_ranges  0x00002c98      0x250 ./SysLib/MercuryPlat/release/AL36V200_SDK.a(http_post.o)
 .debug_ranges  0x00002ee8      0x268 ./SysLib/MercuryPlat/release/AL36V200_SDK.a(cjson.o)
 .debug_ranges  0x00003150       0x48 ./SysLib/MercuryPlat/release/AL36V200_SDK.a(utf2gb.o)
 .debug_ranges  0x00003198      0x148 ./SysLib/MercuryPlat/release/AL36V200_SDK.a(gprs_tcp.o)
 .debug_ranges  0x000032e0       0x98 ./SysLib/MercuryPlat/release/AL36V200_SDK.a(tcp.o)
 .debug_ranges  0x00003378      0x3e8 ./SysLib/MercuryPlat/release/AL36V200_SDK.a(wifi_tcp.o)
 .debug_ranges  0x00003760       0x28 ./SysLib/MercuryPlat/release/AL36V200_SDK.a(amoi_memory.o)
 .debug_ranges  0x00003788       0x18 ./SysLib/MercuryPlat/release/AL36V200_SDK.a(base64.o)
 .debug_ranges  0x000037a0       0x68 ./SysLib/MercuryPlat/release/AL36V200_SDK.a(md5.o)
 .debug_ranges  0x00003808       0x68 ./SysLib/MercuryPlat/release/AL36V200_SDK.a(sha256.o)
 .debug_ranges  0x00003870       0x60 ./SysLib/MercuryPlat/release/AL36V200_SDK.a(tls.o)
 .debug_ranges  0x000038d0      0x3e0 ./SysLib/MercuryPlat/release/AL36V200_SDK.a(x509_crt.o)
 .debug_ranges  0x00003cb0      0x220 ./SysLib/MercuryPlat/release/AL36V200_SDK.a(QYY_API_AUDIO.o)
 .debug_ranges  0x00003ed0       0x68 ./SysLib/MercuryPlat/release/AL36V200_SDK.a(QYY_API_LED.o)
 .debug_ranges  0x00003f38       0x68 ./SysLib/MercuryPlat/release/AL36V200_SDK.a(QYY_API_MQTT.o)
 .debug_ranges  0x00003fa0      0x1e8 ./SysLib/MercuryPlat/release/AL36V200_SDK.a(QYY_API_SYS.o)
 .debug_ranges  0x00004188       0x30 ./SysLib/MercuryPlat/release/AL36V200_SDK.a(QYY_API_TCP.o)
 .debug_ranges  0x000041b8       0x60 ./SysLib/MercuryPlat/release/AL36V200_SDK.a(QYY_API_URLEN.o)
 .debug_ranges  0x00004218       0x10 ./SysLib/MercuryPlat/release/AL36V200_SDK.a(QYY_API_HMAC.o)
 .debug_ranges  0x00004228       0x30 ./SysLib/MercuryPlat/release/AL36V200_SDK.a(QYY_API_NTP.o)
 .debug_ranges  0x00004258      0x170 ./SysLib/MercuryPlat/release/AL36V200_SDK.a(QYY_API_DISPLAY.o)
 .debug_ranges  0x000043c8       0x18 ./SysLib/MercuryPlat/release/AL36V200_SDK.a(QYY_API_FS.o)
 .debug_ranges  0x000043e0       0xa8 ./SysLib/MercuryPlat/release/AL36V200_SDK.a(atthread.o)
 .debug_ranges  0x00004488       0x18 ./SysLib/MercuryPlat/release/AL36V200_SDK.a(amp_ctl.o)
 .debug_ranges  0x000044a0       0x20 ./SysLib/MercuryPlat/release/AL36V200_SDK.a(device.o)
 .debug_ranges  0x000044c0       0x18 ./SysLib/MercuryPlat/release/AL36V200_SDK.a(se_wifi_reset.o)
 .debug_ranges  0x000044d8       0x50 ./SysLib/MercuryPlat/release/AL36V200_SDK.a(MQTTFormat.o)
 .debug_ranges  0x00004528      0x1b0 ./SysLib/MercuryPlat/release/AL36V200_SDK.a(MQTTClient.o)
 .debug_ranges  0x000046d8       0x80 ./SysLib/MercuryPlat/release/AL36V200_SDK.a(MQTTFreeRTOS.o)
 .debug_ranges  0x00004758       0xb8 ./SysLib/MercuryPlat/release/AL36V200_SDK.a(asn1parse.o)
 .debug_ranges  0x00004810      0x350 ./SysLib/MercuryPlat/release/AL36V200_SDK.a(bignum.o)
 .debug_ranges  0x00004b60       0x88 ./SysLib/MercuryPlat/release/AL36V200_SDK.a(ctr_drbg.o)
 .debug_ranges  0x00004be8       0x78 ./SysLib/MercuryPlat/release/AL36V200_SDK.a(entropy.o)
 .debug_ranges  0x00004c60       0x10 ./SysLib/MercuryPlat/release/AL36V200_SDK.a(error.o)
 .debug_ranges  0x00004c70      0x118 ./SysLib/MercuryPlat/release/AL36V200_SDK.a(md.o)
 .debug_ranges  0x00004d88      0x150 ./SysLib/MercuryPlat/release/AL36V200_SDK.a(md_wrap.o)
 .debug_ranges  0x00004ed8       0x40 ./SysLib/MercuryPlat/release/AL36V200_SDK.a(net.o)
 .debug_ranges  0x00004f18      0x160 ./SysLib/MercuryPlat/release/AL36V200_SDK.a(oid.o)
 .debug_ranges  0x00005078       0x50 ./SysLib/MercuryPlat/release/AL36V200_SDK.a(pem.o)
 .debug_ranges  0x000050c8       0xd0 ./SysLib/MercuryPlat/release/AL36V200_SDK.a(pk.o)
 .debug_ranges  0x00005198      0x118 ./SysLib/MercuryPlat/release/AL36V200_SDK.a(pk_wrap.o)
 .debug_ranges  0x000052b0       0xe0 ./SysLib/MercuryPlat/release/AL36V200_SDK.a(pkparse.o)
 .debug_ranges  0x00005390       0x68 ./SysLib/MercuryPlat/release/AL36V200_SDK.a(ripemd160.o)
 .debug_ranges  0x000053f8      0x118 ./SysLib/MercuryPlat/release/AL36V200_SDK.a(rsa.o)
 .debug_ranges  0x00005510       0x68 ./SysLib/MercuryPlat/release/AL36V200_SDK.a(sha1.o)
 .debug_ranges  0x00005578       0x68 ./SysLib/MercuryPlat/release/AL36V200_SDK.a(sha512.o)
 .debug_ranges  0x000055e0      0x7d0 ./SysLib/MercuryPlat/release/AL36V200_SDK.a(ssl_tls.o)
 .debug_ranges  0x00005db0      0x110 ./SysLib/MercuryPlat/release/AL36V200_SDK.a(x509.o)
 .debug_ranges  0x00005ec0       0x38 ./SysLib/MercuryPlat/release/AL36V200_SDK.a(MQTTConnectClient.o)
 .debug_ranges  0x00005ef8       0x18 ./SysLib/MercuryPlat/release/AL36V200_SDK.a(MQTTDeserializePublish.o)
 .debug_ranges  0x00005f10       0xd8 ./SysLib/MercuryPlat/release/AL36V200_SDK.a(MQTTPacket.o)
 .debug_ranges  0x00005fe8       0x38 ./SysLib/MercuryPlat/release/AL36V200_SDK.a(MQTTSerializePublish.o)
 .debug_ranges  0x00006020       0x20 ./SysLib/MercuryPlat/release/AL36V200_SDK.a(MQTTSubscribeClient.o)
 .debug_ranges  0x00006040       0x20 ./SysLib/MercuryPlat/release/AL36V200_SDK.a(MQTTUnsubscribeClient.o)
 .debug_ranges  0x00006060       0x10 ./SysLib/MercuryPlat/release/AL36V200_SDK.a(ac35_hardware.o)
 .debug_ranges  0x00006070       0x80 ./SysLib/MercuryPlat/release/AL36V200_SDK.a(aes.o)
 .debug_ranges  0x000060f0      0x1a8 ./SysLib/MercuryPlat/release/AL36V200_SDK.a(cipher.o)
 .debug_ranges  0x00006298      0x158 ./SysLib/MercuryPlat/release/AL36V200_SDK.a(cipher_wrap.o)
 .debug_ranges  0x000063f0       0xc0 ./SysLib/MercuryPlat/release/AL36V200_SDK.a(debug.o)
 .debug_ranges  0x000064b0       0xc8 ./SysLib/MercuryPlat/release/AL36V200_SDK.a(des.o)
 .debug_ranges  0x00006578       0x90 ./SysLib/MercuryPlat/release/AL36V200_SDK.a(dhm.o)
 .debug_ranges  0x00006608       0x70 ./SysLib/MercuryPlat/release/AL36V200_SDK.a(ecdh.o)
 .debug_ranges  0x00006678       0x90 ./SysLib/MercuryPlat/release/AL36V200_SDK.a(ecdsa.o)
 .debug_ranges  0x00006708      0x350 ./SysLib/MercuryPlat/release/AL36V200_SDK.a(ecp.o)
 .debug_ranges  0x00006a58      0x4a0 ./SysLib/MercuryPlat/release/AL36V200_SDK.a(ecp_curves.o)
 .debug_ranges  0x00006ef8       0xb8 ./SysLib/MercuryPlat/release/AL36V200_SDK.a(gcm.o)
 .debug_ranges  0x00006fb0       0x90 ./SysLib/MercuryPlat/release/AL36V200_SDK.a(hmac_drbg.o)
 .debug_ranges  0x00007040       0x40 ./SysLib/MercuryPlat/release/AL36V200_SDK.a(pkcs5.o)
 .debug_ranges  0x00007080       0x98 ./SysLib/MercuryPlat/release/AL36V200_SDK.a(pkcs12.o)
 .debug_ranges  0x00007118       0x78 ./SysLib/MercuryPlat/release/AL36V200_SDK.a(ssl_ciphersuites.o)
 .debug_ranges  0x00007190      0x3a8 ./SysLib/MercuryPlat/release/AL36V200_SDK.a(ssl_cli.o)
 .debug_ranges  0x00007538       0x40 ./SysLib/MercuryPlat/release/AL36V200_SDK.a(arc4.o)
 .debug_ranges  0x00007578       0x78 ./SysLib/MercuryPlat/release/AL36V200_SDK.a(asn1write.o)
 .debug_ranges  0x000075f0       0x68 ./SysLib/MercuryPlat/release/AL36V200_SDK.a(camellia.o)
 .debug_ranges  0x00007658       0x80 ./SysLib/MercuryPlat/release/AL36V200_SDK.a(ccm.o)
 .debug_ranges  0x000076d8       0xf8 ./SysLib/MercuryPlat/release/libsystem.a(MercuryBarScan.o)
 .debug_ranges  0x000077d0       0xd0 ./SysLib/MercuryPlat/release/libsystem.a(MercuryCom.o)
 .debug_ranges  0x000078a0       0x28 ./SysLib/MercuryPlat/release/libsystem.a(MercurySec.o)
 .debug_ranges  0x000078c8       0x70 ./SysLib/MercuryPlat/release/libsystem.a(MercurySpi.o)

.debug_line     0x00000000    0x21853
 .debug_line    0x00000000      0x3b3 ./SysLib/MercuryPlat/release/libsystem.a(main_entry.o)
 .debug_line    0x000003b3      0x6f1 ./SysLib/MercuryPlat/release/libsystem.a(MercuryCSTD.o)
 .debug_line    0x00000aa4      0x4d2 .//build/MainApp/release/lib\libMainApp.a(test_main.o)
 .debug_line    0x00000f76      0x692 .//build/MainApp/release/lib\libMainApp.a(keypad.o)
 .debug_line    0x00001608      0x16e .//build/MainApp/release/lib\libMainApp.a(transactions.o)
 .debug_line    0x00001776      0x27b .//build/MainApp/release/lib\libMainApp.a(wifi.o)
 .debug_line    0x000019f1       0x9f .//build/MainApp/release/lib\libMainApp.a(app_system.o)
 .debug_line    0x00001a90      0xa31 .//build/MainApp/release/lib\libMainApp.a(push_msg_parse.o)
 .debug_line    0x000024c1      0x1de .//build/MainApp/release/lib\libMainApp.a(app_config.o)
 .debug_line    0x0000269f      0x48b .//build/MainApp/release/lib\libMainApp.a(connect_mqtt_soundbox_server.o)
 .debug_line    0x00002b2a       0x55 .//build/MainApp/release/lib\libMainApp.a(24_24_lcd.o)
 .debug_line    0x00002b7f      0x169 .//build/MainApp/release/lib\libMainApp.a(led.o)
 .debug_line    0x00002ce8      0x2f7 .//build/MainApp/release/lib\libMainApp.a(app_qrcode.o)
 .debug_line    0x00002fdf      0x13d .//build/MainApp/release/lib\libMainApp.a(device.o)
 .debug_line    0x0000311c      0x3c1 .//build/MainApp/release/lib\libMainApp.a(app_fota.o)
 .debug_line    0x000034dd      0x5bd .//build/MainApp/release/lib\libMainApp.a(temp.o)
 .debug_line    0x00003a9a      0x3b5 .//build/MainApp/release/lib\libMainApp.a(app_audio.o)
 .debug_line    0x00003e4f       0x83 .//build/MainApp/release/lib\libMainApp.a(global.o)
 .debug_line    0x00003ed2      0x2f7 .//build/MainApp/release/lib\libMainApp.a(data_parser.o)
 .debug_line    0x000041c9      0x2d3 .//build/MainApp/release/lib\libMainApp.a(app_power.o)
 .debug_line    0x0000449c      0x4dd ./SysLib/MercuryPlat/release/libsystem.a(MercuryAudio.o)
 .debug_line    0x00004979      0x351 ./SysLib/MercuryPlat/release/libsystem.a(MercuryBattery.o)
 .debug_line    0x00004cca      0x689 ./SysLib/MercuryPlat/release/libsystem.a(MercuryFile.o)
 .debug_line    0x00005353      0x593 ./SysLib/MercuryPlat/release/libsystem.a(MercuryFota.o)
 .debug_line    0x000058e6      0x479 ./SysLib/MercuryPlat/release/libsystem.a(MercuryGpio.o)
 .debug_line    0x00005d5f      0x5b2 ./SysLib/MercuryPlat/release/libsystem.a(MercuryGraphics.o)
 .debug_line    0x00006311      0x417 ./SysLib/MercuryPlat/release/libsystem.a(MercuryKeypad.o)
 .debug_line    0x00006728      0x3b4 ./SysLib/MercuryPlat/release/libsystem.a(MercuryMem.o)
 .debug_line    0x00006adc      0x410 ./SysLib/MercuryPlat/release/libsystem.a(MercuryNLed.o)
 .debug_line    0x00006eec      0xb6f ./SysLib/MercuryPlat/release/libsystem.a(MercuryNet.o)
 .debug_line    0x00007a5b      0x480 ./SysLib/MercuryPlat/release/libsystem.a(MercuryNv.o)
 .debug_line    0x00007edb      0x51d ./SysLib/MercuryPlat/release/libsystem.a(MercuryPlat.o)
 .debug_line    0x000083f8      0x53a ./SysLib/MercuryPlat/release/libsystem.a(MercuryPowerManager.o)
 .debug_line    0x00008932      0x58d ./SysLib/MercuryPlat/release/libsystem.a(MercurySyn.o)
 .debug_line    0x00008ebf      0x4be ./SysLib/MercuryPlat/release/libsystem.a(MercuryThread.o)
 .debug_line    0x0000937d      0x4a8 ./SysLib/MercuryPlat/release/libsystem.a(MercuryTimer.o)
 .debug_line    0x00009825      0x4a0 ./SysLib/MercuryPlat/release/libsystem.a(MercuryTts.o)
 .debug_line    0x00009cc5      0x389 ./SysLib/MercuryPlat/release/AL36V200_SDK.a(QYY_API_FOTA.o)
 .debug_line    0x0000a04e      0x230 ./SysLib/MercuryPlat/release/AL36V200_SDK.a(QYY_API_POWER.o)
 .debug_line    0x0000a27e      0x282 ./SysLib/MercuryPlat/release/AL36V200_SDK.a(QYY_API_BCS_DISPLAY.o)
 .debug_line    0x0000a500      0xbd1 ./SysLib/MercuryPlat/release/AL36V200_SDK.a(qyy_to_sdk.o)
 .debug_line    0x0000b0d1      0x3e4 ./SysLib/MercuryPlat/release/AL36V200_SDK.a(gpio.o)
 .debug_line    0x0000b4b5      0x366 ./SysLib/MercuryPlat/release/AL36V200_SDK.a(keypad.o)
 .debug_line    0x0000b81b      0x35d ./SysLib/MercuryPlat/release/AL36V200_SDK.a(lcddrv.o)
 .debug_line    0x0000bb78      0x43d ./SysLib/MercuryPlat/release/AL36V200_SDK.a(bcs_lcddrv.o)
 .debug_line    0x0000bfb5      0x657 ./SysLib/MercuryPlat/release/AL36V200_SDK.a(http.o)
 .debug_line    0x0000c60c      0xa13 ./SysLib/MercuryPlat/release/AL36V200_SDK.a(http_parser.o)
 .debug_line    0x0000d01f      0x604 ./SysLib/MercuryPlat/release/AL36V200_SDK.a(http_post.o)
 .debug_line    0x0000d623      0x85e ./SysLib/MercuryPlat/release/AL36V200_SDK.a(cjson.o)
 .debug_line    0x0000de81       0xe0 ./SysLib/MercuryPlat/release/AL36V200_SDK.a(utf2gb.o)
 .debug_line    0x0000df61      0x6d6 ./SysLib/MercuryPlat/release/AL36V200_SDK.a(gprs_tcp.o)
 .debug_line    0x0000e637      0x323 ./SysLib/MercuryPlat/release/AL36V200_SDK.a(tcp.o)
 .debug_line    0x0000e95a     0x1261 ./SysLib/MercuryPlat/release/AL36V200_SDK.a(wifi_tcp.o)
 .debug_line    0x0000fbbb       0xc9 ./SysLib/MercuryPlat/release/AL36V200_SDK.a(amoi_memory.o)
 .debug_line    0x0000fc84      0x1d3 ./SysLib/MercuryPlat/release/AL36V200_SDK.a(base64.o)
 .debug_line    0x0000fe57      0x215 ./SysLib/MercuryPlat/release/AL36V200_SDK.a(md5.o)
 .debug_line    0x0001006c      0x303 ./SysLib/MercuryPlat/release/AL36V200_SDK.a(sha256.o)
 .debug_line    0x0001036f      0x444 ./SysLib/MercuryPlat/release/AL36V200_SDK.a(tls.o)
 .debug_line    0x000107b3      0xab8 ./SysLib/MercuryPlat/release/AL36V200_SDK.a(x509_crt.o)
 .debug_line    0x0001126b      0x786 ./SysLib/MercuryPlat/release/AL36V200_SDK.a(QYY_API_AUDIO.o)
 .debug_line    0x000119f1      0x13d ./SysLib/MercuryPlat/release/AL36V200_SDK.a(QYY_API_LED.o)
 .debug_line    0x00011b2e      0x3a5 ./SysLib/MercuryPlat/release/AL36V200_SDK.a(QYY_API_MQTT.o)
 .debug_line    0x00011ed3      0x67d ./SysLib/MercuryPlat/release/AL36V200_SDK.a(QYY_API_SYS.o)
 .debug_line    0x00012550      0x1d6 ./SysLib/MercuryPlat/release/AL36V200_SDK.a(QYY_API_TCP.o)
 .debug_line    0x00012726      0x221 ./SysLib/MercuryPlat/release/AL36V200_SDK.a(QYY_API_URLEN.o)
 .debug_line    0x00012947       0xef ./SysLib/MercuryPlat/release/AL36V200_SDK.a(QYY_API_HMAC.o)
 .debug_line    0x00012a36      0x2f5 ./SysLib/MercuryPlat/release/AL36V200_SDK.a(QYY_API_NTP.o)
 .debug_line    0x00012d2b      0x542 ./SysLib/MercuryPlat/release/AL36V200_SDK.a(QYY_API_DISPLAY.o)
 .debug_line    0x0001326d      0x10e ./SysLib/MercuryPlat/release/AL36V200_SDK.a(QYY_API_FS.o)
 .debug_line    0x0001337b      0x29b ./SysLib/MercuryPlat/release/AL36V200_SDK.a(atthread.o)
 .debug_line    0x00013616       0xb3 ./SysLib/MercuryPlat/release/AL36V200_SDK.a(amp_ctl.o)
 .debug_line    0x000136c9      0x165 ./SysLib/MercuryPlat/release/AL36V200_SDK.a(device.o)
 .debug_line    0x0001382e       0xb8 ./SysLib/MercuryPlat/release/AL36V200_SDK.a(se_wifi_reset.o)
 .debug_line    0x000138e6      0x21c ./SysLib/MercuryPlat/release/AL36V200_SDK.a(MQTTFormat.o)
 .debug_line    0x00013b02      0x6be ./SysLib/MercuryPlat/release/AL36V200_SDK.a(MQTTClient.o)
 .debug_line    0x000141c0      0x3a6 ./SysLib/MercuryPlat/release/AL36V200_SDK.a(MQTTFreeRTOS.o)
 .debug_line    0x00014566       0x51 ./SysLib/MercuryPlat/release/AL36V200_SDK.a(cp936.o)
 .debug_line    0x000145b7      0x2ce ./SysLib/MercuryPlat/release/AL36V200_SDK.a(asn1parse.o)
 .debug_line    0x00014885      0xe41 ./SysLib/MercuryPlat/release/AL36V200_SDK.a(bignum.o)
 .debug_line    0x000156c6      0x2e8 ./SysLib/MercuryPlat/release/AL36V200_SDK.a(ctr_drbg.o)
 .debug_line    0x000159ae      0x1ec ./SysLib/MercuryPlat/release/AL36V200_SDK.a(entropy.o)
 .debug_line    0x00015b9a      0x285 ./SysLib/MercuryPlat/release/AL36V200_SDK.a(error.o)
 .debug_line    0x00015e1f      0x388 ./SysLib/MercuryPlat/release/AL36V200_SDK.a(md.o)
 .debug_line    0x000161a7      0x3f2 ./SysLib/MercuryPlat/release/AL36V200_SDK.a(md_wrap.o)
 .debug_line    0x00016599      0x1cc ./SysLib/MercuryPlat/release/AL36V200_SDK.a(net.o)
 .debug_line    0x00016765      0x2c4 ./SysLib/MercuryPlat/release/AL36V200_SDK.a(oid.o)
 .debug_line    0x00016a29      0x33e ./SysLib/MercuryPlat/release/AL36V200_SDK.a(pem.o)
 .debug_line    0x00016d67      0x2f8 ./SysLib/MercuryPlat/release/AL36V200_SDK.a(pk.o)
 .debug_line    0x0001705f      0x40d ./SysLib/MercuryPlat/release/AL36V200_SDK.a(pk_wrap.o)
 .debug_line    0x0001746c      0x461 ./SysLib/MercuryPlat/release/AL36V200_SDK.a(pkparse.o)
 .debug_line    0x000178cd      0x387 ./SysLib/MercuryPlat/release/AL36V200_SDK.a(ripemd160.o)
 .debug_line    0x00017c54      0x806 ./SysLib/MercuryPlat/release/AL36V200_SDK.a(rsa.o)
 .debug_line    0x0001845a      0x369 ./SysLib/MercuryPlat/release/AL36V200_SDK.a(sha1.o)
 .debug_line    0x000187c3      0x2fe ./SysLib/MercuryPlat/release/AL36V200_SDK.a(sha512.o)
 .debug_line    0x00018ac1     0x1810 ./SysLib/MercuryPlat/release/AL36V200_SDK.a(ssl_tls.o)
 .debug_line    0x0001a2d1      0x4bb ./SysLib/MercuryPlat/release/AL36V200_SDK.a(x509.o)
 .debug_line    0x0001a78c      0x22e ./SysLib/MercuryPlat/release/AL36V200_SDK.a(MQTTConnectClient.o)
 .debug_line    0x0001a9ba      0x1a0 ./SysLib/MercuryPlat/release/AL36V200_SDK.a(MQTTDeserializePublish.o)
 .debug_line    0x0001ab5a      0x34f ./SysLib/MercuryPlat/release/AL36V200_SDK.a(MQTTPacket.o)
 .debug_line    0x0001aea9      0x1f2 ./SysLib/MercuryPlat/release/AL36V200_SDK.a(MQTTSerializePublish.o)
 .debug_line    0x0001b09b      0x1ea ./SysLib/MercuryPlat/release/AL36V200_SDK.a(MQTTSubscribeClient.o)
 .debug_line    0x0001b285      0x1c7 ./SysLib/MercuryPlat/release/AL36V200_SDK.a(MQTTUnsubscribeClient.o)
 .debug_line    0x0001b44c       0x91 ./SysLib/MercuryPlat/release/AL36V200_SDK.a(ac35_hardware.o)
 .debug_line    0x0001b4dd      0x65e ./SysLib/MercuryPlat/release/AL36V200_SDK.a(aes.o)
 .debug_line    0x0001bb3b      0x62a ./SysLib/MercuryPlat/release/AL36V200_SDK.a(cipher.o)
 .debug_line    0x0001c165      0x425 ./SysLib/MercuryPlat/release/AL36V200_SDK.a(cipher_wrap.o)
 .debug_line    0x0001c58a      0x2bd ./SysLib/MercuryPlat/release/AL36V200_SDK.a(debug.o)
 .debug_line    0x0001c847      0x4b9 ./SysLib/MercuryPlat/release/AL36V200_SDK.a(des.o)
 .debug_line    0x0001cd00      0x2c5 ./SysLib/MercuryPlat/release/AL36V200_SDK.a(dhm.o)
 .debug_line    0x0001cfc5      0x1fa ./SysLib/MercuryPlat/release/AL36V200_SDK.a(ecdh.o)
 .debug_line    0x0001d1bf      0x299 ./SysLib/MercuryPlat/release/AL36V200_SDK.a(ecdsa.o)
 .debug_line    0x0001d458      0xaa9 ./SysLib/MercuryPlat/release/AL36V200_SDK.a(ecp.o)
 .debug_line    0x0001df01      0x628 ./SysLib/MercuryPlat/release/AL36V200_SDK.a(ecp_curves.o)
 .debug_line    0x0001e529      0x361 ./SysLib/MercuryPlat/release/AL36V200_SDK.a(gcm.o)
 .debug_line    0x0001e88a      0x262 ./SysLib/MercuryPlat/release/AL36V200_SDK.a(hmac_drbg.o)
 .debug_line    0x0001eaec      0x1b0 ./SysLib/MercuryPlat/release/AL36V200_SDK.a(pkcs5.o)
 .debug_line    0x0001ec9c      0x252 ./SysLib/MercuryPlat/release/AL36V200_SDK.a(pkcs12.o)
 .debug_line    0x0001eeee      0x1bc ./SysLib/MercuryPlat/release/AL36V200_SDK.a(ssl_ciphersuites.o)
 .debug_line    0x0001f0aa      0x97d ./SysLib/MercuryPlat/release/AL36V200_SDK.a(ssl_cli.o)
 .debug_line    0x0001fa27      0x147 ./SysLib/MercuryPlat/release/AL36V200_SDK.a(arc4.o)
 .debug_line    0x0001fb6e      0x37f ./SysLib/MercuryPlat/release/AL36V200_SDK.a(asn1write.o)
 .debug_line    0x0001feed      0x34b ./SysLib/MercuryPlat/release/AL36V200_SDK.a(camellia.o)
 .debug_line    0x00020238      0x23c ./SysLib/MercuryPlat/release/AL36V200_SDK.a(ccm.o)
 .debug_line    0x00020474      0x58c ./SysLib/MercuryPlat/release/libsystem.a(MercuryBarScan.o)
 .debug_line    0x00020a00      0x5f4 ./SysLib/MercuryPlat/release/libsystem.a(MercuryCom.o)
 .debug_line    0x00020ff4      0x3a1 ./SysLib/MercuryPlat/release/libsystem.a(MercurySec.o)
 .debug_line    0x00021395      0x4be ./SysLib/MercuryPlat/release/libsystem.a(MercurySpi.o)

.debug_str      0x00000000    0x1db7e
 .debug_str     0x00000000     0x8746 ./SysLib/MercuryPlat/release/libsystem.a(main_entry.o)
                               0x8bb1 (size before relaxing)
 .debug_str     0x00008746      0x180 ./SysLib/MercuryPlat/release/libsystem.a(MercuryCSTD.o)
                               0x8c92 (size before relaxing)
 .debug_str     0x000088c6      0xc1a .//build/MainApp/release/lib\libMainApp.a(test_main.o)
                               0x173e (size before relaxing)
 .debug_str     0x000094e0      0x714 .//build/MainApp/release/lib\libMainApp.a(keypad.o)
                               0x1861 (size before relaxing)
 .debug_str     0x00009bf4       0xbb .//build/MainApp/release/lib\libMainApp.a(transactions.o)
                                0x7b2 (size before relaxing)
 .debug_str     0x00009caf       0xe3 .//build/MainApp/release/lib\libMainApp.a(wifi.o)
                                0xc91 (size before relaxing)
 .debug_str     0x00009d92       0x54 .//build/MainApp/release/lib\libMainApp.a(app_system.o)
                                0x216 (size before relaxing)
 .debug_str     0x00009de6      0xd67 .//build/MainApp/release/lib\libMainApp.a(push_msg_parse.o)
                               0x1d0f (size before relaxing)
 .debug_str     0x0000ab4d      0x138 .//build/MainApp/release/lib\libMainApp.a(app_config.o)
                                0x684 (size before relaxing)
 .debug_str     0x0000ac85      0x4a8 .//build/MainApp/release/lib\libMainApp.a(connect_mqtt_soundbox_server.o)
                               0x13f2 (size before relaxing)
 .debug_str     0x0000b12d       0x41 .//build/MainApp/release/lib\libMainApp.a(24_24_lcd.o)
                                0x27d (size before relaxing)
 .debug_str     0x0000b16e       0x87 .//build/MainApp/release/lib\libMainApp.a(led.o)
                                0x426 (size before relaxing)
 .debug_str     0x0000b1f5      0x285 .//build/MainApp/release/lib\libMainApp.a(app_qrcode.o)
                               0x23e7 (size before relaxing)
 .debug_str     0x0000b47a       0x45 .//build/MainApp/release/lib\libMainApp.a(device.o)
                                0x710 (size before relaxing)
 .debug_str     0x0000b4bf      0x216 .//build/MainApp/release/lib\libMainApp.a(app_fota.o)
                               0x1083 (size before relaxing)
 .debug_str     0x0000b6d5      0x3a1 .//build/MainApp/release/lib\libMainApp.a(temp.o)
                                0xc6b (size before relaxing)
 .debug_str     0x0000ba76      0x227 .//build/MainApp/release/lib\libMainApp.a(app_audio.o)
                                0xea7 (size before relaxing)
 .debug_str     0x0000bc9d       0x1c .//build/MainApp/release/lib\libMainApp.a(global.o)
                                0x562 (size before relaxing)
 .debug_str     0x0000bcb9       0x90 .//build/MainApp/release/lib\libMainApp.a(data_parser.o)
                                0xcca (size before relaxing)
 .debug_str     0x0000bd49      0x146 .//build/MainApp/release/lib\libMainApp.a(app_power.o)
                                0xc51 (size before relaxing)
 .debug_str     0x0000be8f      0x151 ./SysLib/MercuryPlat/release/libsystem.a(MercuryAudio.o)
                               0x8cee (size before relaxing)
 .debug_str     0x0000bfe0       0x49 ./SysLib/MercuryPlat/release/libsystem.a(MercuryBattery.o)
                               0x8a5b (size before relaxing)
 .debug_str     0x0000c029      0x1ef ./SysLib/MercuryPlat/release/libsystem.a(MercuryFile.o)
                               0x8cb4 (size before relaxing)
 .debug_str     0x0000c218       0x82 ./SysLib/MercuryPlat/release/libsystem.a(MercuryFota.o)
                               0x8bae (size before relaxing)
 .debug_str     0x0000c29a      0x184 ./SysLib/MercuryPlat/release/libsystem.a(MercuryGpio.o)
                               0x8cee (size before relaxing)
 .debug_str     0x0000c41e      0x266 ./SysLib/MercuryPlat/release/libsystem.a(MercuryGraphics.o)
                               0x8de7 (size before relaxing)
 .debug_str     0x0000c684       0x71 ./SysLib/MercuryPlat/release/libsystem.a(MercuryKeypad.o)
                               0x8b0d (size before relaxing)
 .debug_str     0x0000c6f5       0x4d ./SysLib/MercuryPlat/release/libsystem.a(MercuryMem.o)
                               0x8ab4 (size before relaxing)
 .debug_str     0x0000c742       0xeb ./SysLib/MercuryPlat/release/libsystem.a(MercuryNLed.o)
                               0x8b75 (size before relaxing)
 .debug_str     0x0000c82d      0x983 ./SysLib/MercuryPlat/release/libsystem.a(MercuryNet.o)
                               0x9671 (size before relaxing)
 .debug_str     0x0000d1b0       0x53 ./SysLib/MercuryPlat/release/libsystem.a(MercuryNv.o)
                               0x8afc (size before relaxing)
 .debug_str     0x0000d203      0x177 ./SysLib/MercuryPlat/release/libsystem.a(MercuryPlat.o)
                               0x8d8c (size before relaxing)
 .debug_str     0x0000d37a       0xf5 ./SysLib/MercuryPlat/release/libsystem.a(MercuryPowerManager.o)
                               0x8c3a (size before relaxing)
 .debug_str     0x0000d46f       0xae ./SysLib/MercuryPlat/release/libsystem.a(MercurySyn.o)
                               0x8cb4 (size before relaxing)
 .debug_str     0x0000d51d       0xb3 ./SysLib/MercuryPlat/release/libsystem.a(MercuryThread.o)
                               0x8c7f (size before relaxing)
 .debug_str     0x0000d5d0       0x7e ./SysLib/MercuryPlat/release/libsystem.a(MercuryTimer.o)
                               0x8b44 (size before relaxing)
 .debug_str     0x0000d64e       0x53 ./SysLib/MercuryPlat/release/libsystem.a(MercuryTts.o)
                               0x8bf7 (size before relaxing)
 .debug_str     0x0000d6a1      0x39e ./SysLib/MercuryPlat/release/AL36V200_SDK.a(QYY_API_FOTA.o)
                                0x8f7 (size before relaxing)
 .debug_str     0x0000da3f      0x165 ./SysLib/MercuryPlat/release/AL36V200_SDK.a(QYY_API_POWER.o)
                                0x646 (size before relaxing)
 .debug_str     0x0000dba4      0x1ec ./SysLib/MercuryPlat/release/AL36V200_SDK.a(QYY_API_BCS_DISPLAY.o)
                                0x490 (size before relaxing)
 .debug_str     0x0000dd90     0x151f ./SysLib/MercuryPlat/release/AL36V200_SDK.a(qyy_to_sdk.o)
                               0x2305 (size before relaxing)
 .debug_str     0x0000f2af      0x531 ./SysLib/MercuryPlat/release/AL36V200_SDK.a(gpio.o)
                                0x9fe (size before relaxing)
 .debug_str     0x0000f7e0      0x1bd ./SysLib/MercuryPlat/release/AL36V200_SDK.a(keypad.o)
                                0x6d3 (size before relaxing)
 .debug_str     0x0000f99d      0x25c ./SysLib/MercuryPlat/release/AL36V200_SDK.a(lcddrv.o)
                               0x1c3b (size before relaxing)
 .debug_str     0x0000fbf9       0xe6 ./SysLib/MercuryPlat/release/AL36V200_SDK.a(bcs_lcddrv.o)
                                0x6c0 (size before relaxing)
 .debug_str     0x0000fcdf      0x7e6 ./SysLib/MercuryPlat/release/AL36V200_SDK.a(http.o)
                                0xea3 (size before relaxing)
 .debug_str     0x000104c5      0xd8f ./SysLib/MercuryPlat/release/AL36V200_SDK.a(http_parser.o)
                               0x1253 (size before relaxing)
 .debug_str     0x00011254      0x315 ./SysLib/MercuryPlat/release/AL36V200_SDK.a(http_post.o)
                                0xa9c (size before relaxing)
 .debug_str     0x00011569      0x36e ./SysLib/MercuryPlat/release/AL36V200_SDK.a(cjson.o)
                                0x746 (size before relaxing)
 .debug_str     0x000118d7       0xb7 ./SysLib/MercuryPlat/release/AL36V200_SDK.a(utf2gb.o)
                                0x2a7 (size before relaxing)
 .debug_str     0x0001198e      0x591 ./SysLib/MercuryPlat/release/AL36V200_SDK.a(gprs_tcp.o)
                                0xfe5 (size before relaxing)
 .debug_str     0x00011f1f      0x1a2 ./SysLib/MercuryPlat/release/AL36V200_SDK.a(tcp.o)
                                0x84f (size before relaxing)
 .debug_str     0x000120c1      0xbed ./SysLib/MercuryPlat/release/AL36V200_SDK.a(wifi_tcp.o)
                               0x19aa (size before relaxing)
 .debug_str     0x00012cae       0x42 ./SysLib/MercuryPlat/release/AL36V200_SDK.a(amoi_memory.o)
                                0x237 (size before relaxing)
 .debug_str     0x00012cf0       0x5f ./SysLib/MercuryPlat/release/AL36V200_SDK.a(base64.o)
                                0x23c (size before relaxing)
 .debug_str     0x00012d4f       0x85 ./SysLib/MercuryPlat/release/AL36V200_SDK.a(md5.o)
                                0x317 (size before relaxing)
 .debug_str     0x00012dd4       0x72 ./SysLib/MercuryPlat/release/AL36V200_SDK.a(sha256.o)
                                0x34a (size before relaxing)
 .debug_str     0x00012e46      0xde7 ./SysLib/MercuryPlat/release/AL36V200_SDK.a(tls.o)
                               0x1558 (size before relaxing)
 .debug_str     0x00013c2d      0x880 ./SysLib/MercuryPlat/release/AL36V200_SDK.a(x509_crt.o)
                               0x1180 (size before relaxing)
 .debug_str     0x000144ad      0x404 ./SysLib/MercuryPlat/release/AL36V200_SDK.a(QYY_API_AUDIO.o)
                                0xbe6 (size before relaxing)
 .debug_str     0x000148b1       0xa6 ./SysLib/MercuryPlat/release/AL36V200_SDK.a(QYY_API_LED.o)
                                0x327 (size before relaxing)
 .debug_str     0x00014957      0x1d2 ./SysLib/MercuryPlat/release/AL36V200_SDK.a(QYY_API_MQTT.o)
                                0xa87 (size before relaxing)
 .debug_str     0x00014b29      0xb34 ./SysLib/MercuryPlat/release/AL36V200_SDK.a(QYY_API_SYS.o)
                               0x1a9b (size before relaxing)
 .debug_str     0x0001565d       0x38 ./SysLib/MercuryPlat/release/AL36V200_SDK.a(QYY_API_TCP.o)
                                0x4dc (size before relaxing)
 .debug_str     0x00015695      0x161 ./SysLib/MercuryPlat/release/AL36V200_SDK.a(QYY_API_URLEN.o)
                                0x3dc (size before relaxing)
 .debug_str     0x000157f6       0xb1 ./SysLib/MercuryPlat/release/AL36V200_SDK.a(QYY_API_HMAC.o)
                                0x2e2 (size before relaxing)
 .debug_str     0x000158a7      0x180 ./SysLib/MercuryPlat/release/AL36V200_SDK.a(QYY_API_NTP.o)
                                0x740 (size before relaxing)
 .debug_str     0x00015a27      0x43c ./SysLib/MercuryPlat/release/AL36V200_SDK.a(QYY_API_DISPLAY.o)
                                0xcbb (size before relaxing)
 .debug_str     0x00015e63       0x4f ./SysLib/MercuryPlat/release/AL36V200_SDK.a(QYY_API_FS.o)
                                0x331 (size before relaxing)
 .debug_str     0x00015eb2      0x2d6 ./SysLib/MercuryPlat/release/AL36V200_SDK.a(atthread.o)
                                0x709 (size before relaxing)
 .debug_str     0x00016188       0x38 ./SysLib/MercuryPlat/release/AL36V200_SDK.a(amp_ctl.o)
                                0x232 (size before relaxing)
 .debug_str     0x000161c0       0x3e ./SysLib/MercuryPlat/release/AL36V200_SDK.a(device.o)
                                0x4f1 (size before relaxing)
 .debug_str     0x000161fe       0x37 ./SysLib/MercuryPlat/release/AL36V200_SDK.a(se_wifi_reset.o)
                                0x20f (size before relaxing)
 .debug_str     0x00016235      0x166 ./SysLib/MercuryPlat/release/AL36V200_SDK.a(MQTTFormat.o)
                                0x69c (size before relaxing)
 .debug_str     0x0001639b      0x4e2 ./SysLib/MercuryPlat/release/AL36V200_SDK.a(MQTTClient.o)
                               0x1a03 (size before relaxing)
 .debug_str     0x0001687d       0x97 ./SysLib/MercuryPlat/release/AL36V200_SDK.a(MQTTFreeRTOS.o)
                               0x1288 (size before relaxing)
 .debug_str     0x00016914       0x26 ./SysLib/MercuryPlat/release/AL36V200_SDK.a(cp936.o)
                                0x191 (size before relaxing)
 .debug_str     0x0001693a      0x106 ./SysLib/MercuryPlat/release/AL36V200_SDK.a(asn1parse.o)
                                0x40f (size before relaxing)
 .debug_str     0x00016a40      0x46a ./SysLib/MercuryPlat/release/AL36V200_SDK.a(bignum.o)
                                0x700 (size before relaxing)
 .debug_str     0x00016eaa      0x1c9 ./SysLib/MercuryPlat/release/AL36V200_SDK.a(ctr_drbg.o)
                                0x4ee (size before relaxing)
 .debug_str     0x00017073      0x123 ./SysLib/MercuryPlat/release/AL36V200_SDK.a(entropy.o)
                                0x445 (size before relaxing)
 .debug_str     0x00017196       0x32 ./SysLib/MercuryPlat/release/AL36V200_SDK.a(error.o)
                                0x2d8 (size before relaxing)
 .debug_str     0x000171c8      0x2c2 ./SysLib/MercuryPlat/release/AL36V200_SDK.a(md.o)
                                0x5fb (size before relaxing)
 .debug_str     0x0001748a      0x435 ./SysLib/MercuryPlat/release/AL36V200_SDK.a(md_wrap.o)
                                0xa3d (size before relaxing)
 .debug_str     0x000178bf       0x97 ./SysLib/MercuryPlat/release/AL36V200_SDK.a(net.o)
                                0x47c (size before relaxing)
 .debug_str     0x00017956      0x92c ./SysLib/MercuryPlat/release/AL36V200_SDK.a(oid.o)
                                0xe38 (size before relaxing)
 .debug_str     0x00018282      0x1fa ./SysLib/MercuryPlat/release/AL36V200_SDK.a(pem.o)
                                0xb3b (size before relaxing)
 .debug_str     0x0001847c      0x320 ./SysLib/MercuryPlat/release/AL36V200_SDK.a(pk.o)
                                0x80f (size before relaxing)
 .debug_str     0x0001879c      0x3a5 ./SysLib/MercuryPlat/release/AL36V200_SDK.a(pk_wrap.o)
                                0xb1f (size before relaxing)
 .debug_str     0x00018b41      0x2c5 ./SysLib/MercuryPlat/release/AL36V200_SDK.a(pkparse.o)
                               0x1063 (size before relaxing)
 .debug_str     0x00018e06       0x52 ./SysLib/MercuryPlat/release/AL36V200_SDK.a(ripemd160.o)
                                0x359 (size before relaxing)
 .debug_str     0x00018e58      0x254 ./SysLib/MercuryPlat/release/AL36V200_SDK.a(rsa.o)
                                0x9ad (size before relaxing)
 .debug_str     0x000190ac       0x43 ./SysLib/MercuryPlat/release/AL36V200_SDK.a(sha1.o)
                                0x327 (size before relaxing)
 .debug_str     0x000190ef       0x3a ./SysLib/MercuryPlat/release/AL36V200_SDK.a(sha512.o)
                                0x34a (size before relaxing)
 .debug_str     0x00019129     0x1830 ./SysLib/MercuryPlat/release/AL36V200_SDK.a(ssl_tls.o)
                               0x3260 (size before relaxing)
 .debug_str     0x0001a959       0xf0 ./SysLib/MercuryPlat/release/AL36V200_SDK.a(x509.o)
                                0x7ca (size before relaxing)
 .debug_str     0x0001aa49      0x135 ./SysLib/MercuryPlat/release/AL36V200_SDK.a(MQTTConnectClient.o)
                                0x6ff (size before relaxing)
 .debug_str     0x0001ab7e       0x5a ./SysLib/MercuryPlat/release/AL36V200_SDK.a(MQTTDeserializePublish.o)
                                0x514 (size before relaxing)
 .debug_str     0x0001abd8       0xed ./SysLib/MercuryPlat/release/AL36V200_SDK.a(MQTTPacket.o)
                                0x696 (size before relaxing)
 .debug_str     0x0001acc5       0x9a ./SysLib/MercuryPlat/release/AL36V200_SDK.a(MQTTSerializePublish.o)
                                0x5dd (size before relaxing)
 .debug_str     0x0001ad5f       0x64 ./SysLib/MercuryPlat/release/AL36V200_SDK.a(MQTTSubscribeClient.o)
                                0x5ce (size before relaxing)
 .debug_str     0x0001adc3       0x5f ./SysLib/MercuryPlat/release/AL36V200_SDK.a(MQTTUnsubscribeClient.o)
                                0x58b (size before relaxing)
 .debug_str     0x0001ae22       0x48 ./SysLib/MercuryPlat/release/AL36V200_SDK.a(ac35_hardware.o)
                                0x208 (size before relaxing)
 .debug_str     0x0001ae6a       0xe9 ./SysLib/MercuryPlat/release/AL36V200_SDK.a(aes.o)
                                0x394 (size before relaxing)
 .debug_str     0x0001af53      0x4b7 ./SysLib/MercuryPlat/release/AL36V200_SDK.a(cipher.o)
                               0x102f (size before relaxing)
 .debug_str     0x0001b40a      0x9c9 ./SysLib/MercuryPlat/release/AL36V200_SDK.a(cipher_wrap.o)
                               0x16a7 (size before relaxing)
 .debug_str     0x0001bdd3       0xab ./SysLib/MercuryPlat/release/AL36V200_SDK.a(debug.o)
                                0xed5 (size before relaxing)
 .debug_str     0x0001be7e       0xcc ./SysLib/MercuryPlat/release/AL36V200_SDK.a(des.o)
                                0x444 (size before relaxing)
 .debug_str     0x0001bf4a       0xf4 ./SysLib/MercuryPlat/release/AL36V200_SDK.a(dhm.o)
                                0x53d (size before relaxing)
 .debug_str     0x0001c03e      0x210 ./SysLib/MercuryPlat/release/AL36V200_SDK.a(ecdh.o)
                                0x6bf (size before relaxing)
 .debug_str     0x0001c24e      0x1bd ./SysLib/MercuryPlat/release/AL36V200_SDK.a(ecdsa.o)
                                0x9c0 (size before relaxing)
 .debug_str     0x0001c40b      0x344 ./SysLib/MercuryPlat/release/AL36V200_SDK.a(ecp.o)
                                0xbf5 (size before relaxing)
 .debug_str     0x0001c74f      0x48c ./SysLib/MercuryPlat/release/AL36V200_SDK.a(ecp_curves.o)
                                0x999 (size before relaxing)
 .debug_str     0x0001cbdb       0x6a ./SysLib/MercuryPlat/release/AL36V200_SDK.a(gcm.o)
                                0xc3d (size before relaxing)
 .debug_str     0x0001cc45      0x135 ./SysLib/MercuryPlat/release/AL36V200_SDK.a(hmac_drbg.o)
                                0x51d (size before relaxing)
 .debug_str     0x0001cd7a       0xcc ./SysLib/MercuryPlat/release/AL36V200_SDK.a(pkcs5.o)
                                0xd5e (size before relaxing)
 .debug_str     0x0001ce46       0xe0 ./SysLib/MercuryPlat/release/AL36V200_SDK.a(pkcs12.o)
                                0xdee (size before relaxing)
 .debug_str     0x0001cf26      0x14e ./SysLib/MercuryPlat/release/AL36V200_SDK.a(ssl_ciphersuites.o)
                                0xd05 (size before relaxing)
 .debug_str     0x0001d074      0x4b0 ./SysLib/MercuryPlat/release/AL36V200_SDK.a(ssl_cli.o)
                               0x26cf (size before relaxing)
 .debug_str     0x0001d524       0x29 ./SysLib/MercuryPlat/release/AL36V200_SDK.a(arc4.o)
                                0x27a (size before relaxing)
 .debug_str     0x0001d54d      0x198 ./SysLib/MercuryPlat/release/AL36V200_SDK.a(asn1write.o)
                                0x479 (size before relaxing)
 .debug_str     0x0001d6e5       0x79 ./SysLib/MercuryPlat/release/AL36V200_SDK.a(camellia.o)
                                0x3b1 (size before relaxing)
 .debug_str     0x0001d75e       0x40 ./SysLib/MercuryPlat/release/AL36V200_SDK.a(ccm.o)
                                0xbbb (size before relaxing)
 .debug_str     0x0001d79e      0x1fe ./SysLib/MercuryPlat/release/libsystem.a(MercuryBarScan.o)
                               0x8dea (size before relaxing)
 .debug_str     0x0001d99c      0x134 ./SysLib/MercuryPlat/release/libsystem.a(MercuryCom.o)
                               0x8d5a (size before relaxing)
 .debug_str     0x0001dad0       0x5d ./SysLib/MercuryPlat/release/libsystem.a(MercurySec.o)
                               0x8aa0 (size before relaxing)
 .debug_str     0x0001db2d       0x51 ./SysLib/MercuryPlat/release/libsystem.a(MercurySpi.o)
                               0x8bf2 (size before relaxing)

.comment        0x00000000       0x7e
 .comment       0x00000000       0x7e ./SysLib/MercuryPlat/release/libsystem.a(main_entry.o)
                                 0x7f (size before relaxing)
 .comment       0x0000007e       0x7f ./SysLib/MercuryPlat/release/libsystem.a(MercuryCSTD.o)
 .comment       0x0000007e       0x7f .//build/MainApp/release/lib\libMainApp.a(test_main.o)
 .comment       0x0000007e       0x7f .//build/MainApp/release/lib\libMainApp.a(keypad.o)
 .comment       0x0000007e       0x7f .//build/MainApp/release/lib\libMainApp.a(transactions.o)
 .comment       0x0000007e       0x7f .//build/MainApp/release/lib\libMainApp.a(wifi.o)
 .comment       0x0000007e       0x7f .//build/MainApp/release/lib\libMainApp.a(app_system.o)
 .comment       0x0000007e       0x7f .//build/MainApp/release/lib\libMainApp.a(push_msg_parse.o)
 .comment       0x0000007e       0x7f .//build/MainApp/release/lib\libMainApp.a(app_config.o)
 .comment       0x0000007e       0x7f .//build/MainApp/release/lib\libMainApp.a(connect_mqtt_soundbox_server.o)
 .comment       0x0000007e       0x7f .//build/MainApp/release/lib\libMainApp.a(24_24_lcd.o)
 .comment       0x0000007e       0x7f .//build/MainApp/release/lib\libMainApp.a(led.o)
 .comment       0x0000007e       0x7f .//build/MainApp/release/lib\libMainApp.a(app_qrcode.o)
 .comment       0x0000007e       0x7f .//build/MainApp/release/lib\libMainApp.a(device.o)
 .comment       0x0000007e       0x7f .//build/MainApp/release/lib\libMainApp.a(app_fota.o)
 .comment       0x0000007e       0x7f .//build/MainApp/release/lib\libMainApp.a(temp.o)
 .comment       0x0000007e       0x7f .//build/MainApp/release/lib\libMainApp.a(app_audio.o)
 .comment       0x0000007e       0x7f .//build/MainApp/release/lib\libMainApp.a(global.o)
 .comment       0x0000007e       0x7f .//build/MainApp/release/lib\libMainApp.a(data_parser.o)
 .comment       0x0000007e       0x7f .//build/MainApp/release/lib\libMainApp.a(app_power.o)
 .comment       0x0000007e       0x7f ./SysLib/MercuryPlat/release/libsystem.a(MercuryAudio.o)
 .comment       0x0000007e       0x7f ./SysLib/MercuryPlat/release/libsystem.a(MercuryBattery.o)
 .comment       0x0000007e       0x7f ./SysLib/MercuryPlat/release/libsystem.a(MercuryFile.o)
 .comment       0x0000007e       0x7f ./SysLib/MercuryPlat/release/libsystem.a(MercuryFota.o)
 .comment       0x0000007e       0x7f ./SysLib/MercuryPlat/release/libsystem.a(MercuryGpio.o)
 .comment       0x0000007e       0x7f ./SysLib/MercuryPlat/release/libsystem.a(MercuryGraphics.o)
 .comment       0x0000007e       0x7f ./SysLib/MercuryPlat/release/libsystem.a(MercuryKeypad.o)
 .comment       0x0000007e       0x7f ./SysLib/MercuryPlat/release/libsystem.a(MercuryMem.o)
 .comment       0x0000007e       0x7f ./SysLib/MercuryPlat/release/libsystem.a(MercuryNLed.o)
 .comment       0x0000007e       0x7f ./SysLib/MercuryPlat/release/libsystem.a(MercuryNet.o)
 .comment       0x0000007e       0x7f ./SysLib/MercuryPlat/release/libsystem.a(MercuryNv.o)
 .comment       0x0000007e       0x7f ./SysLib/MercuryPlat/release/libsystem.a(MercuryPlat.o)
 .comment       0x0000007e       0x7f ./SysLib/MercuryPlat/release/libsystem.a(MercuryPowerManager.o)
 .comment       0x0000007e       0x7f ./SysLib/MercuryPlat/release/libsystem.a(MercurySyn.o)
 .comment       0x0000007e       0x7f ./SysLib/MercuryPlat/release/libsystem.a(MercuryThread.o)
 .comment       0x0000007e       0x7f ./SysLib/MercuryPlat/release/libsystem.a(MercuryTimer.o)
 .comment       0x0000007e       0x7f ./SysLib/MercuryPlat/release/libsystem.a(MercuryTts.o)
 .comment       0x0000007e       0x7f ./SysLib/MercuryPlat/release/AL36V200_SDK.a(QYY_API_FOTA.o)
 .comment       0x0000007e       0x7f ./SysLib/MercuryPlat/release/AL36V200_SDK.a(QYY_API_POWER.o)
 .comment       0x0000007e       0x7f ./SysLib/MercuryPlat/release/AL36V200_SDK.a(QYY_API_BCS_DISPLAY.o)
 .comment       0x0000007e       0x7f ./SysLib/MercuryPlat/release/AL36V200_SDK.a(qyy_to_sdk.o)
 .comment       0x0000007e       0x7f ./SysLib/MercuryPlat/release/AL36V200_SDK.a(gpio.o)
 .comment       0x0000007e       0x7f ./SysLib/MercuryPlat/release/AL36V200_SDK.a(keypad.o)
 .comment       0x0000007e       0x7f ./SysLib/MercuryPlat/release/AL36V200_SDK.a(lcddrv.o)
 .comment       0x0000007e       0x7f ./SysLib/MercuryPlat/release/AL36V200_SDK.a(bcs_lcddrv.o)
 .comment       0x0000007e       0x7f ./SysLib/MercuryPlat/release/AL36V200_SDK.a(http.o)
 .comment       0x0000007e       0x7f ./SysLib/MercuryPlat/release/AL36V200_SDK.a(http_parser.o)
 .comment       0x0000007e       0x7f ./SysLib/MercuryPlat/release/AL36V200_SDK.a(http_post.o)
 .comment       0x0000007e       0x7f ./SysLib/MercuryPlat/release/AL36V200_SDK.a(cjson.o)
 .comment       0x0000007e       0x7f ./SysLib/MercuryPlat/release/AL36V200_SDK.a(utf2gb.o)
 .comment       0x0000007e       0x7f ./SysLib/MercuryPlat/release/AL36V200_SDK.a(gprs_tcp.o)
 .comment       0x0000007e       0x7f ./SysLib/MercuryPlat/release/AL36V200_SDK.a(tcp.o)
 .comment       0x0000007e       0x7f ./SysLib/MercuryPlat/release/AL36V200_SDK.a(wifi_tcp.o)
 .comment       0x0000007e       0x7f ./SysLib/MercuryPlat/release/AL36V200_SDK.a(amoi_memory.o)
 .comment       0x0000007e       0x7f ./SysLib/MercuryPlat/release/AL36V200_SDK.a(base64.o)
 .comment       0x0000007e       0x7f ./SysLib/MercuryPlat/release/AL36V200_SDK.a(md5.o)
 .comment       0x0000007e       0x7f ./SysLib/MercuryPlat/release/AL36V200_SDK.a(sha256.o)
 .comment       0x0000007e       0x7f ./SysLib/MercuryPlat/release/AL36V200_SDK.a(tls.o)
 .comment       0x0000007e       0x7f ./SysLib/MercuryPlat/release/AL36V200_SDK.a(x509_crt.o)
 .comment       0x0000007e       0x7f ./SysLib/MercuryPlat/release/AL36V200_SDK.a(QYY_API_AUDIO.o)
 .comment       0x0000007e       0x7f ./SysLib/MercuryPlat/release/AL36V200_SDK.a(QYY_API_LED.o)
 .comment       0x0000007e       0x7f ./SysLib/MercuryPlat/release/AL36V200_SDK.a(QYY_API_MQTT.o)
 .comment       0x0000007e       0x7f ./SysLib/MercuryPlat/release/AL36V200_SDK.a(QYY_API_SYS.o)
 .comment       0x0000007e       0x7f ./SysLib/MercuryPlat/release/AL36V200_SDK.a(QYY_API_TCP.o)
 .comment       0x0000007e       0x7f ./SysLib/MercuryPlat/release/AL36V200_SDK.a(QYY_API_URLEN.o)
 .comment       0x0000007e       0x7f ./SysLib/MercuryPlat/release/AL36V200_SDK.a(QYY_API_HMAC.o)
 .comment       0x0000007e       0x7f ./SysLib/MercuryPlat/release/AL36V200_SDK.a(QYY_API_NTP.o)
 .comment       0x0000007e       0x7f ./SysLib/MercuryPlat/release/AL36V200_SDK.a(QYY_API_DISPLAY.o)
 .comment       0x0000007e       0x7f ./SysLib/MercuryPlat/release/AL36V200_SDK.a(QYY_API_FS.o)
 .comment       0x0000007e       0x7f ./SysLib/MercuryPlat/release/AL36V200_SDK.a(atthread.o)
 .comment       0x0000007e       0x7f ./SysLib/MercuryPlat/release/AL36V200_SDK.a(amp_ctl.o)
 .comment       0x0000007e       0x7f ./SysLib/MercuryPlat/release/AL36V200_SDK.a(device.o)
 .comment       0x0000007e       0x7f ./SysLib/MercuryPlat/release/AL36V200_SDK.a(se_wifi_reset.o)
 .comment       0x0000007e       0x7f ./SysLib/MercuryPlat/release/AL36V200_SDK.a(MQTTFormat.o)
 .comment       0x0000007e       0x7f ./SysLib/MercuryPlat/release/AL36V200_SDK.a(MQTTClient.o)
 .comment       0x0000007e       0x7f ./SysLib/MercuryPlat/release/AL36V200_SDK.a(MQTTFreeRTOS.o)
 .comment       0x0000007e       0x7f ./SysLib/MercuryPlat/release/AL36V200_SDK.a(cp936.o)
 .comment       0x0000007e       0x7f ./SysLib/MercuryPlat/release/AL36V200_SDK.a(asn1parse.o)
 .comment       0x0000007e       0x7f ./SysLib/MercuryPlat/release/AL36V200_SDK.a(bignum.o)
 .comment       0x0000007e       0x7f ./SysLib/MercuryPlat/release/AL36V200_SDK.a(ctr_drbg.o)
 .comment       0x0000007e       0x7f ./SysLib/MercuryPlat/release/AL36V200_SDK.a(entropy.o)
 .comment       0x0000007e       0x7f ./SysLib/MercuryPlat/release/AL36V200_SDK.a(error.o)
 .comment       0x0000007e       0x7f ./SysLib/MercuryPlat/release/AL36V200_SDK.a(md.o)
 .comment       0x0000007e       0x7f ./SysLib/MercuryPlat/release/AL36V200_SDK.a(md_wrap.o)
 .comment       0x0000007e       0x7f ./SysLib/MercuryPlat/release/AL36V200_SDK.a(net.o)
 .comment       0x0000007e       0x7f ./SysLib/MercuryPlat/release/AL36V200_SDK.a(oid.o)
 .comment       0x0000007e       0x7f ./SysLib/MercuryPlat/release/AL36V200_SDK.a(pem.o)
 .comment       0x0000007e       0x7f ./SysLib/MercuryPlat/release/AL36V200_SDK.a(pk.o)
 .comment       0x0000007e       0x7f ./SysLib/MercuryPlat/release/AL36V200_SDK.a(pk_wrap.o)
 .comment       0x0000007e       0x7f ./SysLib/MercuryPlat/release/AL36V200_SDK.a(pkparse.o)
 .comment       0x0000007e       0x7f ./SysLib/MercuryPlat/release/AL36V200_SDK.a(ripemd160.o)
 .comment       0x0000007e       0x7f ./SysLib/MercuryPlat/release/AL36V200_SDK.a(rsa.o)
 .comment       0x0000007e       0x7f ./SysLib/MercuryPlat/release/AL36V200_SDK.a(sha1.o)
 .comment       0x0000007e       0x7f ./SysLib/MercuryPlat/release/AL36V200_SDK.a(sha512.o)
 .comment       0x0000007e       0x7f ./SysLib/MercuryPlat/release/AL36V200_SDK.a(ssl_tls.o)
 .comment       0x0000007e       0x7f ./SysLib/MercuryPlat/release/AL36V200_SDK.a(x509.o)
 .comment       0x0000007e       0x7f ./SysLib/MercuryPlat/release/AL36V200_SDK.a(MQTTConnectClient.o)
 .comment       0x0000007e       0x7f ./SysLib/MercuryPlat/release/AL36V200_SDK.a(MQTTDeserializePublish.o)
 .comment       0x0000007e       0x7f ./SysLib/MercuryPlat/release/AL36V200_SDK.a(MQTTPacket.o)
 .comment       0x0000007e       0x7f ./SysLib/MercuryPlat/release/AL36V200_SDK.a(MQTTSerializePublish.o)
 .comment       0x0000007e       0x7f ./SysLib/MercuryPlat/release/AL36V200_SDK.a(MQTTSubscribeClient.o)
 .comment       0x0000007e       0x7f ./SysLib/MercuryPlat/release/AL36V200_SDK.a(MQTTUnsubscribeClient.o)
 .comment       0x0000007e       0x7f ./SysLib/MercuryPlat/release/AL36V200_SDK.a(ac35_hardware.o)
 .comment       0x0000007e       0x7f ./SysLib/MercuryPlat/release/AL36V200_SDK.a(aes.o)
 .comment       0x0000007e       0x7f ./SysLib/MercuryPlat/release/AL36V200_SDK.a(cipher.o)
 .comment       0x0000007e       0x7f ./SysLib/MercuryPlat/release/AL36V200_SDK.a(cipher_wrap.o)
 .comment       0x0000007e       0x7f ./SysLib/MercuryPlat/release/AL36V200_SDK.a(debug.o)
 .comment       0x0000007e       0x7f ./SysLib/MercuryPlat/release/AL36V200_SDK.a(des.o)
 .comment       0x0000007e       0x7f ./SysLib/MercuryPlat/release/AL36V200_SDK.a(dhm.o)
 .comment       0x0000007e       0x7f ./SysLib/MercuryPlat/release/AL36V200_SDK.a(ecdh.o)
 .comment       0x0000007e       0x7f ./SysLib/MercuryPlat/release/AL36V200_SDK.a(ecdsa.o)
 .comment       0x0000007e       0x7f ./SysLib/MercuryPlat/release/AL36V200_SDK.a(ecp.o)
 .comment       0x0000007e       0x7f ./SysLib/MercuryPlat/release/AL36V200_SDK.a(ecp_curves.o)
 .comment       0x0000007e       0x7f ./SysLib/MercuryPlat/release/AL36V200_SDK.a(gcm.o)
 .comment       0x0000007e       0x7f ./SysLib/MercuryPlat/release/AL36V200_SDK.a(hmac_drbg.o)
 .comment       0x0000007e       0x7f ./SysLib/MercuryPlat/release/AL36V200_SDK.a(pkcs5.o)
 .comment       0x0000007e       0x7f ./SysLib/MercuryPlat/release/AL36V200_SDK.a(pkcs12.o)
 .comment       0x0000007e       0x7f ./SysLib/MercuryPlat/release/AL36V200_SDK.a(ssl_ciphersuites.o)
 .comment       0x0000007e       0x7f ./SysLib/MercuryPlat/release/AL36V200_SDK.a(ssl_cli.o)
 .comment       0x0000007e       0x7f ./SysLib/MercuryPlat/release/AL36V200_SDK.a(arc4.o)
 .comment       0x0000007e       0x7f ./SysLib/MercuryPlat/release/AL36V200_SDK.a(asn1write.o)
 .comment       0x0000007e       0x7f ./SysLib/MercuryPlat/release/AL36V200_SDK.a(camellia.o)
 .comment       0x0000007e       0x7f ./SysLib/MercuryPlat/release/AL36V200_SDK.a(ccm.o)
 .comment       0x0000007e       0x7f ./SysLib/MercuryPlat/release/libsystem.a(MercuryBarScan.o)
 .comment       0x0000007e       0x7f ./SysLib/MercuryPlat/release/libsystem.a(MercuryCom.o)
 .comment       0x0000007e       0x7f ./SysLib/MercuryPlat/release/libsystem.a(MercurySec.o)
 .comment       0x0000007e       0x7f ./SysLib/MercuryPlat/release/libsystem.a(MercurySpi.o)

.ARM.attributes
                0x00000000       0x3f
 .ARM.attributes
                0x00000000       0x3d ./SysLib/MercuryPlat/release/libsystem.a(main_entry.o)
 .ARM.attributes
                0x0000003d       0x3d ./SysLib/MercuryPlat/release/libsystem.a(MercuryCSTD.o)
 .ARM.attributes
                0x0000007a       0x3d .//build/MainApp/release/lib\libMainApp.a(test_main.o)
 .ARM.attributes
                0x000000b7       0x3d .//build/MainApp/release/lib\libMainApp.a(keypad.o)
 .ARM.attributes
                0x000000f4       0x3d .//build/MainApp/release/lib\libMainApp.a(transactions.o)
 .ARM.attributes
                0x00000131       0x3d .//build/MainApp/release/lib\libMainApp.a(wifi.o)
 .ARM.attributes
                0x0000016e       0x3d .//build/MainApp/release/lib\libMainApp.a(app_system.o)
 .ARM.attributes
                0x000001ab       0x3d .//build/MainApp/release/lib\libMainApp.a(push_msg_parse.o)
 .ARM.attributes
                0x000001e8       0x3d .//build/MainApp/release/lib\libMainApp.a(app_config.o)
 .ARM.attributes
                0x00000225       0x3d .//build/MainApp/release/lib\libMainApp.a(connect_mqtt_soundbox_server.o)
 .ARM.attributes
                0x00000262       0x3d .//build/MainApp/release/lib\libMainApp.a(24_24_lcd.o)
 .ARM.attributes
                0x0000029f       0x3d .//build/MainApp/release/lib\libMainApp.a(led.o)
 .ARM.attributes
                0x000002dc       0x3d .//build/MainApp/release/lib\libMainApp.a(app_qrcode.o)
 .ARM.attributes
                0x00000319       0x3d .//build/MainApp/release/lib\libMainApp.a(device.o)
 .ARM.attributes
                0x00000356       0x3d .//build/MainApp/release/lib\libMainApp.a(app_fota.o)
 .ARM.attributes
                0x00000393       0x3d .//build/MainApp/release/lib\libMainApp.a(temp.o)
 .ARM.attributes
                0x000003d0       0x3d .//build/MainApp/release/lib\libMainApp.a(app_audio.o)
 .ARM.attributes
                0x0000040d       0x3d .//build/MainApp/release/lib\libMainApp.a(global.o)
 .ARM.attributes
                0x0000044a       0x3d .//build/MainApp/release/lib\libMainApp.a(data_parser.o)
 .ARM.attributes
                0x00000487       0x3d .//build/MainApp/release/lib\libMainApp.a(app_power.o)
 .ARM.attributes
                0x000004c4       0x1b .//prebuilts/win32/gcc-arm-none-eabi/lib/gcc/arm-none-eabi/7.2.1\libgcc.a(_divsi3.o)
 .ARM.attributes
                0x000004df       0x1b .//prebuilts/win32/gcc-arm-none-eabi/lib/gcc/arm-none-eabi/7.2.1\libgcc.a(_dvmd_tls.o)
 .ARM.attributes
                0x000004fa       0x3d ./SysLib/MercuryPlat/release/libsystem.a(MercuryAudio.o)
 .ARM.attributes
                0x00000537       0x3d ./SysLib/MercuryPlat/release/libsystem.a(MercuryBattery.o)
 .ARM.attributes
                0x00000574       0x3d ./SysLib/MercuryPlat/release/libsystem.a(MercuryFile.o)
 .ARM.attributes
                0x000005b1       0x3d ./SysLib/MercuryPlat/release/libsystem.a(MercuryFota.o)
 .ARM.attributes
                0x000005ee       0x3d ./SysLib/MercuryPlat/release/libsystem.a(MercuryGpio.o)
 .ARM.attributes
                0x0000062b       0x3d ./SysLib/MercuryPlat/release/libsystem.a(MercuryGraphics.o)
 .ARM.attributes
                0x00000668       0x3d ./SysLib/MercuryPlat/release/libsystem.a(MercuryKeypad.o)
 .ARM.attributes
                0x000006a5       0x3d ./SysLib/MercuryPlat/release/libsystem.a(MercuryMem.o)
 .ARM.attributes
                0x000006e2       0x3d ./SysLib/MercuryPlat/release/libsystem.a(MercuryNLed.o)
 .ARM.attributes
                0x0000071f       0x3d ./SysLib/MercuryPlat/release/libsystem.a(MercuryNet.o)
 .ARM.attributes
                0x0000075c       0x3d ./SysLib/MercuryPlat/release/libsystem.a(MercuryNv.o)
 .ARM.attributes
                0x00000799       0x3d ./SysLib/MercuryPlat/release/libsystem.a(MercuryPlat.o)
 .ARM.attributes
                0x000007d6       0x3d ./SysLib/MercuryPlat/release/libsystem.a(MercuryPowerManager.o)
 .ARM.attributes
                0x00000813       0x3d ./SysLib/MercuryPlat/release/libsystem.a(MercurySyn.o)
 .ARM.attributes
                0x00000850       0x3d ./SysLib/MercuryPlat/release/libsystem.a(MercuryThread.o)
 .ARM.attributes
                0x0000088d       0x3d ./SysLib/MercuryPlat/release/libsystem.a(MercuryTimer.o)
 .ARM.attributes
                0x000008ca       0x3d ./SysLib/MercuryPlat/release/libsystem.a(MercuryTts.o)
 .ARM.attributes
                0x00000907       0x3d ./SysLib/MercuryPlat/release/AL36V200_SDK.a(QYY_API_FOTA.o)
 .ARM.attributes
                0x00000944       0x3d ./SysLib/MercuryPlat/release/AL36V200_SDK.a(QYY_API_POWER.o)
 .ARM.attributes
                0x00000981       0x3d ./SysLib/MercuryPlat/release/AL36V200_SDK.a(QYY_API_BCS_DISPLAY.o)
 .ARM.attributes
                0x000009be       0x3d ./SysLib/MercuryPlat/release/AL36V200_SDK.a(qyy_to_sdk.o)
 .ARM.attributes
                0x000009fb       0x3d ./SysLib/MercuryPlat/release/AL36V200_SDK.a(gpio.o)
 .ARM.attributes
                0x00000a38       0x3d ./SysLib/MercuryPlat/release/AL36V200_SDK.a(keypad.o)
 .ARM.attributes
                0x00000a75       0x3d ./SysLib/MercuryPlat/release/AL36V200_SDK.a(lcddrv.o)
 .ARM.attributes
                0x00000ab2       0x3d ./SysLib/MercuryPlat/release/AL36V200_SDK.a(bcs_lcddrv.o)
 .ARM.attributes
                0x00000aef       0x3d ./SysLib/MercuryPlat/release/AL36V200_SDK.a(http.o)
 .ARM.attributes
                0x00000b2c       0x3d ./SysLib/MercuryPlat/release/AL36V200_SDK.a(http_parser.o)
 .ARM.attributes
                0x00000b69       0x3d ./SysLib/MercuryPlat/release/AL36V200_SDK.a(http_post.o)
 .ARM.attributes
                0x00000ba6       0x3d ./SysLib/MercuryPlat/release/AL36V200_SDK.a(cjson.o)
 .ARM.attributes
                0x00000be3       0x3d ./SysLib/MercuryPlat/release/AL36V200_SDK.a(utf2gb.o)
 .ARM.attributes
                0x00000c20       0x3d ./SysLib/MercuryPlat/release/AL36V200_SDK.a(gprs_tcp.o)
 .ARM.attributes
                0x00000c5d       0x3d ./SysLib/MercuryPlat/release/AL36V200_SDK.a(tcp.o)
 .ARM.attributes
                0x00000c9a       0x3d ./SysLib/MercuryPlat/release/AL36V200_SDK.a(wifi_tcp.o)
 .ARM.attributes
                0x00000cd7       0x3d ./SysLib/MercuryPlat/release/AL36V200_SDK.a(amoi_memory.o)
 .ARM.attributes
                0x00000d14       0x3d ./SysLib/MercuryPlat/release/AL36V200_SDK.a(base64.o)
 .ARM.attributes
                0x00000d51       0x3d ./SysLib/MercuryPlat/release/AL36V200_SDK.a(md5.o)
 .ARM.attributes
                0x00000d8e       0x3d ./SysLib/MercuryPlat/release/AL36V200_SDK.a(sha256.o)
 .ARM.attributes
                0x00000dcb       0x3d ./SysLib/MercuryPlat/release/AL36V200_SDK.a(tls.o)
 .ARM.attributes
                0x00000e08       0x3d ./SysLib/MercuryPlat/release/AL36V200_SDK.a(x509_crt.o)
 .ARM.attributes
                0x00000e45       0x3d ./SysLib/MercuryPlat/release/AL36V200_SDK.a(QYY_API_AUDIO.o)
 .ARM.attributes
                0x00000e82       0x3d ./SysLib/MercuryPlat/release/AL36V200_SDK.a(QYY_API_LED.o)
 .ARM.attributes
                0x00000ebf       0x3d ./SysLib/MercuryPlat/release/AL36V200_SDK.a(QYY_API_MQTT.o)
 .ARM.attributes
                0x00000efc       0x3d ./SysLib/MercuryPlat/release/AL36V200_SDK.a(QYY_API_SYS.o)
 .ARM.attributes
                0x00000f39       0x3d ./SysLib/MercuryPlat/release/AL36V200_SDK.a(QYY_API_TCP.o)
 .ARM.attributes
                0x00000f76       0x3d ./SysLib/MercuryPlat/release/AL36V200_SDK.a(QYY_API_URLEN.o)
 .ARM.attributes
                0x00000fb3       0x3d ./SysLib/MercuryPlat/release/AL36V200_SDK.a(QYY_API_HMAC.o)
 .ARM.attributes
                0x00000ff0       0x3d ./SysLib/MercuryPlat/release/AL36V200_SDK.a(QYY_API_NTP.o)
 .ARM.attributes
                0x0000102d       0x3d ./SysLib/MercuryPlat/release/AL36V200_SDK.a(QYY_API_DISPLAY.o)
 .ARM.attributes
                0x0000106a       0x3d ./SysLib/MercuryPlat/release/AL36V200_SDK.a(QYY_API_FS.o)
 .ARM.attributes
                0x000010a7       0x3d ./SysLib/MercuryPlat/release/AL36V200_SDK.a(atthread.o)
 .ARM.attributes
                0x000010e4       0x3d ./SysLib/MercuryPlat/release/AL36V200_SDK.a(amp_ctl.o)
 .ARM.attributes
                0x00001121       0x3d ./SysLib/MercuryPlat/release/AL36V200_SDK.a(device.o)
 .ARM.attributes
                0x0000115e       0x3d ./SysLib/MercuryPlat/release/AL36V200_SDK.a(se_wifi_reset.o)
 .ARM.attributes
                0x0000119b       0x3d ./SysLib/MercuryPlat/release/AL36V200_SDK.a(MQTTFormat.o)
 .ARM.attributes
                0x000011d8       0x3d ./SysLib/MercuryPlat/release/AL36V200_SDK.a(MQTTClient.o)
 .ARM.attributes
                0x00001215       0x3d ./SysLib/MercuryPlat/release/AL36V200_SDK.a(MQTTFreeRTOS.o)
 .ARM.attributes
                0x00001252       0x3d ./SysLib/MercuryPlat/release/AL36V200_SDK.a(cp936.o)
 .ARM.attributes
                0x0000128f       0x3d ./SysLib/MercuryPlat/release/AL36V200_SDK.a(asn1parse.o)
 .ARM.attributes
                0x000012cc       0x3d ./SysLib/MercuryPlat/release/AL36V200_SDK.a(bignum.o)
 .ARM.attributes
                0x00001309       0x3d ./SysLib/MercuryPlat/release/AL36V200_SDK.a(ctr_drbg.o)
 .ARM.attributes
                0x00001346       0x3d ./SysLib/MercuryPlat/release/AL36V200_SDK.a(entropy.o)
 .ARM.attributes
                0x00001383       0x3d ./SysLib/MercuryPlat/release/AL36V200_SDK.a(error.o)
 .ARM.attributes
                0x000013c0       0x3d ./SysLib/MercuryPlat/release/AL36V200_SDK.a(md.o)
 .ARM.attributes
                0x000013fd       0x3d ./SysLib/MercuryPlat/release/AL36V200_SDK.a(md_wrap.o)
 .ARM.attributes
                0x0000143a       0x3d ./SysLib/MercuryPlat/release/AL36V200_SDK.a(net.o)
 .ARM.attributes
                0x00001477       0x3d ./SysLib/MercuryPlat/release/AL36V200_SDK.a(oid.o)
 .ARM.attributes
                0x000014b4       0x3d ./SysLib/MercuryPlat/release/AL36V200_SDK.a(pem.o)
 .ARM.attributes
                0x000014f1       0x3d ./SysLib/MercuryPlat/release/AL36V200_SDK.a(pk.o)
 .ARM.attributes
                0x0000152e       0x3d ./SysLib/MercuryPlat/release/AL36V200_SDK.a(pk_wrap.o)
 .ARM.attributes
                0x0000156b       0x3d ./SysLib/MercuryPlat/release/AL36V200_SDK.a(pkparse.o)
 .ARM.attributes
                0x000015a8       0x3d ./SysLib/MercuryPlat/release/AL36V200_SDK.a(ripemd160.o)
 .ARM.attributes
                0x000015e5       0x3d ./SysLib/MercuryPlat/release/AL36V200_SDK.a(rsa.o)
 .ARM.attributes
                0x00001622       0x3d ./SysLib/MercuryPlat/release/AL36V200_SDK.a(sha1.o)
 .ARM.attributes
                0x0000165f       0x3d ./SysLib/MercuryPlat/release/AL36V200_SDK.a(sha512.o)
 .ARM.attributes
                0x0000169c       0x3d ./SysLib/MercuryPlat/release/AL36V200_SDK.a(ssl_tls.o)
 .ARM.attributes
                0x000016d9       0x3d ./SysLib/MercuryPlat/release/AL36V200_SDK.a(x509.o)
 .ARM.attributes
                0x00001716       0x3d ./SysLib/MercuryPlat/release/AL36V200_SDK.a(MQTTConnectClient.o)
 .ARM.attributes
                0x00001753       0x3d ./SysLib/MercuryPlat/release/AL36V200_SDK.a(MQTTDeserializePublish.o)
 .ARM.attributes
                0x00001790       0x3d ./SysLib/MercuryPlat/release/AL36V200_SDK.a(MQTTPacket.o)
 .ARM.attributes
                0x000017cd       0x3d ./SysLib/MercuryPlat/release/AL36V200_SDK.a(MQTTSerializePublish.o)
 .ARM.attributes
                0x0000180a       0x3d ./SysLib/MercuryPlat/release/AL36V200_SDK.a(MQTTSubscribeClient.o)
 .ARM.attributes
                0x00001847       0x3d ./SysLib/MercuryPlat/release/AL36V200_SDK.a(MQTTUnsubscribeClient.o)
 .ARM.attributes
                0x00001884       0x3d ./SysLib/MercuryPlat/release/AL36V200_SDK.a(ac35_hardware.o)
 .ARM.attributes
                0x000018c1       0x3d ./SysLib/MercuryPlat/release/AL36V200_SDK.a(aes.o)
 .ARM.attributes
                0x000018fe       0x3d ./SysLib/MercuryPlat/release/AL36V200_SDK.a(cipher.o)
 .ARM.attributes
                0x0000193b       0x3d ./SysLib/MercuryPlat/release/AL36V200_SDK.a(cipher_wrap.o)
 .ARM.attributes
                0x00001978       0x3d ./SysLib/MercuryPlat/release/AL36V200_SDK.a(debug.o)
 .ARM.attributes
                0x000019b5       0x3d ./SysLib/MercuryPlat/release/AL36V200_SDK.a(des.o)
 .ARM.attributes
                0x000019f2       0x3d ./SysLib/MercuryPlat/release/AL36V200_SDK.a(dhm.o)
 .ARM.attributes
                0x00001a2f       0x3d ./SysLib/MercuryPlat/release/AL36V200_SDK.a(ecdh.o)
 .ARM.attributes
                0x00001a6c       0x3d ./SysLib/MercuryPlat/release/AL36V200_SDK.a(ecdsa.o)
 .ARM.attributes
                0x00001aa9       0x3d ./SysLib/MercuryPlat/release/AL36V200_SDK.a(ecp.o)
 .ARM.attributes
                0x00001ae6       0x3d ./SysLib/MercuryPlat/release/AL36V200_SDK.a(ecp_curves.o)
 .ARM.attributes
                0x00001b23       0x3d ./SysLib/MercuryPlat/release/AL36V200_SDK.a(gcm.o)
 .ARM.attributes
                0x00001b60       0x3d ./SysLib/MercuryPlat/release/AL36V200_SDK.a(hmac_drbg.o)
 .ARM.attributes
                0x00001b9d       0x3d ./SysLib/MercuryPlat/release/AL36V200_SDK.a(pkcs5.o)
 .ARM.attributes
                0x00001bda       0x3d ./SysLib/MercuryPlat/release/AL36V200_SDK.a(pkcs12.o)
 .ARM.attributes
                0x00001c17       0x3d ./SysLib/MercuryPlat/release/AL36V200_SDK.a(ssl_ciphersuites.o)
 .ARM.attributes
                0x00001c54       0x3d ./SysLib/MercuryPlat/release/AL36V200_SDK.a(ssl_cli.o)
 .ARM.attributes
                0x00001c91       0x3d ./SysLib/MercuryPlat/release/AL36V200_SDK.a(arc4.o)
 .ARM.attributes
                0x00001cce       0x3d ./SysLib/MercuryPlat/release/AL36V200_SDK.a(asn1write.o)
 .ARM.attributes
                0x00001d0b       0x3d ./SysLib/MercuryPlat/release/AL36V200_SDK.a(camellia.o)
 .ARM.attributes
                0x00001d48       0x3d ./SysLib/MercuryPlat/release/AL36V200_SDK.a(ccm.o)
 .ARM.attributes
                0x00001d85       0x1b .//prebuilts/win32/gcc-arm-none-eabi/lib/gcc/arm-none-eabi/7.2.1\libgcc.a(_udivsi3.o)
 .ARM.attributes
                0x00001da0       0x1b .//prebuilts/win32/gcc-arm-none-eabi/lib/gcc/arm-none-eabi/7.2.1\libgcc.a(_aeabi_ldivmod.o)
 .ARM.attributes
                0x00001dbb       0x1b .//prebuilts/win32/gcc-arm-none-eabi/lib/gcc/arm-none-eabi/7.2.1\libgcc.a(_aeabi_uldivmod.o)
 .ARM.attributes
                0x00001dd6       0x2d .//prebuilts/win32/gcc-arm-none-eabi/lib/gcc/arm-none-eabi/7.2.1\libgcc.a(_udivmoddi4.o)
 .ARM.attributes
                0x00001e03       0x3d ./SysLib/MercuryPlat/release/libsystem.a(MercuryBarScan.o)
 .ARM.attributes
                0x00001e40       0x3d ./SysLib/MercuryPlat/release/libsystem.a(MercuryCom.o)
 .ARM.attributes
                0x00001e7d       0x3d ./SysLib/MercuryPlat/release/libsystem.a(MercurySec.o)
 .ARM.attributes
                0x00001eba       0x3d ./SysLib/MercuryPlat/release/libsystem.a(MercurySpi.o)

.debug_frame    0x00000000     0xeab4
 .debug_frame   0x00000000       0x60 ./SysLib/MercuryPlat/release/libsystem.a(main_entry.o)
 .debug_frame   0x00000060      0x3a8 ./SysLib/MercuryPlat/release/libsystem.a(MercuryCSTD.o)
 .debug_frame   0x00000408      0x168 .//build/MainApp/release/lib\libMainApp.a(test_main.o)
 .debug_frame   0x00000570      0x3ec .//build/MainApp/release/lib\libMainApp.a(keypad.o)
 .debug_frame   0x0000095c       0x38 .//build/MainApp/release/lib\libMainApp.a(transactions.o)
 .debug_frame   0x00000994      0x124 .//build/MainApp/release/lib\libMainApp.a(wifi.o)
 .debug_frame   0x00000ab8       0x54 .//build/MainApp/release/lib\libMainApp.a(app_system.o)
 .debug_frame   0x00000b0c      0x560 .//build/MainApp/release/lib\libMainApp.a(push_msg_parse.o)
 .debug_frame   0x0000106c      0x150 .//build/MainApp/release/lib\libMainApp.a(app_config.o)
 .debug_frame   0x000011bc      0x1e8 .//build/MainApp/release/lib\libMainApp.a(connect_mqtt_soundbox_server.o)
 .debug_frame   0x000013a4       0xdc .//build/MainApp/release/lib\libMainApp.a(led.o)
 .debug_frame   0x00001480       0xf8 .//build/MainApp/release/lib\libMainApp.a(app_qrcode.o)
 .debug_frame   0x00001578       0x78 .//build/MainApp/release/lib\libMainApp.a(device.o)
 .debug_frame   0x000015f0      0x158 .//build/MainApp/release/lib\libMainApp.a(app_fota.o)
 .debug_frame   0x00001748      0x4a4 .//build/MainApp/release/lib\libMainApp.a(temp.o)
 .debug_frame   0x00001bec      0x1b4 .//build/MainApp/release/lib\libMainApp.a(app_audio.o)
 .debug_frame   0x00001da0       0xa0 .//build/MainApp/release/lib\libMainApp.a(data_parser.o)
 .debug_frame   0x00001e40      0x134 .//build/MainApp/release/lib\libMainApp.a(app_power.o)
 .debug_frame   0x00001f74       0x20 .//prebuilts/win32/gcc-arm-none-eabi/lib/gcc/arm-none-eabi/7.2.1\libgcc.a(_divsi3.o)
 .debug_frame   0x00001f94      0x19c ./SysLib/MercuryPlat/release/libsystem.a(MercuryAudio.o)
 .debug_frame   0x00002130       0x20 ./SysLib/MercuryPlat/release/libsystem.a(MercuryBattery.o)
 .debug_frame   0x00002150      0x320 ./SysLib/MercuryPlat/release/libsystem.a(MercuryFile.o)
 .debug_frame   0x00002470      0x25c ./SysLib/MercuryPlat/release/libsystem.a(MercuryFota.o)
 .debug_frame   0x000026cc      0x130 ./SysLib/MercuryPlat/release/libsystem.a(MercuryGpio.o)
 .debug_frame   0x000027fc      0x260 ./SysLib/MercuryPlat/release/libsystem.a(MercuryGraphics.o)
 .debug_frame   0x00002a5c       0xe8 ./SysLib/MercuryPlat/release/libsystem.a(MercuryKeypad.o)
 .debug_frame   0x00002b44       0xa0 ./SysLib/MercuryPlat/release/libsystem.a(MercuryMem.o)
 .debug_frame   0x00002be4       0xec ./SysLib/MercuryPlat/release/libsystem.a(MercuryNLed.o)
 .debug_frame   0x00002cd0      0x864 ./SysLib/MercuryPlat/release/libsystem.a(MercuryNet.o)
 .debug_frame   0x00003534      0x120 ./SysLib/MercuryPlat/release/libsystem.a(MercuryNv.o)
 .debug_frame   0x00003654      0x1dc ./SysLib/MercuryPlat/release/libsystem.a(MercuryPlat.o)
 .debug_frame   0x00003830      0x1e8 ./SysLib/MercuryPlat/release/libsystem.a(MercuryPowerManager.o)
 .debug_frame   0x00003a18      0x250 ./SysLib/MercuryPlat/release/libsystem.a(MercurySyn.o)
 .debug_frame   0x00003c68      0x198 ./SysLib/MercuryPlat/release/libsystem.a(MercuryThread.o)
 .debug_frame   0x00003e00      0x148 ./SysLib/MercuryPlat/release/libsystem.a(MercuryTimer.o)
 .debug_frame   0x00003f48      0x15c ./SysLib/MercuryPlat/release/libsystem.a(MercuryTts.o)
 .debug_frame   0x000040a4      0x150 ./SysLib/MercuryPlat/release/AL36V200_SDK.a(QYY_API_FOTA.o)
 .debug_frame   0x000041f4      0x100 ./SysLib/MercuryPlat/release/AL36V200_SDK.a(QYY_API_POWER.o)
 .debug_frame   0x000042f4      0x19c ./SysLib/MercuryPlat/release/AL36V200_SDK.a(QYY_API_BCS_DISPLAY.o)
 .debug_frame   0x00004490      0x8d8 ./SysLib/MercuryPlat/release/AL36V200_SDK.a(qyy_to_sdk.o)
 .debug_frame   0x00004d68      0x194 ./SysLib/MercuryPlat/release/AL36V200_SDK.a(gpio.o)
 .debug_frame   0x00004efc      0x184 ./SysLib/MercuryPlat/release/AL36V200_SDK.a(keypad.o)
 .debug_frame   0x00005080      0x280 ./SysLib/MercuryPlat/release/AL36V200_SDK.a(lcddrv.o)
 .debug_frame   0x00005300      0x204 ./SysLib/MercuryPlat/release/AL36V200_SDK.a(bcs_lcddrv.o)
 .debug_frame   0x00005504      0x300 ./SysLib/MercuryPlat/release/AL36V200_SDK.a(http.o)
 .debug_frame   0x00005804      0x138 ./SysLib/MercuryPlat/release/AL36V200_SDK.a(http_parser.o)
 .debug_frame   0x0000593c      0x298 ./SysLib/MercuryPlat/release/AL36V200_SDK.a(http_post.o)
 .debug_frame   0x00005bd4      0x520 ./SysLib/MercuryPlat/release/AL36V200_SDK.a(cjson.o)
 .debug_frame   0x000060f4       0x6c ./SysLib/MercuryPlat/release/AL36V200_SDK.a(utf2gb.o)
 .debug_frame   0x00006160      0x338 ./SysLib/MercuryPlat/release/AL36V200_SDK.a(gprs_tcp.o)
 .debug_frame   0x00006498      0x1f4 ./SysLib/MercuryPlat/release/AL36V200_SDK.a(tcp.o)
 .debug_frame   0x0000668c      0x844 ./SysLib/MercuryPlat/release/AL36V200_SDK.a(wifi_tcp.o)
 .debug_frame   0x00006ed0       0x50 ./SysLib/MercuryPlat/release/AL36V200_SDK.a(amoi_memory.o)
 .debug_frame   0x00006f20       0x58 ./SysLib/MercuryPlat/release/AL36V200_SDK.a(base64.o)
 .debug_frame   0x00006f78      0x110 ./SysLib/MercuryPlat/release/AL36V200_SDK.a(md5.o)
 .debug_frame   0x00007088      0x110 ./SysLib/MercuryPlat/release/AL36V200_SDK.a(sha256.o)
 .debug_frame   0x00007198      0x158 ./SysLib/MercuryPlat/release/AL36V200_SDK.a(tls.o)
 .debug_frame   0x000072f0      0x2c8 ./SysLib/MercuryPlat/release/AL36V200_SDK.a(x509_crt.o)
 .debug_frame   0x000075b8      0x41c ./SysLib/MercuryPlat/release/AL36V200_SDK.a(QYY_API_AUDIO.o)
 .debug_frame   0x000079d4       0x64 ./SysLib/MercuryPlat/release/AL36V200_SDK.a(QYY_API_LED.o)
 .debug_frame   0x00007a38      0x170 ./SysLib/MercuryPlat/release/AL36V200_SDK.a(QYY_API_MQTT.o)
 .debug_frame   0x00007ba8      0x32c ./SysLib/MercuryPlat/release/AL36V200_SDK.a(QYY_API_SYS.o)
 .debug_frame   0x00007ed4       0xb8 ./SysLib/MercuryPlat/release/AL36V200_SDK.a(QYY_API_TCP.o)
 .debug_frame   0x00007f8c      0x100 ./SysLib/MercuryPlat/release/AL36V200_SDK.a(QYY_API_URLEN.o)
 .debug_frame   0x0000808c       0x3c ./SysLib/MercuryPlat/release/AL36V200_SDK.a(QYY_API_HMAC.o)
 .debug_frame   0x000080c8       0xc4 ./SysLib/MercuryPlat/release/AL36V200_SDK.a(QYY_API_NTP.o)
 .debug_frame   0x0000818c      0x348 ./SysLib/MercuryPlat/release/AL36V200_SDK.a(QYY_API_DISPLAY.o)
 .debug_frame   0x000084d4       0x4c ./SysLib/MercuryPlat/release/AL36V200_SDK.a(QYY_API_FS.o)
 .debug_frame   0x00008520      0x190 ./SysLib/MercuryPlat/release/AL36V200_SDK.a(atthread.o)
 .debug_frame   0x000086b0       0x30 ./SysLib/MercuryPlat/release/AL36V200_SDK.a(amp_ctl.o)
 .debug_frame   0x000086e0       0x68 ./SysLib/MercuryPlat/release/AL36V200_SDK.a(device.o)
 .debug_frame   0x00008748       0x40 ./SysLib/MercuryPlat/release/AL36V200_SDK.a(se_wifi_reset.o)
 .debug_frame   0x00008788      0x120 ./SysLib/MercuryPlat/release/AL36V200_SDK.a(MQTTFormat.o)
 .debug_frame   0x000088a8      0x298 ./SysLib/MercuryPlat/release/AL36V200_SDK.a(MQTTClient.o)
 .debug_frame   0x00008b40      0x154 ./SysLib/MercuryPlat/release/AL36V200_SDK.a(MQTTFreeRTOS.o)
 .debug_frame   0x00008c94      0x1a8 ./SysLib/MercuryPlat/release/AL36V200_SDK.a(asn1parse.o)
 .debug_frame   0x00008e3c      0x694 ./SysLib/MercuryPlat/release/AL36V200_SDK.a(bignum.o)
 .debug_frame   0x000094d0      0x188 ./SysLib/MercuryPlat/release/AL36V200_SDK.a(ctr_drbg.o)
 .debug_frame   0x00009658       0xec ./SysLib/MercuryPlat/release/AL36V200_SDK.a(entropy.o)
 .debug_frame   0x00009744       0x4c ./SysLib/MercuryPlat/release/AL36V200_SDK.a(error.o)
 .debug_frame   0x00009790      0x214 ./SysLib/MercuryPlat/release/AL36V200_SDK.a(md.o)
 .debug_frame   0x000099a4      0x304 ./SysLib/MercuryPlat/release/AL36V200_SDK.a(md_wrap.o)
 .debug_frame   0x00009ca8       0xc0 ./SysLib/MercuryPlat/release/AL36V200_SDK.a(net.o)
 .debug_frame   0x00009d68      0x1dc ./SysLib/MercuryPlat/release/AL36V200_SDK.a(oid.o)
 .debug_frame   0x00009f44      0x13c ./SysLib/MercuryPlat/release/AL36V200_SDK.a(pem.o)
 .debug_frame   0x0000a080      0x1f8 ./SysLib/MercuryPlat/release/AL36V200_SDK.a(pk.o)
 .debug_frame   0x0000a278      0x340 ./SysLib/MercuryPlat/release/AL36V200_SDK.a(pk_wrap.o)
 .debug_frame   0x0000a5b8      0x178 ./SysLib/MercuryPlat/release/AL36V200_SDK.a(pkparse.o)
 .debug_frame   0x0000a730      0x110 ./SysLib/MercuryPlat/release/AL36V200_SDK.a(ripemd160.o)
 .debug_frame   0x0000a840      0x408 ./SysLib/MercuryPlat/release/AL36V200_SDK.a(rsa.o)
 .debug_frame   0x0000ac48      0x110 ./SysLib/MercuryPlat/release/AL36V200_SDK.a(sha1.o)
 .debug_frame   0x0000ad58      0x120 ./SysLib/MercuryPlat/release/AL36V200_SDK.a(sha512.o)
 .debug_frame   0x0000ae78      0xbf8 ./SysLib/MercuryPlat/release/AL36V200_SDK.a(ssl_tls.o)
 .debug_frame   0x0000ba70      0x214 ./SysLib/MercuryPlat/release/AL36V200_SDK.a(x509.o)
 .debug_frame   0x0000bc84       0xb4 ./SysLib/MercuryPlat/release/AL36V200_SDK.a(MQTTConnectClient.o)
 .debug_frame   0x0000bd38       0x54 ./SysLib/MercuryPlat/release/AL36V200_SDK.a(MQTTDeserializePublish.o)
 .debug_frame   0x0000bd8c      0x1c4 ./SysLib/MercuryPlat/release/AL36V200_SDK.a(MQTTPacket.o)
 .debug_frame   0x0000bf50       0xc4 ./SysLib/MercuryPlat/release/AL36V200_SDK.a(MQTTSerializePublish.o)
 .debug_frame   0x0000c014       0x88 ./SysLib/MercuryPlat/release/AL36V200_SDK.a(MQTTSubscribeClient.o)
 .debug_frame   0x0000c09c       0x78 ./SysLib/MercuryPlat/release/AL36V200_SDK.a(MQTTUnsubscribeClient.o)
 .debug_frame   0x0000c114       0x20 ./SysLib/MercuryPlat/release/AL36V200_SDK.a(ac35_hardware.o)
 .debug_frame   0x0000c134      0x1cc ./SysLib/MercuryPlat/release/AL36V200_SDK.a(aes.o)
 .debug_frame   0x0000c300      0x394 ./SysLib/MercuryPlat/release/AL36V200_SDK.a(cipher.o)
 .debug_frame   0x0000c694      0x344 ./SysLib/MercuryPlat/release/AL36V200_SDK.a(cipher_wrap.o)
 .debug_frame   0x0000c9d8      0x16c ./SysLib/MercuryPlat/release/AL36V200_SDK.a(debug.o)
 .debug_frame   0x0000cb44      0x24c ./SysLib/MercuryPlat/release/AL36V200_SDK.a(des.o)
 .debug_frame   0x0000cd90      0x168 ./SysLib/MercuryPlat/release/AL36V200_SDK.a(dhm.o)
 .debug_frame   0x0000cef8      0x180 ./SysLib/MercuryPlat/release/AL36V200_SDK.a(ecdh.o)
 .debug_frame   0x0000d078      0x194 ./SysLib/MercuryPlat/release/AL36V200_SDK.a(ecdsa.o)
 .debug_frame   0x0000d20c      0x5d0 ./SysLib/MercuryPlat/release/AL36V200_SDK.a(ecp.o)
 .debug_frame   0x0000d7dc      0x1c8 ./SysLib/MercuryPlat/release/AL36V200_SDK.a(ecp_curves.o)
 .debug_frame   0x0000d9a4      0x17c ./SysLib/MercuryPlat/release/AL36V200_SDK.a(gcm.o)
 .debug_frame   0x0000db20      0x144 ./SysLib/MercuryPlat/release/AL36V200_SDK.a(hmac_drbg.o)
 .debug_frame   0x0000dc64       0x6c ./SysLib/MercuryPlat/release/AL36V200_SDK.a(pkcs5.o)
 .debug_frame   0x0000dcd0       0xd8 ./SysLib/MercuryPlat/release/AL36V200_SDK.a(pkcs12.o)
 .debug_frame   0x0000dda8       0xc4 ./SysLib/MercuryPlat/release/AL36V200_SDK.a(ssl_ciphersuites.o)
 .debug_frame   0x0000de6c       0xcc ./SysLib/MercuryPlat/release/AL36V200_SDK.a(ssl_cli.o)
 .debug_frame   0x0000df38       0x70 ./SysLib/MercuryPlat/release/AL36V200_SDK.a(arc4.o)
 .debug_frame   0x0000dfa8      0x1b0 ./SysLib/MercuryPlat/release/AL36V200_SDK.a(asn1write.o)
 .debug_frame   0x0000e158      0x14c ./SysLib/MercuryPlat/release/AL36V200_SDK.a(camellia.o)
 .debug_frame   0x0000e2a4       0xdc ./SysLib/MercuryPlat/release/AL36V200_SDK.a(ccm.o)
 .debug_frame   0x0000e380       0x20 .//prebuilts/win32/gcc-arm-none-eabi/lib/gcc/arm-none-eabi/7.2.1\libgcc.a(_udivsi3.o)
 .debug_frame   0x0000e3a0       0x44 .//prebuilts/win32/gcc-arm-none-eabi/lib/gcc/arm-none-eabi/7.2.1\libgcc.a(_aeabi_ldivmod.o)
 .debug_frame   0x0000e3e4       0x2c .//prebuilts/win32/gcc-arm-none-eabi/lib/gcc/arm-none-eabi/7.2.1\libgcc.a(_aeabi_uldivmod.o)
 .debug_frame   0x0000e410       0x40 .//prebuilts/win32/gcc-arm-none-eabi/lib/gcc/arm-none-eabi/7.2.1\libgcc.a(_udivmoddi4.o)
 .debug_frame   0x0000e450      0x258 ./SysLib/MercuryPlat/release/libsystem.a(MercuryBarScan.o)
 .debug_frame   0x0000e6a8      0x228 ./SysLib/MercuryPlat/release/libsystem.a(MercuryCom.o)
 .debug_frame   0x0000e8d0       0x80 ./SysLib/MercuryPlat/release/libsystem.a(MercurySec.o)
 .debug_frame   0x0000e950      0x164 ./SysLib/MercuryPlat/release/libsystem.a(MercurySpi.o)
